
project.o:     file format coff-hc1x

Disassembly of section .text:

0x00001000 <_crt1__Fv>:
    1000:	1b 96       	leas  -10,sp

0x00001002 <LBB2>:
    1002:	ce 49 a5    	ldx   #0x49a5 <.data>
    1005:	8e 49 a5    	cpx   #0x49a5 <.data>
    1008:	24 09       	bcc   0x1013 <L3>

0x0000100a <L5>:
    100a:	18 08 30 00 	movb  #0x0,1,x+
    100e:	8e 49 a5    	cpx   #0x49a5 <.data>
    1011:	25 f7       	bcs   0x100a <L5>

0x00001013 <L3>:
    1013:	87 c7       	clrd  
    1015:	6c 88       	std   8,sp
    1017:	ce 49 8d    	ldx   #0x498d <_ctor_end>
    101a:	b7 c5       	xgdx  
    101c:	b3 3e 7b    	subd  0x3e7b <LC0>
    101f:	b7 c5       	xgdx  
    1021:	b7 54       	tfr   x,d
    1023:	47 56       	asrd  
    1025:	b7 45       	tfr   d,x
    1027:	ed 88       	ldy   8,sp
    1029:	34          	pshx  
    102a:	ad b1       	cpy   2,sp+
    102c:	2c 1a       	bge   0x1048 <L8>
    102e:	6e 86       	stx   6,sp
    1030:	cd 49 8b    	ldy   #0x498b <_ctor_beg>
    1033:	6d 80       	sty   0,sp

0x00001035 <L10>:
    1035:	ed 80       	ldy   0,sp
    1037:	ee 71       	ldx   2,y+
    1039:	6d 80       	sty   0,sp
    103b:	15 00       	jsr   0,x
    103d:	ec 88       	ldd   8,sp
    103f:	c3 00 01    	incd  
    1042:	6c 88       	std   8,sp
    1044:	ac 86       	cpd   6,sp
    1046:	2d ed       	blt   0x1035 <L10>

0x00001048 <L8>:
    1048:	10 ef       	cli   
    104a:	16 1c 88    	jsr   0x1c88 <_main>
    104d:	14 10       	sei   
    104f:	87 c7       	clrd  
    1051:	6c 88       	std   8,sp
    1053:	ce 49 8f    	ldx   #0x498f <_dtor_end>
    1056:	b7 c5       	xgdx  
    1058:	b3 3e 7d    	subd  0x3e7d <LC1>
    105b:	b7 c5       	xgdx  
    105d:	b7 54       	tfr   x,d
    105f:	47 56       	asrd  
    1061:	b7 45       	tfr   d,x
    1063:	ed 88       	ldy   8,sp
    1065:	34          	pshx  
    1066:	ad b1       	cpy   2,sp+
    1068:	2c 1a       	bge   0x1084 <L17>
    106a:	6e 84       	stx   4,sp
    106c:	cd 49 8d    	ldy   #0x498d <_ctor_end>
    106f:	6d 82       	sty   2,sp

0x00001071 <L15>:
    1071:	ed 82       	ldy   2,sp
    1073:	ee 71       	ldx   2,y+
    1075:	6d 82       	sty   2,sp
    1077:	15 00       	jsr   0,x
    1079:	ec 88       	ldd   8,sp
    107b:	c3 00 01    	incd  
    107e:	6c 88       	std   8,sp
    1080:	ac 84       	cpd   4,sp
    1082:	2d ed       	blt   0x1071 <L15>

0x00001084 <L17>:
    1084:	20 fe       	bra   0x1084 <L17>

0x00001086 <LBE2>:
    1086:	1b 8a       	leas  10,sp
    1088:	3d          	rts   

0x00001089 <___3IsrR5IctlrUi>:
    1089:	1b 9c       	leas  -4,sp
    108b:	6c 82       	std   2,sp
    108d:	cc 3e 85    	ldd   #0x3e85 <___vt_3Isr>
    1090:	ed 82       	ldy   2,sp
    1092:	6c 44       	std   4,y
    1094:	ed 86       	ldy   6,sp
    1096:	6d f3 00 02 	sty   [2,sp]
    109a:	ec 88       	ldd   8,sp
    109c:	ed 82       	ldy   2,sp
    109e:	6c 42       	std   2,y

0x000010a0 <LBB2>:
    10a0:	ee f3 00 02 	ldx   [2,sp]
    10a4:	6d 80       	sty   0,sp
    10a6:	b7 54       	tfr   x,d
    10a8:	16 11 46    	jsr   0x1146 <_attach__5IctlrP3Isr>

0x000010ab <LBE2>:
    10ab:	ec 82       	ldd   2,sp
    10ad:	1b 84       	leas  4,sp
    10af:	3d          	rts   

0x000010b0 <__$_3Isr>:
    10b0:	1b 9c       	leas  -4,sp
    10b2:	6c 82       	std   2,sp
    10b4:	cc 3e 85    	ldd   #0x3e85 <___vt_3Isr>
    10b7:	ed 82       	ldy   2,sp
    10b9:	6c 44       	std   4,y

0x000010bb <LBB3>:
    10bb:	ee f3 00 02 	ldx   [2,sp]
    10bf:	6d 80       	sty   0,sp
    10c1:	b7 54       	tfr   x,d
    10c3:	16 11 60    	jsr   0x1160 <_detach__5IctlrP3Isr>

0x000010c6 <LBE3>:
    10c6:	ec 86       	ldd   6,sp
    10c8:	87          	clra  
    10c9:	c4 01       	andb  #0x1
    10cb:	b7 45       	tfr   d,x
    10cd:	8e 00 00    	tstx  
    10d0:	27 05       	beq   0x10d7 <L12>
    10d2:	ec 82       	ldd   2,sp
    10d4:	16 25 c2    	jsr   0x25c2 <___builtin_delete>

0x000010d7 <L12>:
    10d7:	1b 84       	leas  4,sp
    10d9:	3d          	rts   

0x000010da <_handler__3Isr>:
    10da:	3d          	rts   

0x000010db <___5IctlrUi>:
    10db:	1b 9c       	leas  -4,sp
    10dd:	6c 82       	std   2,sp
    10df:	ee 86       	ldx   6,sp
    10e1:	cc 3e 7f    	ldd   #0x3e7f <___vt_5Ictlr>
    10e4:	ed 82       	ldy   2,sp
    10e6:	6c 44       	std   4,y
    10e8:	6e f3 00 02 	stx   [2,sp]
    10ec:	b7 54       	tfr   x,d
    10ee:	59          	asld  
    10ef:	b7 45       	tfr   d,x
    10f1:	16 25 ab    	jsr   0x25ab <___builtin_vec_new>
    10f4:	b7 45       	tfr   d,x
    10f6:	ed 82       	ldy   2,sp
    10f8:	6e 42       	stx   2,y

0x000010fa <LBB5>:
    10fa:	87 c7       	clrd  
    10fc:	20 15       	bra   0x1113 <L21>

0x000010fe <L18>:
    10fe:	ec 80       	ldd   0,sp
    1100:	59          	asld  
    1101:	b7 45       	tfr   d,x
    1103:	ed 82       	ldy   2,sp
    1105:	ec 42       	ldd   2,y
    1107:	1a e6       	leax  d,x
    1109:	18 00 00 00 	movw  #0x0 <*ABS*>,0,x
    110d:	00 
    110e:	ec 80       	ldd   0,sp
    1110:	c3 00 01    	incd  

0x00001113 <L21>:
    1113:	6c 80       	std   0,sp
    1115:	ac f3 00 02 	cpd   [2,sp]
    1119:	25 e3       	bcs   0x10fe <L18>

0x0000111b <LBE5>:
    111b:	ec 82       	ldd   2,sp
    111d:	1b 84       	leas  4,sp
    111f:	3d          	rts   

0x00001120 <__$_5Ictlr>:
    1120:	1b 9e       	leas  -2,sp
    1122:	6c 80       	std   0,sp
    1124:	cc 3e 7f    	ldd   #0x3e7f <___vt_5Ictlr>
    1127:	ed 80       	ldy   0,sp
    1129:	6c 44       	std   4,y

0x0000112b <LBB7>:
    112b:	ee 42       	ldx   2,y
    112d:	27 05       	beq   0x1134 <L25>
    112f:	b7 54       	tfr   x,d
    1131:	16 25 c6    	jsr   0x25c6 <___builtin_vec_delete>

0x00001134 <L25>:
    1134:	ec 84       	ldd   4,sp
    1136:	87          	clra  
    1137:	c4 01       	andb  #0x1
    1139:	8c 00 00    	tstd  
    113c:	27 05       	beq   0x1143 <L27>
    113e:	ec 80       	ldd   0,sp
    1140:	16 25 c2    	jsr   0x25c2 <___builtin_delete>

0x00001143 <L27>:
    1143:	1b 82       	leas  2,sp
    1145:	3d          	rts   

0x00001146 <_attach__5IctlrP3Isr>:
    1146:	1b 9e       	leas  -2,sp
    1148:	6c 80       	std   0,sp
    114a:	ee 84       	ldx   4,sp

0x0000114c <LBB8>:
    114c:	ec 02       	ldd   2,x
    114e:	ac f3 00 00 	cpd   [0,sp]
    1152:	24 09       	bcc   0x115d <L29>
    1154:	59          	asld  
    1155:	ed 80       	ldy   0,sp
    1157:	e3 42       	addd  2,y
    1159:	b7 46       	tfr   d,y
    115b:	6e 40       	stx   0,y

0x0000115d <L29>:
    115d:	1b 82       	leas  2,sp
    115f:	3d          	rts   

0x00001160 <_detach__5IctlrP3Isr>:
    1160:	1b 9e       	leas  -2,sp
    1162:	b7 45       	tfr   d,x
    1164:	ed 84       	ldy   4,sp

0x00001166 <LBB9>:
    1166:	ed 42       	ldy   2,y
    1168:	6d 80       	sty   0,sp
    116a:	ad 00       	cpy   0,x
    116c:	24 0c       	bcc   0x117a <L31>
    116e:	b7 64       	tfr   y,d
    1170:	59          	asld  
    1171:	e3 02       	addd  2,x
    1173:	b7 45       	tfr   d,x
    1175:	18 00 00 00 	movw  #0x0 <*ABS*>,0,x
    1179:	00 

0x0000117a <L31>:
    117a:	1b 82       	leas  2,sp
    117c:	3d          	rts   

0x0000117d <_runHandler__5IctlrUi>:
    117d:	b7 45       	tfr   d,x

0x0000117f <LBB10>:
    117f:	ec 82       	ldd   2,sp
    1181:	59          	asld  
    1182:	e3 02       	addd  2,x
    1184:	b7 46       	tfr   d,y
    1186:	ec 40       	ldd   0,y
    1188:	27 08       	beq   0x1192 <L3>
    118a:	b7 46       	tfr   d,y
    118c:	ee 44       	ldx   4,y
    118e:	15 e3 00 06 	jsr   [6,x]

0x00001192 <L3>:
    1192:	3d          	rts   

0x00001193 <_insert__16PriorityTaskListPQ28TaskList4Node>:
    1193:	1b f1 ee    	leas  -18,sp
    1196:	6c 8e       	std   14,sp

0x00001198 <LBB2>:
    1198:	b7 21       	tfr   ccr,b
    119a:	6c f0 10    	std   16,sp
    119d:	14 10       	sei   

0x0000119f <LBB5>:
    119f:	ed f0 14    	ldy   20,sp
    11a2:	18 27 00 b2 	lbeq  0x1258 <L30>

0x000011a6 <LBB6>:
    11a6:	ed 42       	ldy   2,y
    11a8:	6d 8c       	sty   12,sp

0x000011aa <LBB7>:
    11aa:	ee f3 00 0e 	ldx   [14,sp]
    11ae:	18 27 00 99 	lbeq  0x124b <L31>

0x000011b2 <LBB8>:
    11b2:	6e 80       	stx   0,sp
    11b4:	20 06       	bra   0x11bc <L60>

0x000011b6 <L34>:
    11b6:	ed f3 00 00 	ldy   [0,sp]
    11ba:	6d 80       	sty   0,sp

0x000011bc <L60>:
    11bc:	ec f3 00 00 	ldd   [0,sp]
    11c0:	26 f4       	bne   0x11b6 <L34>
    11c2:	ed 80       	ldy   0,sp
    11c4:	ee 42       	ldx   2,y

0x000011c6 <LBB10>:
    11c6:	c7          	clrb  
    11c7:	6b 84       	stab  4,sp
    11c9:	ed 8c       	ldy   12,sp
    11cb:	ed 44       	ldy   4,y
    11cd:	6d 8a       	sty   10,sp
    11cf:	ad 04       	cpy   4,x
    11d1:	23 04       	bls   0x11d7 <L38>
    11d3:	c6 01       	ldab  #0x1
    11d5:	6b 84       	stab  4,sp

0x000011d7 <L38>:
    11d7:	e7 84       	tst   4,sp
    11d9:	27 0a       	beq   0x11e5 <L37>
    11db:	ed f0 14    	ldy   20,sp
    11de:	6d f3 00 00 	sty   [0,sp]
    11e2:	06 12 52    	jmp   0x1252 <L61>

0x000011e5 <L37>:
    11e5:	ee f3 00 0e 	ldx   [14,sp]
    11e9:	ed 02       	ldy   2,x
    11eb:	6d 80       	sty   0,sp

0x000011ed <LBB13>:
    11ed:	c7          	clrb  
    11ee:	6b 84       	stab  4,sp
    11f0:	ec 8a       	ldd   10,sp
    11f2:	ac 44       	cpd   4,y
    11f4:	23 04       	bls   0x11fa <L43>
    11f6:	c6 01       	ldab  #0x1
    11f8:	6b 84       	stab  4,sp

0x000011fa <L43>:
    11fa:	e7 84       	tst   4,sp
    11fc:	26 0e       	bne   0x120c <L42>
    11fe:	6e f3 00 14 	stx   [20,sp]
    1202:	ed f0 14    	ldy   20,sp
    1205:	6d f3 00 0e 	sty   [14,sp]
    1209:	06 12 58    	jmp   0x1258 <L30>

0x0000120c <L42>:
    120c:	cc 00 01    	ldd   #0x1 <err_over>

0x0000120f <L62>:
    120f:	6c 86       	std   6,sp

0x00001211 <L47>:
    1211:	ed 00       	ldy   0,x
    1213:	6d 80       	sty   0,sp
    1215:	27 41       	beq   0x1258 <L30>
    1217:	ec 86       	ldd   6,sp
    1219:	27 3d       	beq   0x1258 <L30>
    121b:	6e 88       	stx   8,sp
    121d:	b7 65       	tfr   y,x
    121f:	ed 02       	ldy   2,x
    1221:	6d 80       	sty   0,sp

0x00001223 <LBB18>:
    1223:	c7          	clrb  
    1224:	6b 85       	stab  5,sp
    1226:	ed 8c       	ldy   12,sp
    1228:	ed 44       	ldy   4,y
    122a:	6d 82       	sty   2,sp
    122c:	b7 64       	tfr   y,d
    122e:	ed 80       	ldy   0,sp
    1230:	ac 44       	cpd   4,y
    1232:	23 04       	bls   0x1238 <L52>
    1234:	c6 01       	ldab  #0x1
    1236:	6b 85       	stab  5,sp

0x00001238 <L52>:
    1238:	e7 85       	tst   5,sp
    123a:	26 d5       	bne   0x1211 <L47>
    123c:	6e f3 00 14 	stx   [20,sp]
    1240:	ed f0 14    	ldy   20,sp
    1243:	6d f3 00 08 	sty   [8,sp]
    1247:	87 c7       	clrd  

0x00001249 <LBE17>:
    1249:	20 c4       	bra   0x120f <L62>

0x0000124b <L31>:
    124b:	ed f0 14    	ldy   20,sp
    124e:	6d f3 00 0e 	sty   [14,sp]

0x00001252 <L61>:
    1252:	87 c7       	clrd  
    1254:	6c f3 00 14 	std   [20,sp]

0x00001258 <L30>:
    1258:	ec f0 10    	ldd   16,sp
    125b:	b7 12       	tfr   b,ccr

0x0000125d <LBE2>:
    125d:	1b f0 12    	leas  18,sp
    1260:	3d          	rts   

0x00001261 <___16PriorityTaskListP4Task>:
    1261:	1b 9c       	leas  -4,sp
    1263:	6c 82       	std   2,sp
    1265:	18 02 86 80 	movw  6,sp,0,sp
    1269:	16 28 9f    	jsr   0x289f <___8TaskListP4Task>
    126c:	cc 3e 8d    	ldd   #0x3e8d <___vt_16PriorityTaskList>
    126f:	ed 82       	ldy   2,sp
    1271:	6c 42       	std   2,y

0x00001273 <LBB23>:
    1273:	b7 64       	tfr   y,d
    1275:	1b 84       	leas  4,sp
    1277:	3d          	rts   

0x00001278 <__$_16PriorityTaskList>:
    1278:	1b 9e       	leas  -2,sp
    127a:	18 02 84 80 	movw  4,sp,0,sp
    127e:	16 28 d0    	jsr   0x28d0 <__$_8TaskList>
    1281:	1b 82       	leas  2,sp
    1283:	3d          	rts   

0x00001284 <___10PwmChannelR9PwmDriveri>:
    1284:	1b f1 ef    	leas  -17,sp
    1287:	6c 8d       	std   13,sp
    1289:	87 c7       	clrd  
    128b:	6c f3 00 0d 	std   [13,sp]
    128f:	ec f0 13    	ldd   19,sp
    1292:	ed 8d       	ldy   13,sp
    1294:	6c 42       	std   2,y
    1296:	fc 3e 95    	ldd   0x3e95 <LC0>
    1299:	6c 44       	std   4,y
    129b:	fc 3e 97    	ldd   0x3e97 <LC0+0x2>
    129e:	6c 46       	std   6,y
    12a0:	87 c7       	clrd  
    12a2:	6c 4a       	std   10,y
    12a4:	6c 4c       	std   12,y

0x000012a6 <Ltext1>:
    12a6:	1a 4e       	leax  14,y
    12a8:	ec f0 15    	ldd   21,sp
    12ab:	59          	asld  
    12ac:	59          	asld  
    12ad:	6c 8b       	std   11,sp

0x000012af <LBB2>:
    12af:	ec f0 15    	ldd   21,sp
    12b2:	59          	asld  
    12b3:	59          	asld  
    12b4:	59          	asld  
    12b5:	6c 84       	std   4,sp
    12b7:	b7 46       	tfr   d,y
    12b9:	19 ea 00 90 	leay  144,y
    12bd:	6d 82       	sty   2,sp
    12bf:	6d 00       	sty   0,x
    12c1:	cc 00 01    	ldd   #0x1 <err_over>
    12c4:	ed 8b       	ldy   11,sp
    12c6:	34          	pshx  
    12c7:	b7 65       	tfr   y,x
    12c9:	16 41 09    	jsr   0x4109 <___hc12_ashlhi>
    12cc:	30          	pulx  
    12cd:	6c 02       	std   2,x
    12cf:	cc 00 01    	ldd   #0x1 <err_over>
    12d2:	ed 84       	ldy   4,sp
    12d4:	34          	pshx  
    12d5:	b7 65       	tfr   y,x
    12d7:	16 41 09    	jsr   0x4109 <___hc12_ashlhi>
    12da:	30          	pulx  
    12db:	6c 04       	std   4,x
    12dd:	cc 00 02    	ldd   #0x2 <err_under>
    12e0:	34          	pshx  
    12e1:	b7 65       	tfr   y,x
    12e3:	16 41 09    	jsr   0x4109 <___hc12_ashlhi>
    12e6:	30          	pulx  
    12e7:	6c 06       	std   6,x

0x000012e9 <LBB3>:
    12e9:	f6 00 86    	ldab  0x86 <_tscr>
    12ec:	ca 90       	orab  #0x90
    12ee:	7b 00 86    	stab  0x86 <_tscr>
    12f1:	ed 00       	ldy   0,x
    12f3:	6d 82       	sty   2,sp
    12f5:	fc 00 84    	ldd   0x84 <_tcnt>
    12f8:	c3 ff ff    	addd  #0xffff <.stab+0x7b>
    12fb:	6c f3 00 02 	std   [2,sp]
    12ff:	f6 00 80    	ldab  0x80 <_tios>
    1302:	ea 03       	orab  3,x
    1304:	7b 00 80    	stab  0x80 <_tios>

0x00001307 <LBE2>:
    1307:	ed 8d       	ldy   13,sp
    1309:	19 e8 16    	leay  22,y
    130c:	6d 89       	sty   9,sp
    130e:	ee 8b       	ldx   11,sp
    1310:	08          	inx   

0x00001311 <LBB4>:
    1311:	b7 54       	tfr   x,d
    1313:	59          	asld  
    1314:	6c 84       	std   4,sp
    1316:	b7 46       	tfr   d,y
    1318:	19 ea 00 90 	leay  144,y
    131c:	6d 82       	sty   2,sp
    131e:	6d f3 00 09 	sty   [9,sp]
    1322:	cc 00 01    	ldd   #0x1 <err_over>
    1325:	34          	pshx  
    1326:	b7 55       	tfr   x,x
    1328:	16 41 09    	jsr   0x4109 <___hc12_ashlhi>
    132b:	30          	pulx  
    132c:	b7 45       	tfr   d,x
    132e:	ed 89       	ldy   9,sp
    1330:	6e 42       	stx   2,y
    1332:	cc 00 01    	ldd   #0x1 <err_over>
    1335:	ed 84       	ldy   4,sp
    1337:	34          	pshx  
    1338:	b7 65       	tfr   y,x
    133a:	16 41 09    	jsr   0x4109 <___hc12_ashlhi>
    133d:	30          	pulx  
    133e:	b7 45       	tfr   d,x
    1340:	ed 89       	ldy   9,sp
    1342:	6e 44       	stx   4,y
    1344:	cc 00 02    	ldd   #0x2 <err_under>
    1347:	ed 84       	ldy   4,sp
    1349:	34          	pshx  
    134a:	b7 65       	tfr   y,x
    134c:	16 41 09    	jsr   0x4109 <___hc12_ashlhi>
    134f:	30          	pulx  
    1350:	b7 45       	tfr   d,x
    1352:	ed 89       	ldy   9,sp
    1354:	6e 46       	stx   6,y

0x00001356 <LBB5>:
    1356:	f6 00 86    	ldab  0x86 <_tscr>
    1359:	ca 90       	orab  #0x90
    135b:	7b 00 86    	stab  0x86 <_tscr>
    135e:	ed f3 00 09 	ldy   [9,sp]
    1362:	6d 82       	sty   2,sp
    1364:	fe 00 84    	ldx   0x84 <_tcnt>
    1367:	09          	dex   
    1368:	6e f3 00 02 	stx   [2,sp]
    136c:	f6 00 80    	ldab  0x80 <_tios>
    136f:	ed 89       	ldy   9,sp
    1371:	ea 43       	orab  3,y
    1373:	7b 00 80    	stab  0x80 <_tios>

0x00001376 <LBE4>:
    1376:	ed 8d       	ldy   13,sp
    1378:	1a e8 1e    	leax  30,y
    137b:	ec 8b       	ldd   11,sp
    137d:	c3 00 02    	addd  #0x2 <err_under>
    1380:	6c 87       	std   7,sp

0x00001382 <LBB6>:
    1382:	59          	asld  
    1383:	6c 84       	std   4,sp
    1385:	b7 46       	tfr   d,y
    1387:	19 ea 00 90 	leay  144,y
    138b:	6d 82       	sty   2,sp
    138d:	6d 00       	sty   0,x
    138f:	cc 00 01    	ldd   #0x1 <err_over>
    1392:	ed 87       	ldy   7,sp
    1394:	34          	pshx  
    1395:	b7 65       	tfr   y,x
    1397:	16 41 09    	jsr   0x4109 <___hc12_ashlhi>
    139a:	30          	pulx  
    139b:	6c 02       	std   2,x
    139d:	cc 00 01    	ldd   #0x1 <err_over>
    13a0:	ed 84       	ldy   4,sp
    13a2:	34          	pshx  
    13a3:	b7 65       	tfr   y,x
    13a5:	16 41 09    	jsr   0x4109 <___hc12_ashlhi>
    13a8:	30          	pulx  
    13a9:	6c 04       	std   4,x
    13ab:	cc 00 02    	ldd   #0x2 <err_under>
    13ae:	34          	pshx  
    13af:	b7 65       	tfr   y,x
    13b1:	16 41 09    	jsr   0x4109 <___hc12_ashlhi>
    13b4:	30          	pulx  
    13b5:	6c 06       	std   6,x

0x000013b7 <LBB7>:
    13b7:	f6 00 86    	ldab  0x86 <_tscr>
    13ba:	ca 90       	orab  #0x90
    13bc:	7b 00 86    	stab  0x86 <_tscr>
    13bf:	ed 00       	ldy   0,x
    13c1:	6d 82       	sty   2,sp
    13c3:	fc 00 84    	ldd   0x84 <_tcnt>
    13c6:	c3 ff ff    	addd  #0xffff <.stab+0x7b>
    13c9:	6c f3 00 02 	std   [2,sp]
    13cd:	f6 00 80    	ldab  0x80 <_tios>
    13d0:	ea 03       	orab  3,x
    13d2:	7b 00 80    	stab  0x80 <_tios>

0x000013d5 <LBB10>:
    13d5:	b7 21       	tfr   ccr,b
    13d7:	6c 8f       	std   15,sp
    13d9:	14 10       	sei   

0x000013db <LBB11>:
    13db:	ed 89       	ldy   9,sp
    13dd:	e6 43       	ldab  3,y
    13df:	51          	comb  
    13e0:	6b 86       	stab  6,sp
    13e2:	f6 00 83    	ldab  0x83 <_oc7d>
    13e5:	e4 86       	andb  6,sp
    13e7:	7b 00 83    	stab  0x83 <_oc7d>
    13ea:	f6 00 82    	ldab  0x82 <_oc7m>
    13ed:	ea 43       	orab  3,y
    13ef:	7b 00 82    	stab  0x82 <_oc7m>

0x000013f2 <LBE11>:
    13f2:	ed 8d       	ldy   13,sp
    13f4:	ee 42       	ldx   2,y
    13f6:	6d 80       	sty   0,sp
    13f8:	b7 54       	tfr   x,d
    13fa:	16 16 f6    	jsr   0x16f6 <_attach__9PwmDriverP10PwmChannel>
    13fd:	b7 45       	tfr   d,x
    13ff:	6e f3 00 0d 	stx   [13,sp]

0x00001403 <LBB13>:
    1403:	ec 8f       	ldd   15,sp
    1405:	b7 12       	tfr   b,ccr

0x00001407 <LBE13>:
    1407:	ec 8d       	ldd   13,sp
    1409:	1b f0 11    	leas  17,sp
    140c:	3d          	rts   

0x0000140d <_setDuty__10PwmChannelf>:
    140d:	1b f1 de    	leas  -34,sp
    1410:	b7 45       	tfr   d,x
    1412:	ec f0 24    	ldd   36,sp
    1415:	6c f0 1c    	std   28,sp
    1418:	ec f0 26    	ldd   38,sp
    141b:	6c f0 1e    	std   30,sp

0x0000141e <LBB15>:
    141e:	ec f0 1c    	ldd   28,sp
    1421:	6c 04       	std   4,x
    1423:	ec f0 26    	ldd   38,sp
    1426:	6c 06       	std   6,x
    1428:	ec 04       	ldd   4,x
    142a:	6c f0 16    	std   22,sp
    142d:	ec f0 26    	ldd   38,sp
    1430:	6c f0 18    	std   24,sp
    1433:	cc ff ff    	ldd   #0xffff <.stab+0x7b>
    1436:	6c f0 1a    	std   26,sp
    1439:	16 41 13    	jsr   0x4113 <___hc12_tstsf>
    143c:	16 2d 06    	jsr   0x2d06 <LBE2>
    143f:	cc 00 01    	ldd   #0x1 <err_over>
    1442:	6c f0 1a    	std   26,sp

0x00001445 <L80>:
    1445:	ed 02       	ldy   2,x

0x00001447 <LBB16>:
    1447:	ed 48       	ldy   8,y
    1449:	6d 80       	sty   0,sp

0x0000144b <LBE16>:
    144b:	b7 64       	tfr   y,d
    144d:	16 41 67    	jsr   0x4167 <___hc12_floatunshisf>
    1450:	12          	mul   
    1451:	18 02 04 8e 	movw  4,x,14,sp
    1455:	ec f0 26    	ldd   38,sp
    1458:	6c f0 10    	std   16,sp
    145b:	16 41 af    	jsr   0x41af <___hc12_mulsf>
    145e:	0a          	rtc   
    145f:	12          	mul   
    1460:	0e ec f0 1a 	brset a,y,#0xf0,0x147e <LBB18+0xa>
    1464:	16 41 b8    	jsr   0x41b8 <___hc12_floathisf>
    1467:	06 16 41    	jmp   0x1641 <LBB4>
    146a:	af 02       	cps   2,x
    146c:	0a          	rtc   
    146d:	06 16 42    	jmp   0x1642 <LBB4+0x1>
    1470:	00          	bgnd  
    1471:	02          	iny   
    1472:	b7 46       	tfr   d,y

0x00001474 <LBB18>:
    1474:	ec 80       	ldd   0,sp
    1476:	c3 ff e0    	addd  #0xffe0 <.stab+0x5c>
    1479:	6c 80       	std   0,sp
    147b:	ad 80       	cpy   0,sp
    147d:	23 02       	bls   0x1481 <L84>
    147f:	b7 46       	tfr   d,y

0x00001481 <L84>:
    1481:	b7 21       	tfr   ccr,b
    1483:	6c f0 20    	std   32,sp
    1486:	14 10       	sei   

0x00001488 <LBE20>:
    1488:	ec f0 1a    	ldd   26,sp
    148b:	6c 08       	std   8,x
    148d:	6d 0a       	sty   10,x

0x0000148f <LBB22>:
    148f:	ec f0 20    	ldd   32,sp
    1492:	b7 12       	tfr   b,ccr

0x00001494 <LBE15>:
    1494:	1b f0 22    	leas  34,sp
    1497:	3d          	rts   

0x00001498 <_getDuty__10PwmChannel>:
    1498:	1b 9e       	leas  -2,sp
    149a:	b7 45       	tfr   d,x
    149c:	ed 84       	ldy   4,sp

0x0000149e <LBB24>:
    149e:	b7 21       	tfr   ccr,b
    14a0:	6c 80       	std   0,sp
    14a2:	14 10       	sei   

0x000014a4 <LBE25>:
    14a4:	18 02 44 00 	movw  4,y,0,x
    14a8:	18 02 46 02 	movw  6,y,2,x

0x000014ac <LBB27>:
    14ac:	ec 80       	ldd   0,sp
    14ae:	b7 12       	tfr   b,ccr

0x000014b0 <LBE24>:
    14b0:	b7 54       	tfr   x,d
    14b2:	1b 82       	leas  2,sp
    14b4:	3d          	rts   

0x000014b5 <_handler__10PwmChanneliUi>:
    14b5:	1b 96       	leas  -10,sp
    14b7:	6c 88       	std   8,sp

0x000014b9 <LBB30>:
    14b9:	b7 46       	tfr   d,y
    14bb:	ee 42       	ldx   2,y

0x000014bd <LBB31>:
    14bd:	ec 08       	ldd   8,x
    14bf:	6c 86       	std   6,sp
    14c1:	b7 45       	tfr   d,x

0x000014c3 <LBB33>:
    14c3:	ed 8c       	ldy   12,sp
    14c5:	18 26 00 54 	lbne  0x151d <L100>

0x000014c9 <LBB34>:
    14c9:	ed 88       	ldy   8,sp
    14cb:	ec 4a       	ldd   10,y
    14cd:	6c 4c       	std   12,y

0x000014cf <LBB35>:
    14cf:	ec 86       	ldd   6,sp
    14d1:	49          	lsrd  
    14d2:	6c 80       	std   0,sp
    14d4:	ee 4c       	ldx   12,y
    14d6:	ae 80       	cpx   0,sp
    14d8:	24 30       	bcc   0x150a <L101>

0x000014da <LBB36>:
    14da:	ec 8e       	ldd   14,sp
    14dc:	34          	pshx  
    14dd:	a3 b1       	subd  2,sp+
    14df:	b7 45       	tfr   d,x

0x000014e1 <Ltext23>:
    14e1:	19 e8 16    	leay  22,y
    14e4:	6d 80       	sty   0,sp

0x000014e6 <LBB37>:
    14e6:	fc 00 88    	ldd   0x88 <_tctl1>
    14e9:	aa 46       	oraa  6,y
    14eb:	ea 47       	orab  7,y
    14ed:	7c 00 88    	std   0x88 <_tctl1>
    14f0:	fd 00 88    	ldy   0x88 <_tctl1>
    14f3:	6d 82       	sty   2,sp
    14f5:	b7 64       	tfr   y,d
    14f7:	ed 80       	ldy   0,sp
    14f9:	aa 44       	oraa  4,y
    14fb:	ea 45       	orab  5,y
    14fd:	7c 00 88    	std   0x88 <_tctl1>

0x00001500 <LBB39>:
    1500:	ed f3 00 00 	ldy   [0,sp]
    1504:	6d 80       	sty   0,sp
    1506:	6e f3 00 00 	stx   [0,sp]

0x0000150a <L101>:
    150a:	ed 88       	ldy   8,sp
    150c:	19 e8 1e    	leay  30,y
    150f:	6d 80       	sty   0,sp
    1511:	ed 8e       	ldy   14,sp
    1513:	ec 86       	ldd   6,sp
    1515:	1a ee       	leax  d,y
    1517:	1a e0 10    	leax  16,x

0x0000151a <LBB41>:
    151a:	06 15 71    	jmp   0x1571 <L116>

0x0000151d <L100>:
    151d:	b7 54       	tfr   x,d
    151f:	49          	lsrd  
    1520:	6c 82       	std   2,sp
    1522:	ed 88       	ldy   8,sp
    1524:	ed 4c       	ldy   12,y
    1526:	6d 80       	sty   0,sp
    1528:	ad 82       	cpy   2,sp
    152a:	25 37       	bcs   0x1563 <L107>

0x0000152c <LBB47>:
    152c:	ed 8e       	ldy   14,sp
    152e:	b7 54       	tfr   x,d
    1530:	1a ee       	leax  d,y
    1532:	b7 c5       	xgdx  
    1534:	a3 80       	subd  0,sp
    1536:	b7 c5       	xgdx  

0x00001538 <Ltext27>:
    1538:	ed 88       	ldy   8,sp
    153a:	19 e8 16    	leay  22,y
    153d:	6d 80       	sty   0,sp

0x0000153f <LBB48>:
    153f:	fc 00 88    	ldd   0x88 <_tctl1>
    1542:	aa 46       	oraa  6,y
    1544:	ea 47       	orab  7,y
    1546:	7c 00 88    	std   0x88 <_tctl1>
    1549:	fd 00 88    	ldy   0x88 <_tctl1>
    154c:	6d 82       	sty   2,sp
    154e:	b7 64       	tfr   y,d
    1550:	ed 80       	ldy   0,sp
    1552:	aa 44       	oraa  4,y
    1554:	ea 45       	orab  5,y
    1556:	7c 00 88    	std   0x88 <_tctl1>

0x00001559 <LBB50>:
    1559:	ed f3 00 00 	ldy   [0,sp]
    155d:	6d 80       	sty   0,sp
    155f:	6e f3 00 00 	stx   [0,sp]

0x00001563 <L107>:
    1563:	ed 88       	ldy   8,sp
    1565:	ec 48       	ldd   8,y
    1567:	2d 27       	blt   0x1590 <L110>

0x00001569 <LBB53>:
    1569:	19 4e       	leay  14,y
    156b:	6d 80       	sty   0,sp
    156d:	ed 8e       	ldy   14,sp
    156f:	1a 48       	leax  8,y

0x00001571 <L116>:
    1571:	fc 00 88    	ldd   0x88 <_tctl1>
    1574:	ed 80       	ldy   0,sp
    1576:	aa 46       	oraa  6,y
    1578:	ea 47       	orab  7,y
    157a:	7c 00 88    	std   0x88 <_tctl1>
    157d:	aa 44       	oraa  4,y
    157f:	ea 45       	orab  5,y
    1581:	7c 00 88    	std   0x88 <_tctl1>

0x00001584 <LBB56>:
    1584:	ed f3 00 00 	ldy   [0,sp]
    1588:	6d 80       	sty   0,sp
    158a:	6e f3 00 00 	stx   [0,sp]

0x0000158e <LBE53>:
    158e:	20 39       	bra   0x15c9 <L106>

0x00001590 <L110>:
    1590:	ed 88       	ldy   8,sp
    1592:	19 4e       	leay  14,y
    1594:	6d 80       	sty   0,sp
    1596:	ed 8e       	ldy   14,sp
    1598:	19 48       	leay  8,y
    159a:	6d 84       	sty   4,sp

0x0000159c <LBB59>:
    159c:	fe 00 88    	ldx   0x88 <_tctl1>
    159f:	b7 54       	tfr   x,d
    15a1:	ed 80       	ldy   0,sp
    15a3:	aa 46       	oraa  6,y
    15a5:	ea 47       	orab  7,y
    15a7:	b7 45       	tfr   d,x
    15a9:	7e 00 88    	stx   0x88 <_tctl1>
    15ac:	ec 44       	ldd   4,y
    15ae:	41 51       	comd  
    15b0:	b7 45       	tfr   d,x
    15b2:	fd 00 88    	ldy   0x88 <_tctl1>
    15b5:	b7 64       	tfr   y,d
    15b7:	34          	pshx  
    15b8:	a4 b0       	anda  1,sp+
    15ba:	e4 b0       	andb  1,sp+
    15bc:	b7 45       	tfr   d,x
    15be:	7e 00 88    	stx   0x88 <_tctl1>

0x000015c1 <LBB61>:
    15c1:	ee f3 00 00 	ldx   [0,sp]
    15c5:	ed 84       	ldy   4,sp
    15c7:	6d 00       	sty   0,x

0x000015c9 <L106>:
    15c9:	ec f3 00 08 	ldd   [8,sp]

0x000015cd <LBE30>:
    15cd:	1b 8a       	leas  10,sp
    15cf:	3d          	rts   

0x000015d0 <___9PwmDriverR5IctlrUi>:
    15d0:	1b 93       	leas  -13,sp
    15d2:	6c 8b       	std   11,sp
    15d4:	ec 8f       	ldd   15,sp
    15d6:	6c 80       	std   0,sp
    15d8:	18 00 82 00 	movw  #0xb <error_siz>,2,sp
    15dc:	0b 
    15dd:	ec 8b       	ldd   11,sp
    15df:	16 10 89    	jsr   0x1089 <___3IsrR5IctlrUi>
    15e2:	cc 3e 99    	ldd   #0x3e99 <___vt_9PwmDriver>
    15e5:	ed 8b       	ldy   11,sp
    15e7:	6c 44       	std   4,y
    15e9:	87 c7       	clrd  
    15eb:	6c 46       	std   6,y
    15ed:	ec f0 11    	ldd   17,sp
    15f0:	6c 48       	std   8,y
    15f2:	87 c7       	clrd  
    15f4:	6c 4a       	std   10,y

0x000015f6 <Ltext1>:
    15f6:	1a 4c       	leax  12,y

0x000015f8 <LBB2>:
    15f8:	18 00 00 00 	movw  #0x96 <_tc3>,0,x
    15fc:	96 
    15fd:	18 00 02 00 	movw  #0x8 <bs>,2,x
    1601:	08 
    1602:	18 00 04 00 	movw  #0x40 <_pwmclk>,4,x
    1606:	40 
    1607:	18 00 06 00 	movw  #0x80 <_tios>,6,x
    160b:	80 

0x0000160c <LBB3>:
    160c:	f6 00 86    	ldab  0x86 <_tscr>
    160f:	ca 90       	orab  #0x90
    1611:	7b 00 86    	stab  0x86 <_tscr>
    1614:	ed 00       	ldy   0,x
    1616:	6d 84       	sty   4,sp
    1618:	fc 00 84    	ldd   0x84 <_tcnt>
    161b:	c3 ff ff    	addd  #0xffff <.stab+0x7b>
    161e:	6c f3 00 04 	std   [4,sp]
    1622:	f6 00 80    	ldab  0x80 <_tios>
    1625:	ea 03       	orab  3,x
    1627:	7b 00 80    	stab  0x80 <_tios>
    162a:	f6 00 8e    	ldab  0x8e <_tflg1>
    162d:	ea 03       	orab  3,x
    162f:	7b 00 8e    	stab  0x8e <_tflg1>
    1632:	f6 00 8c    	ldab  0x8c <_tmsk1>
    1635:	ea 03       	orab  3,x
    1637:	7b 00 8c    	stab  0x8c <_tmsk1>

0x0000163a <LBE2>:
    163a:	ed 8b       	ldy   11,sp
    163c:	19 e8 14    	leay  20,y
    163f:	6d 84       	sty   4,sp

0x00001641 <LBB4>:
    1641:	cc 00 9e    	ldd   #0x9e <_tc7>
    1644:	6c f3 00 04 	std   [4,sp]
    1648:	cc 00 80    	ldd   #0x80 <_tios>
    164b:	6c 42       	std   2,y
    164d:	cc 40 00    	ldd   #0x4000 <Lhalves.90+0x10>
    1650:	6c 44       	std   4,y
    1652:	cc 80 00    	ldd   #0x8000 <_stack_top>
    1655:	6c 46       	std   6,y

0x00001657 <LBB5>:
    1657:	f6 00 86    	ldab  0x86 <_tscr>
    165a:	ca 90       	orab  #0x90
    165c:	7b 00 86    	stab  0x86 <_tscr>
    165f:	ed f3 00 04 	ldy   [4,sp]
    1663:	6d 89       	sty   9,sp
    1665:	fc 00 84    	ldd   0x84 <_tcnt>
    1668:	c3 ff ff    	addd  #0xffff <.stab+0x7b>
    166b:	6c f3 00 09 	std   [9,sp]
    166f:	f6 00 80    	ldab  0x80 <_tios>
    1672:	ed 84       	ldy   4,sp
    1674:	ea 43       	orab  3,y
    1676:	7b 00 80    	stab  0x80 <_tios>

0x00001679 <LBB6>:
    1679:	ec f0 11    	ldd   17,sp
    167c:	49          	lsrd  
    167d:	6c 86       	std   6,sp

0x0000167f <Ltext5>:
    167f:	fd 00 84    	ldy   0x84 <_tcnt>
    1682:	b7 64       	tfr   y,d
    1684:	e3 86       	addd  6,sp

0x00001686 <LBB7>:
    1686:	ee 00       	ldx   0,x
    1688:	b7 46       	tfr   d,y
    168a:	6d 00       	sty   0,x

0x0000168c <LBE6>:
    168c:	ec 8b       	ldd   11,sp
    168e:	1b 8d       	leas  13,sp
    1690:	3d          	rts   

0x00001691 <_handler__9PwmDriver>:
    1691:	1b 96       	leas  -10,sp
    1693:	6c 88       	std   8,sp

0x00001695 <LBB9>:
    1695:	b7 46       	tfr   d,y
    1697:	19 4c       	leay  12,y
    1699:	6d 86       	sty   6,sp

0x0000169b <LBB10>:
    169b:	ee f3 00 06 	ldx   [6,sp]
    169f:	ed 00       	ldy   0,x
    16a1:	6d 84       	sty   4,sp

0x000016a3 <LBE10>:
    16a3:	b7 46       	tfr   d,y
    16a5:	ec 48       	ldd   8,y
    16a7:	49          	lsrd  

0x000016a8 <Ltext9>:
    16a8:	ed 84       	ldy   4,sp
    16aa:	19 ee       	leay  d,y
    16ac:	b7 64       	tfr   y,d

0x000016ae <LBB12>:
    16ae:	6c 00       	std   0,x

0x000016b0 <LBE12>:
    16b0:	ed 88       	ldy   8,sp
    16b2:	ec 4a       	ldd   10,y
    16b4:	c3 00 01    	incd  
    16b7:	87          	clra  
    16b8:	c4 01       	andb  #0x1
    16ba:	6c 4a       	std   10,y

0x000016bc <LBB14>:
    16bc:	26 12       	bne   0x16d0 <L73>

0x000016be <LBB15>:
    16be:	ee f3 00 06 	ldx   [6,sp]
    16c2:	ee 00       	ldx   0,x

0x000016c4 <LBE16>:
    16c4:	ec 48       	ldd   8,y
    16c6:	49          	lsrd  

0x000016c7 <Ltext13>:
    16c7:	1a e6       	leax  d,x

0x000016c9 <LBB18>:
    16c9:	ec e8 14    	ldd   20,y
    16cc:	b7 46       	tfr   d,y
    16ce:	6e 40       	stx   0,y

0x000016d0 <L73>:
    16d0:	ed 88       	ldy   8,sp
    16d2:	ee 46       	ldx   6,y
    16d4:	27 1d       	beq   0x16f3 <L77>

0x000016d6 <L78>:
    16d6:	ed 88       	ldy   8,sp
    16d8:	ec e8 14    	ldd   20,y
    16db:	b7 46       	tfr   d,y
    16dd:	ec 40       	ldd   0,y

0x000016df <LBE21>:
    16df:	ed 88       	ldy   8,sp
    16e1:	ed 4a       	ldy   10,y
    16e3:	6d 80       	sty   0,sp
    16e5:	6c 82       	std   2,sp
    16e7:	b7 54       	tfr   x,d
    16e9:	16 14 b5    	jsr   0x14b5 <_handler__10PwmChanneliUi>
    16ec:	b7 45       	tfr   d,x
    16ee:	8e 00 00    	tstx  
    16f1:	26 e3       	bne   0x16d6 <L78>

0x000016f3 <L77>:
    16f3:	1b 8a       	leas  10,sp
    16f5:	3d          	rts   

0x000016f6 <_attach__9PwmDriverP10PwmChannel>:
    16f6:	1b 9c       	leas  -4,sp
    16f8:	b7 45       	tfr   d,x

0x000016fa <LBB23>:
    16fa:	b7 21       	tfr   ccr,b
    16fc:	6c 82       	std   2,sp
    16fe:	14 10       	sei   

0x00001700 <LBE24>:
    1700:	ed 06       	ldy   6,x
    1702:	6d 80       	sty   0,sp
    1704:	ed 86       	ldy   6,sp
    1706:	6d 06       	sty   6,x

0x00001708 <LBB26>:
    1708:	ec 82       	ldd   2,sp
    170a:	b7 12       	tfr   b,ccr

0x0000170c <LBE26>:
    170c:	ec 80       	ldd   0,sp

0x0000170e <LBE23>:
    170e:	1b 84       	leas  4,sp
    1710:	3d          	rts   

0x00001711 <_getPeriod__C9PwmDriver>:
    1711:	b7 46       	tfr   d,y

0x00001713 <LBB29>:
    1713:	ec 48       	ldd   8,y

0x00001715 <LBE29>:
    1715:	3d          	rts   

0x00001716 <__$_9PwmDriver>:
    1716:	1b 9e       	leas  -2,sp

0x00001718 <LBB30>:
    1718:	18 02 84 80 	movw  4,sp,0,sp
    171c:	16 10 b0    	jsr   0x10b0 <__$_3Isr>
    171f:	1b 82       	leas  2,sp
    1721:	3d          	rts   

0x00001722 <___9HC12Ictlr>:
    1722:	1b 9b       	leas  -5,sp
    1724:	6c 83       	std   3,sp
    1726:	18 00 80 00 	movw  #0x11 <dc1>,0,sp
    172a:	11 
    172b:	16 10 db    	jsr   0x10db <___5IctlrUi>
    172e:	cc 3e a1    	ldd   #0x3ea1 <___vt_9HC12Ictlr>
    1731:	ed 83       	ldy   3,sp
    1733:	6c 44       	std   4,y

0x00001735 <LBB2>:
    1735:	7d 49 8f    	sty   0x498f <_dtor_end>
    1738:	f6 00 ff    	ldab  0xff <_ddrdlc>
    173b:	ca 08       	orab  #0x8
    173d:	7b 00 ff    	stab  0xff <_ddrdlc>

0x00001740 <LBE2>:
    1740:	b7 64       	tfr   y,d
    1742:	1b 85       	leas  5,sp
    1744:	3d          	rts   

0x00001745 <__$_9HC12Ictlr>:
    1745:	1b 9e       	leas  -2,sp
    1747:	b7 45       	tfr   d,x
    1749:	18 00 04 3e 	movw  #0x3ea1 <___vt_9HC12Ictlr>,4,x
    174d:	a1 

0x0000174e <LBB3>:
    174e:	18 03 00 00 	movw  #0x0 <*ABS*>,0x498f <_dtor_end>
    1752:	49 8f 

0x00001754 <LBE3>:
    1754:	18 02 84 80 	movw  4,sp,0,sp
    1758:	16 11 20    	jsr   0x1120 <__$_5Ictlr>
    175b:	1b 82       	leas  2,sp
    175d:	3d          	rts   

0x0000175e <_handlerTable__9HC12Ictlr>:
    175e:	f6 00 fe    	ldab  0xfe <_portdlc>
    1761:	ca 08       	orab  #0x8
    1763:	7b 00 fe    	stab  0xfe <_portdlc>

0x00001766 <Ltext1>:
    1766:	fd 49 8f    	ldy   0x498f <_dtor_end>

0x00001769 <LBB5>:
    1769:	ed eb 00 02 	ldy   [2,y]
    176d:	27 08       	beq   0x1777 <L18>
    176f:	ee 44       	ldx   4,y
    1771:	b7 64       	tfr   y,d
    1773:	15 e3 00 06 	jsr   [6,x]

0x00001777 <L18>:
    1777:	f6 00 fe    	ldab  0xfe <_portdlc>
    177a:	c4 f7       	andb  #0xf7
    177c:	7b 00 fe    	stab  0xfe <_portdlc>
    177f:	0b          	rti   

0x00001780 <vsr1>:
    1780:	f6 00 fe    	ldab  0xfe <_portdlc>
    1783:	ca 08       	orab  #0x8
    1785:	7b 00 fe    	stab  0xfe <_portdlc>

0x00001788 <Ltext3>:
    1788:	fd 49 8f    	ldy   0x498f <_dtor_end>

0x0000178b <LBB7>:
    178b:	ed 42       	ldy   2,y
    178d:	ed 42       	ldy   2,y
    178f:	27 08       	beq   0x1799 <L21>
    1791:	ee 44       	ldx   4,y
    1793:	b7 64       	tfr   y,d
    1795:	15 e3 00 06 	jsr   [6,x]

0x00001799 <L21>:
    1799:	f6 00 fe    	ldab  0xfe <_portdlc>
    179c:	c4 f7       	andb  #0xf7
    179e:	7b 00 fe    	stab  0xfe <_portdlc>
    17a1:	0b          	rti   

0x000017a2 <vsr2>:
    17a2:	f6 00 fe    	ldab  0xfe <_portdlc>
    17a5:	ca 08       	orab  #0x8
    17a7:	7b 00 fe    	stab  0xfe <_portdlc>

0x000017aa <Ltext5>:
    17aa:	fd 49 8f    	ldy   0x498f <_dtor_end>

0x000017ad <LBB10>:
    17ad:	ed 42       	ldy   2,y
    17af:	ed 44       	ldy   4,y
    17b1:	27 08       	beq   0x17bb <L24>
    17b3:	ee 44       	ldx   4,y
    17b5:	b7 64       	tfr   y,d
    17b7:	15 e3 00 06 	jsr   [6,x]

0x000017bb <L24>:
    17bb:	f6 00 fe    	ldab  0xfe <_portdlc>
    17be:	c4 f7       	andb  #0xf7
    17c0:	7b 00 fe    	stab  0xfe <_portdlc>
    17c3:	0b          	rti   

0x000017c4 <vsr3>:
    17c4:	f6 00 fe    	ldab  0xfe <_portdlc>
    17c7:	ca 08       	orab  #0x8
    17c9:	7b 00 fe    	stab  0xfe <_portdlc>

0x000017cc <Ltext7>:
    17cc:	fd 49 8f    	ldy   0x498f <_dtor_end>

0x000017cf <LBB11>:
    17cf:	ed 42       	ldy   2,y
    17d1:	ed 46       	ldy   6,y
    17d3:	27 08       	beq   0x17dd <L27>
    17d5:	ee 44       	ldx   4,y
    17d7:	b7 64       	tfr   y,d
    17d9:	15 e3 00 06 	jsr   [6,x]

0x000017dd <L27>:
    17dd:	f6 00 fe    	ldab  0xfe <_portdlc>
    17e0:	c4 f7       	andb  #0xf7
    17e2:	7b 00 fe    	stab  0xfe <_portdlc>
    17e5:	0b          	rti   

0x000017e6 <vsr4>:
    17e6:	f6 00 fe    	ldab  0xfe <_portdlc>
    17e9:	ca 08       	orab  #0x8
    17eb:	7b 00 fe    	stab  0xfe <_portdlc>

0x000017ee <Ltext9>:
    17ee:	fd 49 8f    	ldy   0x498f <_dtor_end>

0x000017f1 <LBB13>:
    17f1:	ed 42       	ldy   2,y
    17f3:	ed 48       	ldy   8,y
    17f5:	27 08       	beq   0x17ff <L30>
    17f7:	ee 44       	ldx   4,y
    17f9:	b7 64       	tfr   y,d
    17fb:	15 e3 00 06 	jsr   [6,x]

0x000017ff <L30>:
    17ff:	f6 00 fe    	ldab  0xfe <_portdlc>
    1802:	c4 f7       	andb  #0xf7
    1804:	7b 00 fe    	stab  0xfe <_portdlc>
    1807:	0b          	rti   

0x00001808 <vsr5>:
    1808:	f6 00 fe    	ldab  0xfe <_portdlc>
    180b:	ca 08       	orab  #0x8
    180d:	7b 00 fe    	stab  0xfe <_portdlc>

0x00001810 <Ltext11>:
    1810:	fd 49 8f    	ldy   0x498f <_dtor_end>

0x00001813 <LBB15>:
    1813:	ed 42       	ldy   2,y
    1815:	ed 4a       	ldy   10,y
    1817:	27 08       	beq   0x1821 <L33>
    1819:	ee 44       	ldx   4,y
    181b:	b7 64       	tfr   y,d
    181d:	15 e3 00 06 	jsr   [6,x]

0x00001821 <L33>:
    1821:	f6 00 fe    	ldab  0xfe <_portdlc>
    1824:	c4 f7       	andb  #0xf7
    1826:	7b 00 fe    	stab  0xfe <_portdlc>
    1829:	0b          	rti   

0x0000182a <vsr6>:
    182a:	f6 00 fe    	ldab  0xfe <_portdlc>
    182d:	ca 08       	orab  #0x8
    182f:	7b 00 fe    	stab  0xfe <_portdlc>

0x00001832 <Ltext13>:
    1832:	fd 49 8f    	ldy   0x498f <_dtor_end>

0x00001835 <LBB17>:
    1835:	ed 42       	ldy   2,y
    1837:	ed 4c       	ldy   12,y
    1839:	27 08       	beq   0x1843 <L36>
    183b:	ee 44       	ldx   4,y
    183d:	b7 64       	tfr   y,d
    183f:	15 e3 00 06 	jsr   [6,x]

0x00001843 <L36>:
    1843:	f6 00 fe    	ldab  0xfe <_portdlc>
    1846:	c4 f7       	andb  #0xf7
    1848:	7b 00 fe    	stab  0xfe <_portdlc>
    184b:	0b          	rti   

0x0000184c <vsr7>:
    184c:	f6 00 fe    	ldab  0xfe <_portdlc>
    184f:	ca 08       	orab  #0x8
    1851:	7b 00 fe    	stab  0xfe <_portdlc>

0x00001854 <Ltext15>:
    1854:	fd 49 8f    	ldy   0x498f <_dtor_end>

0x00001857 <LBB19>:
    1857:	ed 42       	ldy   2,y
    1859:	ed 4e       	ldy   14,y
    185b:	27 08       	beq   0x1865 <L39>
    185d:	ee 44       	ldx   4,y
    185f:	b7 64       	tfr   y,d
    1861:	15 e3 00 06 	jsr   [6,x]

0x00001865 <L39>:
    1865:	f6 00 fe    	ldab  0xfe <_portdlc>
    1868:	c4 f7       	andb  #0xf7
    186a:	7b 00 fe    	stab  0xfe <_portdlc>
    186d:	0b          	rti   

0x0000186e <vsr8>:
    186e:	f6 00 fe    	ldab  0xfe <_portdlc>
    1871:	ca 08       	orab  #0x8
    1873:	7b 00 fe    	stab  0xfe <_portdlc>

0x00001876 <Ltext17>:
    1876:	fd 49 8f    	ldy   0x498f <_dtor_end>

0x00001879 <LBB21>:
    1879:	ed 42       	ldy   2,y
    187b:	ed e8 10    	ldy   16,y
    187e:	27 08       	beq   0x1888 <L42>
    1880:	ee 44       	ldx   4,y
    1882:	b7 64       	tfr   y,d
    1884:	15 e3 00 06 	jsr   [6,x]

0x00001888 <L42>:
    1888:	f6 00 fe    	ldab  0xfe <_portdlc>
    188b:	c4 f7       	andb  #0xf7
    188d:	7b 00 fe    	stab  0xfe <_portdlc>
    1890:	0b          	rti   

0x00001891 <vsr9>:
    1891:	f6 00 fe    	ldab  0xfe <_portdlc>
    1894:	ca 08       	orab  #0x8
    1896:	7b 00 fe    	stab  0xfe <_portdlc>

0x00001899 <Ltext19>:
    1899:	fd 49 8f    	ldy   0x498f <_dtor_end>

0x0000189c <LBB23>:
    189c:	ed 42       	ldy   2,y
    189e:	ed e8 12    	ldy   18,y
    18a1:	27 08       	beq   0x18ab <L45>
    18a3:	ee 44       	ldx   4,y
    18a5:	b7 64       	tfr   y,d
    18a7:	15 e3 00 06 	jsr   [6,x]

0x000018ab <L45>:
    18ab:	f6 00 fe    	ldab  0xfe <_portdlc>
    18ae:	c4 f7       	andb  #0xf7
    18b0:	7b 00 fe    	stab  0xfe <_portdlc>
    18b3:	0b          	rti   

0x000018b4 <vsr10>:
    18b4:	f6 00 fe    	ldab  0xfe <_portdlc>
    18b7:	ca 08       	orab  #0x8
    18b9:	7b 00 fe    	stab  0xfe <_portdlc>

0x000018bc <Ltext21>:
    18bc:	fd 49 8f    	ldy   0x498f <_dtor_end>

0x000018bf <LBB25>:
    18bf:	ed 42       	ldy   2,y
    18c1:	ed e8 14    	ldy   20,y
    18c4:	27 08       	beq   0x18ce <L48>
    18c6:	ee 44       	ldx   4,y
    18c8:	b7 64       	tfr   y,d
    18ca:	15 e3 00 06 	jsr   [6,x]

0x000018ce <L48>:
    18ce:	f6 00 fe    	ldab  0xfe <_portdlc>
    18d1:	c4 f7       	andb  #0xf7
    18d3:	7b 00 fe    	stab  0xfe <_portdlc>
    18d6:	0b          	rti   

0x000018d7 <vsr11>:
    18d7:	f6 00 fe    	ldab  0xfe <_portdlc>
    18da:	ca 08       	orab  #0x8
    18dc:	7b 00 fe    	stab  0xfe <_portdlc>

0x000018df <Ltext23>:
    18df:	fd 49 8f    	ldy   0x498f <_dtor_end>

0x000018e2 <LBB27>:
    18e2:	ed 42       	ldy   2,y
    18e4:	ed e8 16    	ldy   22,y
    18e7:	27 08       	beq   0x18f1 <L51>
    18e9:	ee 44       	ldx   4,y
    18eb:	b7 64       	tfr   y,d
    18ed:	15 e3 00 06 	jsr   [6,x]

0x000018f1 <L51>:
    18f1:	f6 00 fe    	ldab  0xfe <_portdlc>
    18f4:	c4 f7       	andb  #0xf7
    18f6:	7b 00 fe    	stab  0xfe <_portdlc>
    18f9:	0b          	rti   

0x000018fa <vsr12>:
    18fa:	f6 00 fe    	ldab  0xfe <_portdlc>
    18fd:	ca 08       	orab  #0x8
    18ff:	7b 00 fe    	stab  0xfe <_portdlc>

0x00001902 <Ltext25>:
    1902:	fd 49 8f    	ldy   0x498f <_dtor_end>

0x00001905 <LBB29>:
    1905:	ed 42       	ldy   2,y
    1907:	ed e8 18    	ldy   24,y
    190a:	27 08       	beq   0x1914 <L54>
    190c:	ee 44       	ldx   4,y
    190e:	b7 64       	tfr   y,d
    1910:	15 e3 00 06 	jsr   [6,x]

0x00001914 <L54>:
    1914:	f6 00 fe    	ldab  0xfe <_portdlc>
    1917:	c4 f7       	andb  #0xf7
    1919:	7b 00 fe    	stab  0xfe <_portdlc>
    191c:	0b          	rti   

0x0000191d <vsr13>:
    191d:	f6 00 fe    	ldab  0xfe <_portdlc>
    1920:	ca 08       	orab  #0x8
    1922:	7b 00 fe    	stab  0xfe <_portdlc>

0x00001925 <Ltext27>:
    1925:	fd 49 8f    	ldy   0x498f <_dtor_end>

0x00001928 <LBB31>:
    1928:	ed 42       	ldy   2,y
    192a:	ed e8 1a    	ldy   26,y
    192d:	27 08       	beq   0x1937 <L57>
    192f:	ee 44       	ldx   4,y
    1931:	b7 64       	tfr   y,d
    1933:	15 e3 00 06 	jsr   [6,x]

0x00001937 <L57>:
    1937:	f6 00 fe    	ldab  0xfe <_portdlc>
    193a:	c4 f7       	andb  #0xf7
    193c:	7b 00 fe    	stab  0xfe <_portdlc>
    193f:	0b          	rti   

0x00001940 <vsr14>:
    1940:	f6 00 fe    	ldab  0xfe <_portdlc>
    1943:	ca 08       	orab  #0x8
    1945:	7b 00 fe    	stab  0xfe <_portdlc>

0x00001948 <Ltext29>:
    1948:	fd 49 8f    	ldy   0x498f <_dtor_end>

0x0000194b <LBB33>:
    194b:	ed 42       	ldy   2,y
    194d:	ed e8 1c    	ldy   28,y
    1950:	27 08       	beq   0x195a <L60>
    1952:	ee 44       	ldx   4,y
    1954:	b7 64       	tfr   y,d
    1956:	15 e3 00 06 	jsr   [6,x]

0x0000195a <L60>:
    195a:	f6 00 fe    	ldab  0xfe <_portdlc>
    195d:	c4 f7       	andb  #0xf7
    195f:	7b 00 fe    	stab  0xfe <_portdlc>
    1962:	0b          	rti   

0x00001963 <vsr15>:
    1963:	f6 00 fe    	ldab  0xfe <_portdlc>
    1966:	ca 08       	orab  #0x8
    1968:	7b 00 fe    	stab  0xfe <_portdlc>

0x0000196b <Ltext31>:
    196b:	fd 49 8f    	ldy   0x498f <_dtor_end>

0x0000196e <LBB35>:
    196e:	ed 42       	ldy   2,y
    1970:	ed e8 1e    	ldy   30,y
    1973:	27 08       	beq   0x197d <L63>
    1975:	ee 44       	ldx   4,y
    1977:	b7 64       	tfr   y,d
    1979:	15 e3 00 06 	jsr   [6,x]

0x0000197d <L63>:
    197d:	f6 00 fe    	ldab  0xfe <_portdlc>
    1980:	c4 f7       	andb  #0xf7
    1982:	7b 00 fe    	stab  0xfe <_portdlc>
    1985:	0b          	rti   

0x00001986 <vsr16>:
    1986:	f6 00 fe    	ldab  0xfe <_portdlc>
    1989:	ca 08       	orab  #0x8
    198b:	7b 00 fe    	stab  0xfe <_portdlc>

0x0000198e <Ltext33>:
    198e:	fd 49 8f    	ldy   0x498f <_dtor_end>

0x00001991 <LBB37>:
    1991:	ed 42       	ldy   2,y
    1993:	ed e8 20    	ldy   32,y
    1996:	27 08       	beq   0x19a0 <L66>
    1998:	ee 44       	ldx   4,y
    199a:	b7 64       	tfr   y,d
    199c:	15 e3 00 06 	jsr   [6,x]

0x000019a0 <L66>:
    19a0:	f6 00 fe    	ldab  0xfe <_portdlc>
    19a3:	c4 f7       	andb  #0xf7
    19a5:	7b 00 fe    	stab  0xfe <_portdlc>
    19a8:	0b          	rti   

0x000019a9 <LBE4>:
    19a9:	3d          	rts   

0x000019aa <___5Mutex>:
    19aa:	1b 9c       	leas  -4,sp
    19ac:	6c 82       	std   2,sp
    19ae:	18 00 80 00 	movw  #0x0 <*ABS*>,0,sp
    19b2:	00 
    19b3:	16 28 9f    	jsr   0x289f <___8TaskListP4Task>
    19b6:	cc 3e a7    	ldd   #0x3ea7 <___vt_5Mutex>
    19b9:	ed 82       	ldy   2,sp
    19bb:	6c 42       	std   2,y
    19bd:	87 c7       	clrd  
    19bf:	6c 44       	std   4,y

0x000019c1 <LBB2>:
    19c1:	b7 64       	tfr   y,d
    19c3:	1b 84       	leas  4,sp
    19c5:	3d          	rts   

0x000019c6 <_acquire__5Mutex>:
    19c6:	1b 9c       	leas  -4,sp
    19c8:	6c 80       	std   0,sp

0x000019ca <LBB3>:
    19ca:	b7 21       	tfr   ccr,b
    19cc:	6c 82       	std   2,sp
    19ce:	14 10       	sei   

0x000019d0 <LBE4>:
    19d0:	20 05       	bra   0x19d7 <L37>

0x000019d2 <L30>:
    19d2:	ec 80       	ldd   0,sp
    19d4:	16 29 13    	jsr   0x2913 <_block__8TaskList>

0x000019d7 <L37>:
    19d7:	ed 80       	ldy   0,sp
    19d9:	ec 44       	ldd   4,y
    19db:	26 f5       	bne   0x19d2 <L30>
    19dd:	ec 80       	ldd   0,sp
    19df:	16 29 6e    	jsr   0x296e <_getCurrent__8TaskList>
    19e2:	ed 80       	ldy   0,sp
    19e4:	6c 44       	std   4,y

0x000019e6 <LBB6>:
    19e6:	ec 82       	ldd   2,sp
    19e8:	b7 12       	tfr   b,ccr

0x000019ea <LBE3>:
    19ea:	1b 84       	leas  4,sp
    19ec:	3d          	rts   

0x000019ed <_release__5Mutex>:
    19ed:	1b 9e       	leas  -2,sp
    19ef:	b7 46       	tfr   d,y

0x000019f1 <LBB10>:
    19f1:	b7 21       	tfr   ccr,b
    19f3:	6c 80       	std   0,sp
    19f5:	14 10       	sei   

0x000019f7 <LBE10>:
    19f7:	18 00 44 00 	movw  #0x0 <*ABS*>,4,y
    19fb:	00 
    19fc:	b7 64       	tfr   y,d
    19fe:	16 29 40    	jsr   0x2940 <_unblock__8TaskList>

0x00001a01 <LBB11>:
    1a01:	ec 80       	ldd   0,sp
    1a03:	b7 12       	tfr   b,ccr

0x00001a05 <LBE11>:
    1a05:	1b 82       	leas  2,sp
    1a07:	3d          	rts   

0x00001a08 <Lscope2>:
    1a08:	1b 9e       	leas  -2,sp
    1a0a:	18 02 84 80 	movw  4,sp,0,sp
    1a0e:	16 28 d0    	jsr   0x28d0 <__$_8TaskList>
    1a11:	1b 82       	leas  2,sp
    1a13:	3d          	rts   

0x00001a14 <___3Spi>:
    1a14:	1b 9e       	leas  -2,sp
    1a16:	6c 80       	std   0,sp
    1a18:	cc 3e af    	ldd   #0x3eaf <___vt_3Spi>
    1a1b:	ed 80       	ldy   0,sp
    1a1d:	6c 46       	std   6,y
    1a1f:	b7 64       	tfr   y,d
    1a21:	16 19 aa    	jsr   0x19aa <___5Mutex>

0x00001a24 <LBB2>:
    1a24:	ec 80       	ldd   0,sp
    1a26:	1b 82       	leas  2,sp
    1a28:	3d          	rts   

0x00001a29 <__$_3Spi>:
    1a29:	1b 9c       	leas  -4,sp
    1a2b:	6c 82       	std   2,sp
    1a2d:	cc 3e af    	ldd   #0x3eaf <___vt_3Spi>
    1a30:	ed 82       	ldy   2,sp
    1a32:	6c 46       	std   6,y

0x00001a34 <LBB3>:
    1a34:	18 00 80 00 	movw  #0x2 <err_under>,0,sp
    1a38:	02 
    1a39:	b7 64       	tfr   y,d
    1a3b:	16 28 d0    	jsr   0x28d0 <__$_8TaskList>

0x00001a3e <LBE4>:
    1a3e:	ec 86       	ldd   6,sp
    1a40:	87          	clra  
    1a41:	c4 01       	andb  #0x1
    1a43:	b7 45       	tfr   d,x
    1a45:	8e 00 00    	tstx  
    1a48:	27 05       	beq   0x1a4f <L50>
    1a4a:	ec 82       	ldd   2,sp
    1a4c:	16 25 c2    	jsr   0x25c2 <___builtin_delete>

0x00001a4f <L50>:
    1a4f:	1b 84       	leas  4,sp
    1a51:	3d          	rts   

0x00001a52 <_close__3Spi>:
    1a52:	16 19 ed    	jsr   0x19ed <_release__5Mutex>

0x00001a55 <LBE5>:
    1a55:	3d          	rts   

0x00001a56 <_open__3Spi>:
    1a56:	16 19 c6    	jsr   0x19c6 <_acquire__5Mutex>

0x00001a59 <LBE6>:
    1a59:	3d          	rts   

0x00001a5a <_put__3SpiPvi>:
    1a5a:	3d          	rts   

0x00001a5b <_get__3SpiPvi>:
    1a5b:	3d          	rts   

0x00001a5c <___3CmdPCc>:
    1a5c:	b7 46       	tfr   d,y
    1a5e:	18 00 42 3e 	movw  #0x3ed5 <___vt_3Cmd>,2,y
    1a62:	d5 
    1a63:	18 02 82 40 	movw  2,sp,0,y

0x00001a67 <LBB2>:
    1a67:	3d          	rts   

0x00001a68 <_parse__3CmdR7istreamR7ostream>:
    1a68:	87 c7       	clrd  

0x00001a6a <LBE3>:
    1a6a:	3d          	rts   

0x00001a6b <_match__3CmdR7istream>:
    1a6b:	1b f1 dd    	leas  -35,sp
    1a6e:	6c 89       	std   9,sp

0x00001a70 <LBB4>:
    1a70:	c7          	clrb  
    1a71:	6b 88       	stab  8,sp
    1a73:	19 8b       	leay  11,sp
    1a75:	6d 86       	sty   6,sp
    1a77:	18 00 80 00 	movw  #0x14 <dc4>,0,sp
    1a7b:	14 
    1a7c:	b7 64       	tfr   y,d
    1a7e:	16 2a da    	jsr   0x2ada <_setw__Fi>

0x00001a81 <LBB5>:
    1a81:	ee f3 00 25 	ldx   [37,sp]
    1a85:	ed 86       	ldy   6,sp
    1a87:	ed 42       	ldy   2,y
    1a89:	6d 80       	sty   0,sp
    1a8b:	b7 54       	tfr   x,d
    1a8d:	ed 86       	ldy   6,sp
    1a8f:	15 eb 00 00 	jsr   [0,y]

0x00001a93 <LBE5>:
    1a93:	19 8f       	leay  15,sp
    1a95:	6d 84       	sty   4,sp
    1a97:	6d 80       	sty   0,sp
    1a99:	ec f0 25    	ldd   37,sp
    1a9c:	16 2a e6    	jsr   0x2ae6 <___rs__7istreamPc>
    1a9f:	b7 45       	tfr   d,x
    1aa1:	cd 00 00    	clry  
    1aa4:	6d 82       	sty   2,sp
    1aa6:	8e 00 00    	tstx  
    1aa9:	27 04       	beq   0x1aaf <L175>
    1aab:	ed 00       	ldy   0,x
    1aad:	6d 82       	sty   2,sp

0x00001aaf <L175>:
    1aaf:	ed 82       	ldy   2,sp
    1ab1:	ec 44       	ldd   4,y
    1ab3:	87          	clra  
    1ab4:	c4 06       	andb  #0x6

0x00001ab6 <LBE10>:
    1ab6:	ce 00 00    	clrx  
    1ab9:	8c 00 00    	tstd  
    1abc:	26 02       	bne   0x1ac0 <L179>
    1abe:	b7 65       	tfr   y,x

0x00001ac0 <L179>:
    1ac0:	8e 00 00    	tstx  
    1ac3:	27 16       	beq   0x1adb <L173>
    1ac5:	ec f3 00 09 	ldd   [9,sp]
    1ac9:	6c 80       	std   0,sp
    1acb:	ec 84       	ldd   4,sp
    1acd:	16 2b 9a    	jsr   0x2b9a <_strcmp__FPCcT0>
    1ad0:	b7 45       	tfr   d,x
    1ad2:	8e 00 00    	tstx  
    1ad5:	26 04       	bne   0x1adb <L173>
    1ad7:	c6 01       	ldab  #0x1
    1ad9:	6b 88       	stab  8,sp

0x00001adb <L173>:
    1adb:	e6 88       	ldab  8,sp

0x00001add <LBE4>:
    1add:	1b f0 23    	leas  35,sp
    1ae0:	3d          	rts   

0x00001ae1 <___7CmdProcP9streambufPCc>:
    1ae1:	b7 46       	tfr   d,y
    1ae3:	18 02 82 40 	movw  2,sp,0,y
    1ae7:	18 02 84 42 	movw  4,sp,2,y

0x00001aeb <LBB11>:
    1aeb:	3d          	rts   

0x00001aec <_present__7CmdProcPP3Cmd>:
    1aec:	1b f1 44    	leas  -188,sp
    1aef:	6c f0 1a    	std   26,sp

0x00001af2 <LBB12>:
    1af2:	19 f0 96    	leay  150,sp
    1af5:	6d f0 18    	sty   24,sp

0x00001af8 <L186>:
    1af8:	18 00 80 00 	movw  #0x1 <err_over>,0,sp
    1afc:	01 
    1afd:	ec f3 00 1a 	ldd   [26,sp]
    1b01:	6c 82       	std   2,sp
    1b03:	b7 74       	tfr   sp,d
    1b05:	c3 00 a8    	addd  #0xa8 <_rsvdA4+0x4>
    1b08:	16 2b bf    	jsr   0x2bbf <___7istreamiP9streambuf>
    1b0b:	18 00 80 00 	movw  #0x1 <err_over>,0,sp
    1b0f:	01 
    1b10:	ed f3 00 1a 	ldy   [26,sp]
    1b14:	6d 82       	sty   2,sp
    1b16:	ec f0 18    	ldd   24,sp
    1b19:	16 2b e8    	jsr   0x2be8 <___7ostreamiP9streambuf>

0x00001b1c <LBB14>:
    1b1c:	ec f0 18    	ldd   24,sp
    1b1f:	16 2c 11    	jsr   0x2c11 <_endl__FR7ostream>
    1b22:	b7 45       	tfr   d,x

0x00001b24 <LBE14>:
    1b24:	ed f0 1a    	ldy   26,sp
    1b27:	ed 42       	ldy   2,y
    1b29:	6d 80       	sty   0,sp
    1b2b:	16 2c 27    	jsr   0x2c27 <___ls__7ostreamPCc>
    1b2e:	b7 45       	tfr   d,x

0x00001b30 <LBB16>:
    1b30:	16 2c 4b    	jsr   0x2c4b <_flush__FR7ostream>

0x00001b33 <LBE16>:
    1b33:	19 f0 46    	leay  70,sp
    1b36:	6d f0 16    	sty   22,sp
    1b39:	19 f0 95    	leay  149,sp
    1b3c:	6d f0 14    	sty   20,sp
    1b3f:	87 c7       	clrd  
    1b41:	6c f0 12    	std   18,sp

0x00001b44 <L191>:
    1b44:	ed f0 12    	ldy   18,sp
    1b47:	18 26 00 83 	lbne  0x1bce <L192>
    1b4b:	b7 74       	tfr   sp,d
    1b4d:	c3 00 a8    	addd  #0xa8 <_rsvdA4+0x4>
    1b50:	16 2c 57    	jsr   0x2c57 <_get__7istream>
    1b53:	6c f0 10    	std   16,sp

0x00001b56 <LBB19>:
    1b56:	8c 00 0a    	cpd   #0xa <lf>
    1b59:	27 11       	beq   0x1b6c <L196>
    1b5b:	2e 07       	bgt   0x1b64 <L203>
    1b5d:	8c 00 08    	cpd   #0x8 <bs>
    1b60:	27 11       	beq   0x1b73 <L197>
    1b62:	20 33       	bra   0x1b97 <L200>

0x00001b64 <L203>:
    1b64:	ec f0 10    	ldd   16,sp
    1b67:	8c 00 0d    	cpd   #0xd <cr>
    1b6a:	26 2b       	bne   0x1b97 <L200>

0x00001b6c <L196>:
    1b6c:	c7          	clrb  
    1b6d:	6b f3 00 16 	stab  [22,sp]

0x00001b71 <LBB21>:
    1b71:	20 5b       	bra   0x1bce <L192>

0x00001b73 <L197>:
    1b73:	1a f0 46    	leax  70,sp
    1b76:	ed f0 16    	ldy   22,sp
    1b79:	34          	pshx  
    1b7a:	ad b1       	cpy   2,sp+
    1b7c:	23 c6       	bls   0x1b44 <L191>

0x00001b7e <LBB23>:
    1b7e:	18 00 80 3e 	movw  #0x3eb9 <LC0>,0,sp
    1b82:	b9 
    1b83:	b7 74       	tfr   sp,d
    1b85:	c3 00 96    	addd  #0x96 <_tc3>
    1b88:	16 2c 27    	jsr   0x2c27 <___ls__7ostreamPCc>

0x00001b8b <LBB24>:
    1b8b:	16 2c 4b    	jsr   0x2c4b <_flush__FR7ostream>

0x00001b8e <LBE24>:
    1b8e:	ed f0 16    	ldy   22,sp
    1b91:	03          	dey   
    1b92:	6d f0 16    	sty   22,sp

0x00001b95 <LBB26>:
    1b95:	20 ad       	bra   0x1b44 <L191>

0x00001b97 <L200>:
    1b97:	ec f0 10    	ldd   16,sp
    1b9a:	16 2c a9    	jsr   0x2ca9 <_isprint__Fi>
    1b9d:	8c 00 00    	tstd  
    1ba0:	27 a2       	beq   0x1b44 <L191>
    1ba2:	ed f0 16    	ldy   22,sp
    1ba5:	ad f0 14    	cpy   20,sp
    1ba8:	18 24 ff 98 	lbcc  0x1b44 <L191>
    1bac:	e6 f0 11    	ldab  17,sp
    1baf:	87          	clra  
    1bb0:	b7 45       	tfr   d,x
    1bb2:	6e 80       	stx   0,sp
    1bb4:	ec f0 18    	ldd   24,sp
    1bb7:	16 2c ba    	jsr   0x2cba <_put__7ostreamc>
    1bba:	ec f0 18    	ldd   24,sp
    1bbd:	16 2d 09    	jsr   0x2d09 <_flush__7ostream>
    1bc0:	ed f0 16    	ldy   22,sp
    1bc3:	e6 f0 11    	ldab  17,sp
    1bc6:	6b 70       	stab  1,y+
    1bc8:	6d f0 16    	sty   22,sp

0x00001bcb <LBB27>:
    1bcb:	06 1b 44    	jmp   0x1b44 <L191>

0x00001bce <L192>:
    1bce:	e7 f0 46    	tst   70,sp
    1bd1:	18 27 00 92 	lbeq  0x1c67 <L204>

0x00001bd5 <LBB29>:
    1bd5:	cc 3e bd    	ldd   #0x3ebd <LC1>
    1bd8:	6c 8e       	std   14,sp

0x00001bda <LBB30>:
    1bda:	ed f0 be    	ldy   190,sp
    1bdd:	6d 8c       	sty   12,sp
    1bdf:	19 f0 1c    	leay  28,sp
    1be2:	6d 8a       	sty   10,sp

0x00001be4 <L205>:
    1be4:	ec f3 00 0c 	ldd   [12,sp]
    1be8:	18 27 00 5a 	lbeq  0x1c46 <L206>
    1bec:	18 00 80 00 	movw  #0x1 <err_over>,0,sp
    1bf0:	01 
    1bf1:	1a f0 46    	leax  70,sp
    1bf4:	6e 82       	stx   2,sp
    1bf6:	ec 8a       	ldd   10,sp
    1bf8:	16 2d 41    	jsr   0x2d41 <___10istrstreamiPc>

0x00001bfb <LBB32>:
    1bfb:	ec f3 00 0c 	ldd   [12,sp]
    1bff:	19 f0 32    	leay  50,sp
    1c02:	6d 88       	sty   8,sp
    1c04:	6d 80       	sty   0,sp
    1c06:	16 1a 6b    	jsr   0x1a6b <_match__3CmdR7istream>
    1c09:	d7          	tstb  
    1c0a:	26 12       	bne   0x1c1e <L209>

0x00001c0c <LBB33>:
    1c0c:	18 00 80 00 	movw  #0x2 <err_under>,0,sp
    1c10:	02 
    1c11:	ec 8a       	ldd   10,sp
    1c13:	16 2d 97    	jsr   0x2d97 <__$_10istrstream>
    1c16:	ed 8c       	ldy   12,sp
    1c18:	19 42       	leay  2,y
    1c1a:	6d 8c       	sty   12,sp
    1c1c:	20 c6       	bra   0x1be4 <L205>

0x00001c1e <L209>:
    1c1e:	ed f3 00 0c 	ldy   [12,sp]
    1c22:	6d 84       	sty   4,sp
    1c24:	ee 42       	ldx   2,y
    1c26:	19 f0 1c    	leay  28,sp
    1c29:	6d 86       	sty   6,sp
    1c2b:	ed 88       	ldy   8,sp
    1c2d:	6d 80       	sty   0,sp
    1c2f:	ec f0 18    	ldd   24,sp
    1c32:	6c 82       	std   2,sp
    1c34:	ec 84       	ldd   4,sp
    1c36:	15 e3 00 04 	jsr   [4,x]
    1c3a:	6c 8e       	std   14,sp
    1c3c:	18 00 80 00 	movw  #0x2 <err_under>,0,sp
    1c40:	02 
    1c41:	ec 86       	ldd   6,sp
    1c43:	16 2d 97    	jsr   0x2d97 <__$_10istrstream>

0x00001c46 <L206>:
    1c46:	ed 8e       	ldy   14,sp
    1c48:	27 1d       	beq   0x1c67 <L204>

0x00001c4a <LBB36>:
    1c4a:	b7 74       	tfr   sp,d
    1c4c:	c3 00 96    	addd  #0x96 <_tc3>
    1c4f:	16 2c 11    	jsr   0x2c11 <_endl__FR7ostream>
    1c52:	b7 45       	tfr   d,x

0x00001c54 <LBE37>:
    1c54:	18 00 80 3e 	movw  #0x3ecd <LC2>,0,sp
    1c58:	cd 
    1c59:	16 2c 27    	jsr   0x2c27 <___ls__7ostreamPCc>
    1c5c:	b7 45       	tfr   d,x
    1c5e:	ec 8e       	ldd   14,sp
    1c60:	6c 80       	std   0,sp
    1c62:	b7 54       	tfr   x,d
    1c64:	16 2c 27    	jsr   0x2c27 <___ls__7ostreamPCc>

0x00001c67 <L204>:
    1c67:	18 00 80 00 	movw  #0x2 <err_under>,0,sp
    1c6b:	02 
    1c6c:	b7 74       	tfr   sp,d
    1c6e:	c3 00 96    	addd  #0x96 <_tc3>
    1c71:	16 2d eb    	jsr   0x2deb <__$_7ostream>
    1c74:	18 00 80 00 	movw  #0x2 <err_under>,0,sp
    1c78:	02 
    1c79:	b7 74       	tfr   sp,d
    1c7b:	c3 00 a8    	addd  #0xa8 <_rsvdA4+0x4>
    1c7e:	16 2e 29    	jsr   0x2e29 <__$_7istream>

0x00001c81 <LBE13>:
    1c81:	06 1a f8    	jmp   0x1af8 <L186>

0x00001c84 <LBE12>:
    1c84:	1b f0 bc    	leas  188,sp
    1c87:	3d          	rts   

0x00001c88 <_main>:
    1c88:	1b f1 04    	leas  -252,sp

0x00001c8b <LBB2>:
    1c8b:	cc 00 1e    	ldd   #0x1e <rs>
    1c8e:	16 25 94    	jsr   0x2594 <___builtin_new>
    1c91:	6c 8a       	std   10,sp
    1c93:	18 00 80 00 	movw  #0xc0 <_sci0>,0,sp
    1c97:	c0 
    1c98:	18 00 82 00 	movw  #0x50 <_pwdty01>,2,sp
    1c9c:	50 
    1c9d:	18 00 84 00 	movw  #0x10 <dle>,4,sp
    1ca1:	10 
    1ca2:	16 25 ca    	jsr   0x25ca <___6SciBufRV7sciportUiUi>
    1ca5:	6c f0 24    	std   36,sp
    1ca8:	19 f0 f6    	leay  246,sp
    1cab:	6d f0 22    	sty   34,sp
    1cae:	b7 64       	tfr   y,d
    1cb0:	16 17 22    	jsr   0x1722 <___9HC12Ictlr>
    1cb3:	1a f0 da    	leax  218,sp
    1cb6:	6e f0 20    	stx   32,sp
    1cb9:	ed f0 22    	ldy   34,sp
    1cbc:	6d 80       	sty   0,sp
    1cbe:	18 00 82 0f 	movw  #0xfa0 <.stab+0x238>,2,sp
    1cc2:	a0 
    1cc3:	b7 54       	tfr   x,d
    1cc5:	16 15 d0    	jsr   0x15d0 <___9PwmDriverR5IctlrUi>
    1cc8:	1a f0 b4    	leax  180,sp
    1ccb:	6e f0 1e    	stx   30,sp
    1cce:	ed f0 20    	ldy   32,sp
    1cd1:	6d 80       	sty   0,sp
    1cd3:	18 00 82 00 	movw  #0x0 <*ABS*>,2,sp
    1cd7:	00 
    1cd8:	b7 54       	tfr   x,d
    1cda:	16 12 84    	jsr   0x1284 <___10PwmChannelR9PwmDriveri>
    1cdd:	1a f0 8e    	leax  142,sp
    1ce0:	6e f0 1c    	stx   28,sp
    1ce3:	ed f0 20    	ldy   32,sp
    1ce6:	6d 80       	sty   0,sp
    1ce8:	18 00 82 00 	movw  #0x1 <err_over>,2,sp
    1cec:	01 
    1ced:	b7 54       	tfr   x,d
    1cef:	16 12 84    	jsr   0x1284 <___10PwmChannelR9PwmDriveri>
    1cf2:	1a f0 74    	leax  116,sp
    1cf5:	6e 8a       	stx   10,sp
    1cf7:	18 00 80 02 	movw  #0x200 <_ddrdlc+0x101>,0,sp
    1cfb:	00 
    1cfc:	18 00 82 00 	movw  #0x0 <*ABS*>,2,sp
    1d00:	00 
    1d01:	ed f0 22    	ldy   34,sp
    1d04:	6d 84       	sty   4,sp
    1d06:	b7 54       	tfr   x,d
    1d08:	16 25 0a    	jsr   0x250a <___13HC12TimerTaskUiUiR5Ictlr>

0x00001d0b <LBB3>:
    1d0b:	b7 74       	tfr   sp,d
    1d0d:	c3 00 6a    	addd  #0x6a <_rsvd6A>
    1d10:	16 1a 14    	jsr   0x1a14 <___3Spi>
    1d13:	ce 3e e9    	ldx   #0x3ee9 <___vt_7HC12Spi>
    1d16:	6e f0 70    	stx   112,sp
    1d19:	cc 00 d0    	ldd   #0xd0 <_spi0>
    1d1c:	6c f0 72    	std   114,sp

0x00001d1f <LBB4>:
    1d1f:	f6 00 d7    	ldab  0xd7 <_ddrs>
    1d22:	ca e0       	orab  #0xe0
    1d24:	7b 00 d7    	stab  0xd7 <_ddrs>
    1d27:	18 0b 54 00 	movb  #0x54,0xd0 <_spi0>
    1d2b:	d0 
    1d2c:	18 0b 00 00 	movb  #0x0,0xd5 <_spi0+0x5>
    1d30:	d5 

0x00001d31 <LBE3>:
    1d31:	19 f0 5e    	leay  94,sp
    1d34:	6d f0 1a    	sty   26,sp
    1d37:	1a f0 6a    	leax  106,sp
    1d3a:	6e f0 18    	stx   24,sp

0x00001d3d <LBB5>:
    1d3d:	18 00 80 02 	movw  #0x200 <_ddrdlc+0x101>,0,sp
    1d41:	00 
    1d42:	18 00 82 00 	movw  #0x4 <eot>,2,sp
    1d46:	04 
    1d47:	b7 64       	tfr   y,d
    1d49:	16 29 bd    	jsr   0x29bd <___4TaskUiUi>
    1d4c:	cc 3f 0b    	ldd   #0x3f0b <___vt_7Ltc1404>
    1d4f:	6c f0 64    	std   100,sp
    1d52:	ee f0 18    	ldx   24,sp
    1d55:	ed f0 1a    	ldy   26,sp
    1d58:	6e 48       	stx   8,y
    1d5a:	cc 00 64    	ldd   #0x64 <_atdctl4>
    1d5d:	6c f0 68    	std   104,sp

0x00001d60 <LBB6>:
    1d60:	b7 21       	tfr   ccr,b
    1d62:	6c f0 5c    	std   92,sp
    1d65:	14 10       	sei   

0x00001d67 <LBE7>:
    1d67:	f6 00 d7    	ldab  0xd7 <_ddrs>
    1d6a:	ca c0       	orab  #0xc0
    1d6c:	7b 00 d7    	stab  0xd7 <_ddrs>
    1d6f:	f6 00 ff    	ldab  0xff <_ddrdlc>
    1d72:	ca 40       	orab  #0x40
    1d74:	7b 00 ff    	stab  0xff <_ddrdlc>
    1d77:	f6 00 fe    	ldab  0xfe <_portdlc>
    1d7a:	c4 bf       	andb  #0xbf
    1d7c:	7b 00 fe    	stab  0xfe <_portdlc>
    1d7f:	ec f0 1a    	ldd   26,sp
    1d82:	16 2a 43    	jsr   0x2a43 <_fork__4Task>

0x00001d85 <LBB10>:
    1d85:	ec f0 5c    	ldd   92,sp
    1d88:	b7 12       	tfr   b,ccr

0x00001d8a <LBE10>:
    1d8a:	19 f0 4a    	leay  74,sp
    1d8d:	6d f0 16    	sty   22,sp
    1d90:	18 00 80 00 	movw  #0x1 <err_over>,0,sp
    1d94:	01 
    1d95:	ee f0 24    	ldx   36,sp
    1d98:	6e 82       	stx   2,sp
    1d9a:	b7 64       	tfr   y,d
    1d9c:	16 2b e8    	jsr   0x2be8 <___7ostreamiP9streambuf>
    1d9f:	19 f0 36    	leay  54,sp
    1da2:	6d 8a       	sty   10,sp
    1da4:	18 00 80 00 	movw  #0x1 <err_over>,0,sp
    1da8:	01 
    1da9:	ee f0 24    	ldx   36,sp
    1dac:	6e 82       	stx   2,sp
    1dae:	b7 64       	tfr   y,d
    1db0:	16 2b bf    	jsr   0x2bbf <___7istreamiP9streambuf>
    1db3:	18 00 80 3e 	movw  #0x3edb <LC0>,0,sp
    1db7:	db 
    1db8:	ec f0 16    	ldd   22,sp
    1dbb:	16 2c 27    	jsr   0x2c27 <___ls__7ostreamPCc>
    1dbe:	6c 8a       	std   10,sp

0x00001dc0 <LBB11>:
    1dc0:	16 2c 11    	jsr   0x2c11 <_endl__FR7ostream>

0x00001dc3 <LBE11>:
    1dc3:	cc 00 0e    	ldd   #0xe <so>
    1dc6:	16 25 94    	jsr   0x2594 <___builtin_new>
    1dc9:	6c f0 14    	std   20,sp

0x00001dcc <LBB13>:
    1dcc:	18 00 80 02 	movw  #0x200 <_ddrdlc+0x101>,0,sp
    1dd0:	00 
    1dd1:	18 00 82 00 	movw  #0x1 <err_over>,2,sp
    1dd5:	01 
    1dd6:	16 29 bd    	jsr   0x29bd <___4TaskUiUi>
    1dd9:	ce 3e f3    	ldx   #0x3ef3 <___vt_8TestTask>
    1ddc:	ed f0 14    	ldy   20,sp
    1ddf:	6e 46       	stx   6,y
    1de1:	cc 00 04    	ldd   #0x4 <eot>
    1de4:	6c 48       	std   8,y
    1de6:	ce 00 05    	ldx   #0x5 <enq>
    1de9:	6e 4a       	stx   10,y
    1deb:	cc 00 02    	ldd   #0x2 <err_under>
    1dee:	6c 4c       	std   12,y

0x00001df0 <LBB14>:
    1df0:	f6 00 ff    	ldab  0xff <_ddrdlc>
    1df3:	ea 49       	orab  9,y
    1df5:	7b 00 ff    	stab  0xff <_ddrdlc>
    1df8:	e6 49       	ldab  9,y
    1dfa:	51          	comb  
    1dfb:	6b f0 13    	stab  19,sp
    1dfe:	f6 00 fe    	ldab  0xfe <_portdlc>
    1e01:	e4 f0 13    	andb  19,sp
    1e04:	7b 00 fe    	stab  0xfe <_portdlc>
    1e07:	ec f0 14    	ldd   20,sp
    1e0a:	16 2a 43    	jsr   0x2a43 <_fork__4Task>

0x00001e0d <LBE13>:
    1e0d:	cc 00 0e    	ldd   #0xe <so>
    1e10:	16 25 94    	jsr   0x2594 <___builtin_new>
    1e13:	6c f0 11    	std   17,sp

0x00001e16 <LBB15>:
    1e16:	18 00 80 02 	movw  #0x200 <_ddrdlc+0x101>,0,sp
    1e1a:	00 
    1e1b:	18 00 82 00 	movw  #0x2 <err_under>,2,sp
    1e1f:	02 
    1e20:	16 29 bd    	jsr   0x29bd <___4TaskUiUi>
    1e23:	ce 3e f3    	ldx   #0x3ef3 <___vt_8TestTask>
    1e26:	ed f0 11    	ldy   17,sp
    1e29:	6e 46       	stx   6,y
    1e2b:	cc 00 10    	ldd   #0x10 <dle>
    1e2e:	6c 48       	std   8,y
    1e30:	ce 00 01    	ldx   #0x1 <err_over>
    1e33:	6e 4a       	stx   10,y
    1e35:	cc 00 04    	ldd   #0x4 <eot>
    1e38:	6c 4c       	std   12,y

0x00001e3a <LBB16>:
    1e3a:	f6 00 ff    	ldab  0xff <_ddrdlc>
    1e3d:	ea 49       	orab  9,y
    1e3f:	7b 00 ff    	stab  0xff <_ddrdlc>
    1e42:	e6 49       	ldab  9,y
    1e44:	51          	comb  
    1e45:	6b f0 10    	stab  16,sp
    1e48:	f6 00 fe    	ldab  0xfe <_portdlc>
    1e4b:	e4 f0 10    	andb  16,sp
    1e4e:	7b 00 fe    	stab  0xfe <_portdlc>
    1e51:	ec f0 11    	ldd   17,sp
    1e54:	16 2a 43    	jsr   0x2a43 <_fork__4Task>

0x00001e57 <LBE15>:
    1e57:	cc 00 0e    	ldd   #0xe <so>
    1e5a:	16 25 94    	jsr   0x2594 <___builtin_new>
    1e5d:	6c 8e       	std   14,sp

0x00001e5f <LBB17>:
    1e5f:	18 00 80 02 	movw  #0x200 <_ddrdlc+0x101>,0,sp
    1e63:	00 
    1e64:	18 00 82 00 	movw  #0x3 <err_div0>,2,sp
    1e68:	03 
    1e69:	16 29 bd    	jsr   0x29bd <___4TaskUiUi>
    1e6c:	ce 3e f3    	ldx   #0x3ef3 <___vt_8TestTask>
    1e6f:	ed 8e       	ldy   14,sp
    1e71:	6e 46       	stx   6,y
    1e73:	cc 00 20    	ldd   #0x20 <_brkct0>
    1e76:	6c 48       	std   8,y
    1e78:	ce 00 0f    	ldx   #0xf <si>
    1e7b:	6e 4a       	stx   10,y
    1e7d:	cc 00 08    	ldd   #0x8 <bs>
    1e80:	6c 4c       	std   12,y

0x00001e82 <LBB18>:
    1e82:	f6 00 ff    	ldab  0xff <_ddrdlc>
    1e85:	ea 49       	orab  9,y
    1e87:	7b 00 ff    	stab  0xff <_ddrdlc>
    1e8a:	e6 49       	ldab  9,y
    1e8c:	51          	comb  
    1e8d:	6b 8d       	stab  13,sp
    1e8f:	f6 00 fe    	ldab  0xfe <_portdlc>
    1e92:	e4 8d       	andb  13,sp
    1e94:	7b 00 fe    	stab  0xfe <_portdlc>
    1e97:	ec 8e       	ldd   14,sp
    1e99:	16 2a 43    	jsr   0x2a43 <_fork__4Task>

0x00001e9c <LBE17>:
    1e9c:	19 f0 26    	leay  38,sp
    1e9f:	6d 8a       	sty   10,sp
    1ea1:	ee f0 24    	ldx   36,sp
    1ea4:	6e 80       	stx   0,sp
    1ea6:	18 00 82 02 	movw  #0x200 <_ddrdlc+0x101>,2,sp
    1eaa:	00 
    1eab:	18 00 84 00 	movw  #0x5 <enq>,4,sp
    1eaf:	05 
    1eb0:	ed f0 1e    	ldy   30,sp
    1eb3:	6d 86       	sty   6,sp
    1eb5:	ee f0 1c    	ldx   28,sp
    1eb8:	6e 88       	stx   8,sp
    1eba:	ec 8a       	ldd   10,sp
    1ebc:	16 22 3b    	jsr   0x223b <___10AppCmdProcP9streambufUiUiR10PwmChannelT4>
    1ebf:	ed f0 14    	ldy   20,sp
    1ec2:	27 0d       	beq   0x1ed1 <L490>
    1ec4:	ee 46       	ldx   6,y
    1ec6:	18 00 80 00 	movw  #0x3 <err_div0>,0,sp
    1eca:	03 
    1ecb:	b7 64       	tfr   y,d
    1ecd:	15 e3 00 04 	jsr   [4,x]

0x00001ed1 <L490>:
    1ed1:	ed f0 11    	ldy   17,sp
    1ed4:	27 0d       	beq   0x1ee3 <L492>
    1ed6:	ee 46       	ldx   6,y
    1ed8:	18 00 80 00 	movw  #0x3 <err_div0>,0,sp
    1edc:	03 
    1edd:	b7 64       	tfr   y,d
    1edf:	15 e3 00 04 	jsr   [4,x]

0x00001ee3 <L492>:
    1ee3:	ed 8e       	ldy   14,sp
    1ee5:	27 0d       	beq   0x1ef4 <L497>
    1ee7:	ee 46       	ldx   6,y
    1ee9:	18 00 80 00 	movw  #0x3 <err_div0>,0,sp
    1eed:	03 
    1eee:	b7 64       	tfr   y,d
    1ef0:	15 e3 00 04 	jsr   [4,x]

0x00001ef4 <L497>:
    1ef4:	16 29 86    	jsr   0x2986 <_yield__4Task>
    1ef7:	20 fb       	bra   0x1ef4 <L497>

0x00001ef9 <LBB19>:
    1ef9:	1b f0 fc    	leas  252,sp
    1efc:	3d          	rts   

0x00001efd <Lscope0>:
    1efd:	1b 99       	leas  -7,sp
    1eff:	6c 85       	std   5,sp

0x00001f01 <LBB48>:
    1f01:	ee 89       	ldx   9,sp

0x00001f03 <LBB49>:
    1f03:	87 c7       	clrd  

0x00001f05 <L555>:
    1f05:	6c 83       	std   3,sp
    1f07:	ed 8b       	ldy   11,sp
    1f09:	6d 81       	sty   1,sp
    1f0b:	2c 07       	bge   0x1f14 <L392>
    1f0d:	b7 64       	tfr   y,d
    1f0f:	c3 00 07    	addd  #0x7 <bel>
    1f12:	6c 81       	std   1,sp

0x00001f14 <L392>:
    1f14:	ec 81       	ldd   1,sp
    1f16:	47 56       	asrd  
    1f18:	47 56       	asrd  
    1f1a:	47 56       	asrd  
    1f1c:	6c 81       	std   1,sp
    1f1e:	ed 83       	ldy   3,sp
    1f20:	ad 81       	cpy   1,sp
    1f22:	2c 29       	bge   0x1f4d <L389>
    1f24:	ed 85       	ldy   5,sp
    1f26:	ed 48       	ldy   8,y
    1f28:	c7          	clrb  
    1f29:	6b 45       	stab  5,y
    1f2b:	ed 85       	ldy   5,sp
    1f2d:	ed 48       	ldy   8,y
    1f2f:	6d 81       	sty   1,sp
    1f31:	e6 43       	ldab  3,y
    1f33:	6b 80       	stab  0,sp
    1f35:	2d 06       	blt   0x1f3d <L394>

0x00001f37 <L393>:
    1f37:	ed 81       	ldy   1,sp
    1f39:	e6 43       	ldab  3,y
    1f3b:	2c fa       	bge   0x1f37 <L393>

0x00001f3d <L394>:
    1f3d:	ed 85       	ldy   5,sp
    1f3f:	ed 48       	ldy   8,y
    1f41:	e6 45       	ldab  5,y
    1f43:	6b 30       	stab  1,x+
    1f45:	ec 83       	ldd   3,sp
    1f47:	c3 00 01    	incd  
    1f4a:	06 1f 05    	jmp   0x1f05 <L555>

0x00001f4d <L389>:
    1f4d:	1b 87       	leas  7,sp
    1f4f:	3d          	rts   

0x00001f50 <Lscope1>:
    1f50:	1b 99       	leas  -7,sp
    1f52:	6c 85       	std   5,sp

0x00001f54 <LBB50>:
    1f54:	ee 89       	ldx   9,sp

0x00001f56 <LBB51>:
    1f56:	87 c7       	clrd  

0x00001f58 <L556>:
    1f58:	6c 83       	std   3,sp
    1f5a:	ed 8b       	ldy   11,sp
    1f5c:	6d 81       	sty   1,sp
    1f5e:	2c 07       	bge   0x1f67 <L372>
    1f60:	b7 64       	tfr   y,d
    1f62:	c3 00 07    	addd  #0x7 <bel>
    1f65:	6c 81       	std   1,sp

0x00001f67 <L372>:
    1f67:	ec 81       	ldd   1,sp
    1f69:	47 56       	asrd  
    1f6b:	47 56       	asrd  
    1f6d:	47 56       	asrd  
    1f6f:	6c 81       	std   1,sp
    1f71:	ed 83       	ldy   3,sp
    1f73:	ad 81       	cpy   1,sp
    1f75:	2c 22       	bge   0x1f99 <L369>
    1f77:	ed 85       	ldy   5,sp
    1f79:	ed 48       	ldy   8,y
    1f7b:	e6 30       	ldab  1,x+
    1f7d:	6b 45       	stab  5,y
    1f7f:	ed 85       	ldy   5,sp
    1f81:	ed 48       	ldy   8,y
    1f83:	6d 81       	sty   1,sp
    1f85:	e6 43       	ldab  3,y
    1f87:	6b 80       	stab  0,sp
    1f89:	2d 06       	blt   0x1f91 <L370>

0x00001f8b <L373>:
    1f8b:	ed 81       	ldy   1,sp
    1f8d:	e6 43       	ldab  3,y
    1f8f:	2c fa       	bge   0x1f8b <L373>

0x00001f91 <L370>:
    1f91:	ec 83       	ldd   3,sp
    1f93:	c3 00 01    	incd  
    1f96:	06 1f 58    	jmp   0x1f58 <L556>

0x00001f99 <L369>:
    1f99:	1b 87       	leas  7,sp
    1f9b:	3d          	rts   

0x00001f9c <Lscope2>:
    1f9c:	1b 9e       	leas  -2,sp
    1f9e:	b7 46       	tfr   d,y
    1fa0:	18 00 46 3e 	movw  #0x3ee9 <___vt_7HC12Spi>,6,y
    1fa4:	e9 

0x00001fa5 <LBB52>:
    1fa5:	ee 48       	ldx   8,y
    1fa7:	18 08 00 04 	movb  #0x4,0,x

0x00001fab <LBE52>:
    1fab:	18 02 84 80 	movw  4,sp,0,sp
    1faf:	16 1a 29    	jsr   0x1a29 <__$_3Spi>
    1fb2:	1b 82       	leas  2,sp
    1fb4:	3d          	rts   

0x00001fb5 <Lscope3>:
    1fb5:	1b 9a       	leas  -6,sp
    1fb7:	6c 82       	std   2,sp

0x00001fb9 <L206>:
    1fb9:	ed 82       	ldy   2,sp
    1fbb:	ee 4c       	ldx   12,y
    1fbd:	b7 54       	tfr   x,d
    1fbf:	16 20 e4    	jsr   0x20e4 <_delay__9TimerTaski>

0x00001fc2 <LBB55>:
    1fc2:	b7 21       	tfr   ccr,b
    1fc4:	6c 84       	std   4,sp
    1fc6:	14 10       	sei   

0x00001fc8 <LBE57>:
    1fc8:	ed 82       	ldy   2,sp
    1fca:	e6 49       	ldab  9,y
    1fcc:	51          	comb  
    1fcd:	6b 81       	stab  1,sp
    1fcf:	f6 00 fe    	ldab  0xfe <_portdlc>
    1fd2:	e4 81       	andb  1,sp
    1fd4:	7b 00 fe    	stab  0xfe <_portdlc>

0x00001fd7 <LBB59>:
    1fd7:	ec 84       	ldd   4,sp
    1fd9:	b7 12       	tfr   b,ccr

0x00001fdb <LBB61>:
    1fdb:	ce 00 00    	clrx  

0x00001fde <L216>:
    1fde:	ed 82       	ldy   2,sp
    1fe0:	ae 4a       	cpx   10,y
    1fe2:	18 24 00 16 	lbcc  0x1ffc <L217>

0x00001fe6 <LBB63>:
    1fe6:	b7 21       	tfr   ccr,b
    1fe8:	6c 84       	std   4,sp
    1fea:	14 10       	sei   

0x00001fec <LBE63>:
    1fec:	f6 00 fe    	ldab  0xfe <_portdlc>
    1fef:	e8 49       	eorb  9,y
    1ff1:	7b 00 fe    	stab  0xfe <_portdlc>

0x00001ff4 <LBB65>:
    1ff4:	ec 84       	ldd   4,sp
    1ff6:	b7 12       	tfr   b,ccr

0x00001ff8 <LBE62>:
    1ff8:	08          	inx   
    1ff9:	06 1f de    	jmp   0x1fde <L216>

0x00001ffc <L217>:
    1ffc:	16 29 86    	jsr   0x2986 <_yield__4Task>

0x00001fff <LBE54>:
    1fff:	06 1f b9    	jmp   0x1fb9 <L206>

0x00002002 <LBE53>:
    2002:	1b 86       	leas  6,sp
    2004:	3d          	rts   

0x00002005 <Lscope4>:
    2005:	1b 9e       	leas  -2,sp
    2007:	18 02 84 80 	movw  4,sp,0,sp
    200b:	16 2a 1b    	jsr   0x2a1b <__$_4Task>
    200e:	1b 82       	leas  2,sp
    2010:	3d          	rts   

0x00002011 <_malloc__FUi>:
    2011:	fe 49 91    	ldx   0x4991 <_freePtr>
    2014:	19 e6       	leay  d,x
    2016:	7d 49 91    	sty   0x4991 <_freePtr>
    2019:	8d 7c 00    	cpy   #0x7c00 <_heap_top>
    201c:	25 04       	bcs   0x2022 <L2>
    201e:	87 c7       	clrd  
    2020:	20 02       	bra   0x2024 <L5>

0x00002022 <L2>:
    2022:	b7 54       	tfr   x,d

0x00002024 <L5>:
    2024:	3d          	rts   

0x00002025 <_free__FPv>:
    2025:	3d          	rts   

0x00002026 <_EnterSafeMode__Fv>:
    2026:	3d          	rts   

0x00002027 <_SetErrorFlag__Fv>:
    2027:	3d          	rts   

0x00002028 <___9TimerTaskUiUiR5Ictlrii>:
    2028:	1b 97       	leas  -9,sp
    202a:	6c 87       	std   7,sp
    202c:	18 02 8b 80 	movw  11,sp,0,sp
    2030:	18 02 8d 82 	movw  13,sp,2,sp
    2034:	16 29 bd    	jsr   0x29bd <___4TaskUiUi>
    2037:	ed 87       	ldy   7,sp
    2039:	1a 48       	leax  8,y
    203b:	ec 8f       	ldd   15,sp
    203d:	6c 80       	std   0,sp
    203f:	ed f0 11    	ldy   17,sp
    2042:	6d 82       	sty   2,sp
    2044:	b7 54       	tfr   x,d
    2046:	16 10 89    	jsr   0x1089 <___3IsrR5IctlrUi>
    2049:	cc 3e fb    	ldd   #0x3efb <___vt_9TimerTask$3Isr>
    204c:	ed 87       	ldy   7,sp
    204e:	6c 4c       	std   12,y
    2050:	cc 3f 03    	ldd   #0x3f03 <___vt_9TimerTask>
    2053:	6c 46       	std   6,y
    2055:	19 4e       	leay  14,y
    2057:	6d 85       	sty   5,sp

0x00002059 <LBB2>:
    2059:	18 00 80 00 	movw  #0x0 <*ABS*>,0,sp
    205d:	00 
    205e:	b7 64       	tfr   y,d
    2060:	16 28 9f    	jsr   0x289f <___8TaskListP4Task>
    2063:	cc 3f c2    	ldd   #0x3fc2 <___vt_13DeltaTaskList>
    2066:	ed 85       	ldy   5,sp
    2068:	6c 42       	std   2,y

0x0000206a <LBE2>:
    206a:	ed 87       	ldy   7,sp
    206c:	1a e8 14    	leax  20,y
    206f:	18 00 80 00 	movw  #0x0 <*ABS*>,0,sp
    2073:	00 
    2074:	b7 54       	tfr   x,d
    2076:	16 28 9f    	jsr   0x289f <___8TaskListP4Task>
    2079:	ec f0 13    	ldd   19,sp
    207c:	ed 87       	ldy   7,sp
    207e:	6c e8 18    	std   24,y

0x00002081 <LBB3>:
    2081:	7d 49 93    	sty   0x4993 <__9TimerTask$theTimerTask>
    2084:	f6 00 ff    	ldab  0xff <_ddrdlc>
    2087:	ca 02       	orab  #0x2
    2089:	7b 00 ff    	stab  0xff <_ddrdlc>
    208c:	f6 00 fe    	ldab  0xfe <_portdlc>
    208f:	c4 fd       	andb  #0xfd
    2091:	7b 00 fe    	stab  0xfe <_portdlc>

0x00002094 <LBE3>:
    2094:	b7 64       	tfr   y,d
    2096:	1b 89       	leas  9,sp
    2098:	3d          	rts   

0x00002099 <__$_9TimerTask>:
    2099:	1b 9c       	leas  -4,sp
    209b:	6c 82       	std   2,sp
    209d:	cc 3e fb    	ldd   #0x3efb <___vt_9TimerTask$3Isr>
    20a0:	ed 82       	ldy   2,sp
    20a2:	6c 4c       	std   12,y
    20a4:	cc 3f 03    	ldd   #0x3f03 <___vt_9TimerTask>
    20a7:	6c 46       	std   6,y

0x000020a9 <LBB4>:
    20a9:	18 03 00 00 	movw  #0x0 <*ABS*>,0x4993 <__9TimerTask$theTimerTask>
    20ad:	49 93 

0x000020af <LBE4>:
    20af:	1a e8 14    	leax  20,y
    20b2:	18 00 80 00 	movw  #0x2 <err_under>,0,sp
    20b6:	02 
    20b7:	b7 54       	tfr   x,d
    20b9:	16 28 d0    	jsr   0x28d0 <__$_8TaskList>
    20bc:	ed 82       	ldy   2,sp
    20be:	1a 4e       	leax  14,y

0x000020c0 <LBB5>:
    20c0:	18 00 80 00 	movw  #0x2 <err_under>,0,sp
    20c4:	02 
    20c5:	b7 54       	tfr   x,d
    20c7:	16 28 d0    	jsr   0x28d0 <__$_8TaskList>

0x000020ca <LBE5>:
    20ca:	ed 82       	ldy   2,sp
    20cc:	1a 48       	leax  8,y
    20ce:	18 00 80 00 	movw  #0x0 <*ABS*>,0,sp
    20d2:	00 
    20d3:	b7 54       	tfr   x,d
    20d5:	16 10 b0    	jsr   0x10b0 <__$_3Isr>
    20d8:	ec 86       	ldd   6,sp
    20da:	6c 80       	std   0,sp
    20dc:	ec 82       	ldd   2,sp
    20de:	16 2a 1b    	jsr   0x2a1b <__$_4Task>
    20e1:	1b 84       	leas  4,sp
    20e3:	3d          	rts   

0x000020e4 <_delay__9TimerTaski>:
    20e4:	1b 9e       	leas  -2,sp
    20e6:	b7 46       	tfr   d,y

0x000020e8 <LBB6>:
    20e8:	fc 49 93    	ldd   0x4993 <__9TimerTask$theTimerTask>
    20eb:	27 08       	beq   0x20f5 <L34>
    20ed:	c3 00 0e    	addd  #0xe <so>
    20f0:	6d 80       	sty   0,sp
    20f2:	16 27 60    	jsr   0x2760 <_block__13DeltaTaskListi>

0x000020f5 <L34>:
    20f5:	1b 82       	leas  2,sp
    20f7:	3d          	rts   

0x000020f8 <_main__9TimerTask>:
    20f8:	1b 99       	leas  -7,sp
    20fa:	6c 85       	std   5,sp

0x000020fc <LBB7>:
    20fc:	b7 46       	tfr   d,y
    20fe:	19 4e       	leay  14,y
    2100:	6d 81       	sty   1,sp

0x00002102 <L36>:
    2102:	ec 85       	ldd   5,sp
    2104:	c3 00 14    	addd  #0x14 <dc4>
    2107:	16 29 13    	jsr   0x2913 <_block__8TaskList>
    210a:	f6 00 fe    	ldab  0xfe <_portdlc>
    210d:	c8 02       	eorb  #0x2
    210f:	7b 00 fe    	stab  0xfe <_portdlc>

0x00002112 <LBB9>:
    2112:	87 c7       	clrd  
    2114:	6c 83       	std   3,sp
    2116:	ed 85       	ldy   5,sp
    2118:	ac e8 18    	cpd   24,y
    211b:	2c e5       	bge   0x2102 <L36>

0x0000211d <L42>:
    211d:	ec 85       	ldd   5,sp
    211f:	c3 00 0e    	addd  #0xe <so>
    2122:	16 28 5c    	jsr   0x285c <_decrement__13DeltaTaskList>

0x00002125 <L43>:
    2125:	ec 81       	ldd   1,sp
    2127:	16 28 6a    	jsr   0x286a <_zero__13DeltaTaskList>
    212a:	d7          	tstb  
    212b:	27 07       	beq   0x2134 <L41>
    212d:	ec 81       	ldd   1,sp
    212f:	16 29 40    	jsr   0x2940 <_unblock__8TaskList>
    2132:	20 f1       	bra   0x2125 <L43>

0x00002134 <L41>:
    2134:	ec 83       	ldd   3,sp
    2136:	c3 00 01    	incd  
    2139:	6c 83       	std   3,sp
    213b:	ed 85       	ldy   5,sp
    213d:	ac e8 18    	cpd   24,y
    2140:	2d db       	blt   0x211d <L42>

0x00002142 <LBE8>:
    2142:	20 be       	bra   0x2102 <L36>

0x00002144 <LBE7>:
    2144:	1b 87       	leas  7,sp
    2146:	3d          	rts   

0x00002147 <_handler__9TimerTask>:
    2147:	c3 00 14    	addd  #0x14 <dc4>
    214a:	16 29 40    	jsr   0x2940 <_unblock__8TaskList>

0x0000214d <LBE10>:
    214d:	3d          	rts   

0x0000214e <Lscope4>:
    214e:	c3 ff f8    	addd  #0xfff8 <.stab+0x74>
    2151:	06 20 99    	jmp   0x2099 <__$_9TimerTask>

0x00002154 <___thunk_8_handler__9TimerTask>:
    2154:	c3 ff f8    	addd  #0xfff8 <.stab+0x74>
    2157:	06 21 47    	jmp   0x2147 <_handler__9TimerTask>

0x0000215a <_main__7Ltc1404>:
    215a:	1b 90       	leas  -16,sp
    215c:	6c 88       	std   8,sp

0x0000215e <LBB2>:
    215e:	19 8c       	leay  12,sp
    2160:	6d 86       	sty   6,sp

0x00002162 <L144>:
    2162:	f6 00 fe    	ldab  0xfe <_portdlc>
    2165:	c8 40       	eorb  #0x40
    2167:	7b 00 fe    	stab  0xfe <_portdlc>

0x0000216a <Ltext1>:
    216a:	ed 88       	ldy   8,sp
    216c:	ec 48       	ldd   8,y

0x0000216e <LBB4>:
    216e:	6c f3 00 06 	std   [6,sp]

0x00002172 <LBB6>:
    2172:	16 19 c6    	jsr   0x19c6 <_acquire__5Mutex>

0x00002175 <LBB10>:
    2175:	b7 21       	tfr   ccr,b
    2177:	6c 8e       	std   14,sp
    2179:	14 10       	sei   

0x0000217b <LBE10>:
    217b:	f6 00 d6    	ldab  0xd6 <_ports>
    217e:	ca c0       	orab  #0xc0
    2180:	7b 00 d6    	stab  0xd6 <_ports>

0x00002183 <LBB12>:
    2183:	ec 8e       	ldd   14,sp
    2185:	b7 12       	tfr   b,ccr

0x00002187 <LBB14>:
    2187:	b7 74       	tfr   sp,d
    2189:	c3 00 0a    	addd  #0xa <lf>

0x0000218c <LBB16>:
    218c:	ee f3 00 06 	ldx   [6,sp]
    2190:	ed 06       	ldy   6,x
    2192:	6c 80       	std   0,sp
    2194:	18 00 82 00 	movw  #0x10 <dle>,2,sp
    2198:	10 
    2199:	b7 54       	tfr   x,d
    219b:	15 eb 00 06 	jsr   [6,y]

0x0000219f <LBB18>:
    219f:	b7 21       	tfr   ccr,b
    21a1:	6c 8e       	std   14,sp
    21a3:	14 10       	sei   

0x000021a5 <LBE20>:
    21a5:	f6 00 d6    	ldab  0xd6 <_ports>
    21a8:	c4 3f       	andb  #0x3f
    21aa:	7b 00 d6    	stab  0xd6 <_ports>

0x000021ad <LBB22>:
    21ad:	ec 8e       	ldd   14,sp
    21af:	b7 12       	tfr   b,ccr

0x000021b1 <LBB24>:
    21b1:	ec f3 00 06 	ldd   [6,sp]

0x000021b5 <LBB26>:
    21b5:	16 19 ed    	jsr   0x19ed <_release__5Mutex>

0x000021b8 <LBE18>:
    21b8:	ed 88       	ldy   8,sp
    21ba:	ec 4a       	ldd   10,y
    21bc:	16 20 e4    	jsr   0x20e4 <_delay__9TimerTaski>
    21bf:	16 29 86    	jsr   0x2986 <_yield__4Task>

0x000021c2 <LBE3>:
    21c2:	06 21 62    	jmp   0x2162 <L144>

0x000021c5 <LBE2>:
    21c5:	1b f0 10    	leas  16,sp
    21c8:	3d          	rts   

0x000021c9 <__$_7Ltc1404>:
    21c9:	1b 9c       	leas  -4,sp
    21cb:	b7 45       	tfr   d,x
    21cd:	ed 86       	ldy   6,sp
    21cf:	18 00 06 3f 	movw  #0x3f0b <___vt_7Ltc1404>,6,x
    21d3:	0b 

0x000021d4 <LBB28>:
    21d4:	b7 21       	tfr   ccr,b
    21d6:	6c 82       	std   2,sp
    21d8:	14 10       	sei   

0x000021da <LBE29>:
    21da:	f6 00 d7    	ldab  0xd7 <_ddrs>
    21dd:	c4 3f       	andb  #0x3f
    21df:	7b 00 d7    	stab  0xd7 <_ddrs>

0x000021e2 <LBB31>:
    21e2:	ec 82       	ldd   2,sp
    21e4:	b7 12       	tfr   b,ccr

0x000021e6 <LBE28>:
    21e6:	6d 80       	sty   0,sp
    21e8:	b7 54       	tfr   x,d
    21ea:	16 2a 1b    	jsr   0x2a1b <__$_4Task>
    21ed:	1b 84       	leas  4,sp
    21ef:	3d          	rts   

0x000021f0 <___7Ltc1404UiUiR3Spii>:
    21f0:	1b 97       	leas  -9,sp
    21f2:	6c 85       	std   5,sp
    21f4:	18 02 8b 80 	movw  11,sp,0,sp
    21f8:	18 02 8d 82 	movw  13,sp,2,sp
    21fc:	16 29 bd    	jsr   0x29bd <___4TaskUiUi>
    21ff:	cc 3f 0b    	ldd   #0x3f0b <___vt_7Ltc1404>
    2202:	ed 85       	ldy   5,sp
    2204:	6c 46       	std   6,y
    2206:	ec 8f       	ldd   15,sp
    2208:	6c 48       	std   8,y
    220a:	ec f0 11    	ldd   17,sp
    220d:	6c 4a       	std   10,y

0x0000220f <LBB33>:
    220f:	b7 21       	tfr   ccr,b
    2211:	6c 87       	std   7,sp
    2213:	14 10       	sei   

0x00002215 <LBE34>:
    2215:	f6 00 d7    	ldab  0xd7 <_ddrs>
    2218:	ca c0       	orab  #0xc0
    221a:	7b 00 d7    	stab  0xd7 <_ddrs>
    221d:	f6 00 ff    	ldab  0xff <_ddrdlc>
    2220:	ca 40       	orab  #0x40
    2222:	7b 00 ff    	stab  0xff <_ddrdlc>
    2225:	f6 00 fe    	ldab  0xfe <_portdlc>
    2228:	c4 bf       	andb  #0xbf
    222a:	7b 00 fe    	stab  0xfe <_portdlc>
    222d:	b7 64       	tfr   y,d
    222f:	16 2a 43    	jsr   0x2a43 <_fork__4Task>

0x00002232 <LBB36>:
    2232:	ec 87       	ldd   7,sp
    2234:	b7 12       	tfr   b,ccr

0x00002236 <LBE33>:
    2236:	ec 85       	ldd   5,sp
    2238:	1b 89       	leas  9,sp
    223a:	3d          	rts   

0x0000223b <___10AppCmdProcP9streambufUiUiR10PwmChannelT4>:
    223b:	1b 98       	leas  -8,sp
    223d:	6c 86       	std   6,sp
    223f:	18 02 8a 80 	movw  10,sp,0,sp
    2243:	18 00 82 3f 	movw  #0x3f3e <LC4>,2,sp
    2247:	3e 
    2248:	16 1a e1    	jsr   0x1ae1 <___7CmdProcP9streambufPCc>
    224b:	ed 86       	ldy   6,sp
    224d:	19 44       	leay  4,y
    224f:	6d 84       	sty   4,sp
    2251:	ec 8c       	ldd   12,sp
    2253:	6c 80       	std   0,sp
    2255:	ed 8e       	ldy   14,sp
    2257:	6d 82       	sty   2,sp
    2259:	ec 84       	ldd   4,sp
    225b:	16 29 bd    	jsr   0x29bd <___4TaskUiUi>
    225e:	cc 3f 92    	ldd   #0x3f92 <___vt_10AppCmdProc>
    2261:	ed 86       	ldy   6,sp
    2263:	6c 4a       	std   10,y
    2265:	ec f0 10    	ldd   16,sp
    2268:	6c 4c       	std   12,y
    226a:	ec f0 12    	ldd   18,sp
    226d:	6c 4e       	std   14,y
    226f:	ce 00 00    	clrx  

0x00002272 <LBB2>:
    2272:	8d 00 00    	tsty  
    2275:	27 02       	beq   0x2279 <L283>
    2277:	ee 84       	ldx   4,sp

0x00002279 <L283>:
    2279:	b7 54       	tfr   x,d
    227b:	16 2a 43    	jsr   0x2a43 <_fork__4Task>

0x0000227e <LBE2>:
    227e:	ec 86       	ldd   6,sp
    2280:	1b 88       	leas  8,sp
    2282:	3d          	rts   

0x00002283 <_main__10AppCmdProc>:
    2283:	1b f1 c8    	leas  -56,sp
    2286:	6c f0 1a    	std   26,sp

0x00002289 <LBB3>:
    2289:	cc 00 04    	ldd   #0x4 <eot>
    228c:	16 25 94    	jsr   0x2594 <___builtin_new>
    228f:	6c f0 18    	std   24,sp

0x00002292 <LBB4>:
    2292:	18 00 80 3f 	movw  #0x3f43 <LC5>,0,sp
    2296:	43 
    2297:	16 1a 5c    	jsr   0x1a5c <___3CmdPCc>
    229a:	cc 3f 8c    	ldd   #0x3f8c <___vt_8HelloCmd>
    229d:	ed f0 18    	ldy   24,sp
    22a0:	6c 42       	std   2,y

0x000022a2 <LBB5>:
    22a2:	6d f0 1c    	sty   28,sp
    22a5:	cc 00 04    	ldd   #0x4 <eot>
    22a8:	16 25 94    	jsr   0x2594 <___builtin_new>
    22ab:	6c f0 16    	std   22,sp

0x000022ae <LBB6>:
    22ae:	18 00 80 3f 	movw  #0x3f49 <LC6>,0,sp
    22b2:	49 
    22b3:	16 1a 5c    	jsr   0x1a5c <___3CmdPCc>
    22b6:	cc 3f 86    	ldd   #0x3f86 <___vt_10DumpMemCmd>
    22b9:	ed f0 16    	ldy   22,sp
    22bc:	6c 42       	std   2,y

0x000022be <LBB7>:
    22be:	6d f0 1e    	sty   30,sp
    22c1:	cc 00 06    	ldd   #0x6 <aa_siz>
    22c4:	16 25 94    	jsr   0x2594 <___builtin_new>
    22c7:	6c f0 14    	std   20,sp

0x000022ca <Ltext5>:
    22ca:	ed f0 1a    	ldy   26,sp
    22cd:	ed 4c       	ldy   12,y
    22cf:	6d f0 12    	sty   18,sp

0x000022d2 <LBB8>:
    22d2:	18 00 80 3f 	movw  #0x3f4e <LC7>,0,sp
    22d6:	4e 
    22d7:	16 1a 5c    	jsr   0x1a5c <___3CmdPCc>
    22da:	cc 3f 80    	ldd   #0x3f80 <___vt_10SetDutyCmd>
    22dd:	ed f0 14    	ldy   20,sp
    22e0:	6c 42       	std   2,y
    22e2:	ec f0 12    	ldd   18,sp
    22e5:	6c 44       	std   4,y

0x000022e7 <LBB9>:
    22e7:	6d f0 20    	sty   32,sp
    22ea:	cc 00 06    	ldd   #0x6 <aa_siz>
    22ed:	16 25 94    	jsr   0x2594 <___builtin_new>
    22f0:	6c f0 10    	std   16,sp

0x000022f3 <Ltext7>:
    22f3:	ed f0 1a    	ldy   26,sp
    22f6:	ed 4e       	ldy   14,y
    22f8:	6d 8e       	sty   14,sp

0x000022fa <LBB10>:
    22fa:	18 00 80 3f 	movw  #0x3f59 <LC8>,0,sp
    22fe:	59 
    22ff:	16 1a 5c    	jsr   0x1a5c <___3CmdPCc>
    2302:	cc 3f 80    	ldd   #0x3f80 <___vt_10SetDutyCmd>
    2305:	ed f0 10    	ldy   16,sp
    2308:	6c 42       	std   2,y
    230a:	ec 8e       	ldd   14,sp
    230c:	6c 44       	std   4,y

0x0000230e <LBB11>:
    230e:	6d f0 22    	sty   34,sp
    2311:	cc 00 06    	ldd   #0x6 <aa_siz>
    2314:	16 25 94    	jsr   0x2594 <___builtin_new>
    2317:	6c 8c       	std   12,sp

0x00002319 <Ltext9>:
    2319:	ed f0 1a    	ldy   26,sp
    231c:	ed 4c       	ldy   12,y
    231e:	6d 8a       	sty   10,sp

0x00002320 <LBB12>:
    2320:	18 00 80 3f 	movw  #0x3f64 <LC9>,0,sp
    2324:	64 
    2325:	16 1a 5c    	jsr   0x1a5c <___3CmdPCc>
    2328:	cc 3f 7a    	ldd   #0x3f7a <___vt_10GetDutyCmd>
    232b:	ed 8c       	ldy   12,sp
    232d:	6c 42       	std   2,y
    232f:	ec 8a       	ldd   10,sp
    2331:	6c 44       	std   4,y

0x00002333 <LBB13>:
    2333:	6d f0 24    	sty   36,sp
    2336:	cc 00 06    	ldd   #0x6 <aa_siz>
    2339:	16 25 94    	jsr   0x2594 <___builtin_new>
    233c:	6c 88       	std   8,sp

0x0000233e <Ltext11>:
    233e:	ed f0 1a    	ldy   26,sp
    2341:	ed 4e       	ldy   14,y
    2343:	6d 86       	sty   6,sp

0x00002345 <LBB14>:
    2345:	18 00 80 3f 	movw  #0x3f6f <LC10>,0,sp
    2349:	6f 
    234a:	16 1a 5c    	jsr   0x1a5c <___3CmdPCc>
    234d:	cc 3f 7a    	ldd   #0x3f7a <___vt_10GetDutyCmd>
    2350:	ed 88       	ldy   8,sp
    2352:	6c 42       	std   2,y
    2354:	ec 86       	ldd   6,sp
    2356:	6c 44       	std   4,y

0x00002358 <LBB15>:
    2358:	6d f0 26    	sty   38,sp
    235b:	87 c7       	clrd  
    235d:	6c f0 28    	std   40,sp
    2360:	ed f0 1c    	ldy   28,sp
    2363:	6d f0 2a    	sty   42,sp
    2366:	ec f0 1e    	ldd   30,sp
    2369:	6c f0 2c    	std   44,sp
    236c:	ed f0 20    	ldy   32,sp
    236f:	6d f0 2e    	sty   46,sp
    2372:	ec f0 22    	ldd   34,sp
    2375:	6c f0 30    	std   48,sp
    2378:	ed f0 24    	ldy   36,sp
    237b:	6d f0 32    	sty   50,sp
    237e:	ec f0 26    	ldd   38,sp
    2381:	6c f0 34    	std   52,sp
    2384:	ed f0 28    	ldy   40,sp
    2387:	6d f0 36    	sty   54,sp
    238a:	19 f0 2a    	leay  42,sp
    238d:	6d 84       	sty   4,sp
    238f:	6d 80       	sty   0,sp
    2391:	ec f0 1a    	ldd   26,sp
    2394:	16 1a ec    	jsr   0x1aec <_present__7CmdProcPP3Cmd>

0x00002397 <LBB16>:
    2397:	ed 84       	ldy   4,sp
    2399:	6d 82       	sty   2,sp
    239b:	ee f3 00 02 	ldx   [2,sp]
    239f:	27 12       	beq   0x23b3 <L299>

0x000023a1 <L301>:
    23a1:	ec f3 00 02 	ldd   [2,sp]
    23a5:	16 25 c2    	jsr   0x25c2 <___builtin_delete>
    23a8:	ed 82       	ldy   2,sp
    23aa:	ec 61       	ldd   2,+y
    23ac:	6d 82       	sty   2,sp
    23ae:	8c 00 00    	tstd  
    23b1:	26 ee       	bne   0x23a1 <L301>

0x000023b3 <L299>:
    23b3:	1b f0 38    	leas  56,sp
    23b6:	3d          	rts   

0x000023b7 <Lscope1>:
    23b7:	c3 ff fc    	addd  #0xfffc <.stab+0x78>
    23ba:	06 24 df    	jmp   0x24df <__$_10AppCmdProc>

0x000023bd <___thunk_4_main__10AppCmdProc>:
    23bd:	c3 ff fc    	addd  #0xfffc <.stab+0x78>
    23c0:	06 22 83    	jmp   0x2283 <_main__10AppCmdProc>

0x000023c3 <Ltext13>:
    23c3:	1b 92       	leas  -14,sp
    23c5:	b7 45       	tfr   d,x

0x000023c7 <LBB17>:
    23c7:	19 8a       	leay  10,sp
    23c9:	6d 84       	sty   4,sp
    23cb:	18 02 04 80 	movw  4,x,0,sp
    23cf:	b7 64       	tfr   y,d
    23d1:	16 14 98    	jsr   0x1498 <_getDuty__10PwmChannel>
    23d4:	18 02 8a 86 	movw  10,sp,6,sp
    23d8:	ed 84       	ldy   4,sp
    23da:	ed 42       	ldy   2,y
    23dc:	6d 88       	sty   8,sp

0x000023de <LBB18>:
    23de:	ec f0 12    	ldd   18,sp
    23e1:	16 2c 11    	jsr   0x2c11 <_endl__FR7ostream>

0x000023e4 <LBE18>:
    23e4:	18 02 86 80 	movw  6,sp,0,sp
    23e8:	18 02 88 82 	movw  8,sp,2,sp
    23ec:	16 2e 64    	jsr   0x2e64 <___ls__7ostreamf>

0x000023ef <LBB20>:
    23ef:	16 2c 4b    	jsr   0x2c4b <_flush__FR7ostream>

0x000023f2 <LBE20>:
    23f2:	87 c7       	clrd  

0x000023f4 <LBE17>:
    23f4:	1b 8e       	leas  14,sp
    23f6:	3d          	rts   

0x000023f7 <Lscope2>:
    23f7:	1b 94       	leas  -12,sp
    23f9:	6c 86       	std   6,sp
    23fb:	ec 8e       	ldd   14,sp

0x000023fd <LBB22>:
    23fd:	19 88       	leay  8,sp
    23ff:	6d 84       	sty   4,sp
    2401:	6d 80       	sty   0,sp
    2403:	16 2f db    	jsr   0x2fdb <___rs__7istreamRf>
    2406:	b7 45       	tfr   d,x
    2408:	87 c7       	clrd  
    240a:	8e 00 00    	tstx  
    240d:	27 02       	beq   0x2411 <L255>
    240f:	ec 00       	ldd   0,x

0x00002411 <L255>:
    2411:	b7 46       	tfr   d,y
    2413:	ec 44       	ldd   4,y
    2415:	87          	clra  
    2416:	c4 06       	andb  #0x6

0x00002418 <LBE24>:
    2418:	8c 00 00    	tstd  
    241b:	26 1b       	bne   0x2438 <L253>

0x0000241d <Ltext21>:
    241d:	ec f0 10    	ldd   16,sp
    2420:	16 2c 4b    	jsr   0x2c4b <_flush__FR7ostream>

0x00002423 <Ltext22>:
    2423:	ed 86       	ldy   6,sp
    2425:	ec 44       	ldd   4,y
    2427:	18 02 88 80 	movw  8,sp,0,sp
    242b:	ed 84       	ldy   4,sp
    242d:	ed 42       	ldy   2,y
    242f:	6d 82       	sty   2,sp
    2431:	16 14 0d    	jsr   0x140d <_setDuty__10PwmChannelf>
    2434:	87 c7       	clrd  
    2436:	20 03       	bra   0x243b <L303>

0x00002438 <L253>:
    2438:	cc 3f 2e    	ldd   #0x3f2e <LC3>

0x0000243b <L303>:
    243b:	1b 8c       	leas  12,sp
    243d:	3d          	rts   

0x0000243e <Lscope3>:
    243e:	1b 98       	leas  -8,sp

0x00002440 <LBB30>:
    2440:	ec f3 00 0a 	ldd   [10,sp]
    2444:	16 31 e8    	jsr   0x31e8 <_hex__FR3ios>

0x00002447 <LBE32>:
    2447:	1a 86       	leax  6,sp
    2449:	6e 80       	stx   0,sp
    244b:	ec 8a       	ldd   10,sp
    244d:	16 31 f5    	jsr   0x31f5 <___rs__7istreamRUi>
    2450:	b7 45       	tfr   d,x
    2452:	87 c7       	clrd  
    2454:	8e 00 00    	tstx  
    2457:	27 02       	beq   0x245b <L202>
    2459:	ec 00       	ldd   0,x

0x0000245b <L202>:
    245b:	b7 46       	tfr   d,y
    245d:	ec 44       	ldd   4,y
    245f:	87          	clra  
    2460:	c4 06       	andb  #0x6

0x00002462 <LBE34>:
    2462:	8c 00 00    	tstd  
    2465:	27 06       	beq   0x246d <L200>
    2467:	cc 3f 21    	ldd   #0x3f21 <LC1>
    246a:	06 24 c8    	jmp   0x24c8 <L304>

0x0000246d <L200>:
    246d:	ec f3 00 0a 	ldd   [10,sp]
    2471:	16 31 e8    	jsr   0x31e8 <_hex__FR3ios>

0x00002474 <LBE39>:
    2474:	19 84       	leay  4,sp
    2476:	6d 80       	sty   0,sp
    2478:	ec 8a       	ldd   10,sp
    247a:	16 31 f5    	jsr   0x31f5 <___rs__7istreamRUi>
    247d:	b7 45       	tfr   d,x
    247f:	87 c7       	clrd  
    2481:	8e 00 00    	tstx  
    2484:	27 02       	beq   0x2488 <L210>
    2486:	ec 00       	ldd   0,x

0x00002488 <L210>:
    2488:	b7 46       	tfr   d,y
    248a:	ec 44       	ldd   4,y
    248c:	87          	clra  
    248d:	c4 06       	andb  #0x6

0x0000248f <LBE41>:
    248f:	8c 00 00    	tstd  
    2492:	27 07       	beq   0x249b <L208>
    2494:	ec 86       	ldd   6,sp
    2496:	c3 00 40    	addd  #0x40 <_pwmclk>
    2499:	6c 84       	std   4,sp

0x0000249b <L208>:
    249b:	ec 8c       	ldd   12,sp
    249d:	16 2c 11    	jsr   0x2c11 <_endl__FR7ostream>

0x000024a0 <LBB47>:
    24a0:	16 2c 4b    	jsr   0x2c4b <_flush__FR7ostream>

0x000024a3 <LBB49>:
    24a3:	ed 86       	ldy   6,sp
    24a5:	6d 82       	sty   2,sp

0x000024a7 <L218>:
    24a7:	ed 82       	ldy   2,sp
    24a9:	ad 84       	cpy   4,sp
    24ab:	22 19       	bhi   0x24c6 <L219>
    24ad:	e6 70       	ldab  1,y+
    24af:	87          	clra  
    24b0:	6d 82       	sty   2,sp
    24b2:	6c 80       	std   0,sp
    24b4:	ec 8c       	ldd   12,sp
    24b6:	16 32 0b    	jsr   0x320b <___ls__7ostreami>
    24b9:	18 00 80 3f 	movw  #0x3f2c <LC2>,0,sp
    24bd:	2c 
    24be:	16 2c 27    	jsr   0x2c27 <___ls__7ostreamPCc>

0x000024c1 <LBB51>:
    24c1:	16 2c 4b    	jsr   0x2c4b <_flush__FR7ostream>

0x000024c4 <LBE50>:
    24c4:	20 e1       	bra   0x24a7 <L218>

0x000024c6 <L219>:
    24c6:	87 c7       	clrd  

0x000024c8 <L304>:
    24c8:	1b 88       	leas  8,sp
    24ca:	3d          	rts   

0x000024cb <Lscope4>:
    24cb:	1b 9e       	leas  -2,sp
    24cd:	ec 86       	ldd   6,sp

0x000024cf <LBB53>:
    24cf:	16 2c 11    	jsr   0x2c11 <_endl__FR7ostream>

0x000024d2 <LBE54>:
    24d2:	18 00 80 3f 	movw  #0x3f13 <LC0>,0,sp
    24d6:	13 
    24d7:	16 2c 27    	jsr   0x2c27 <___ls__7ostreamPCc>
    24da:	87 c7       	clrd  

0x000024dc <LBE53>:
    24dc:	1b 82       	leas  2,sp
    24de:	3d          	rts   

0x000024df <__$_10AppCmdProc>:
    24df:	1b 9c       	leas  -4,sp
    24e1:	6c 82       	std   2,sp
    24e3:	cc 3f 92    	ldd   #0x3f92 <___vt_10AppCmdProc>
    24e6:	ed 82       	ldy   2,sp
    24e8:	6c 4a       	std   10,y
    24ea:	1a 44       	leax  4,y
    24ec:	18 00 80 00 	movw  #0x0 <*ABS*>,0,sp
    24f0:	00 
    24f1:	b7 54       	tfr   x,d
    24f3:	16 2a 1b    	jsr   0x2a1b <__$_4Task>
    24f6:	ec 86       	ldd   6,sp
    24f8:	87          	clra  
    24f9:	c4 01       	andb  #0x1
    24fb:	b7 45       	tfr   d,x
    24fd:	8e 00 00    	tstx  
    2500:	27 05       	beq   0x2507 <L308>
    2502:	ec 82       	ldd   2,sp
    2504:	16 25 c2    	jsr   0x25c2 <___builtin_delete>

0x00002507 <L308>:
    2507:	1b 84       	leas  4,sp
    2509:	3d          	rts   

0x0000250a <___13HC12TimerTaskUiUiR5Ictlr>:
    250a:	1b 93       	leas  -13,sp
    250c:	6c 8b       	std   11,sp
    250e:	ec 8f       	ldd   15,sp
    2510:	6c 80       	std   0,sp
    2512:	ed f0 11    	ldy   17,sp
    2515:	6d 82       	sty   2,sp
    2517:	ec f0 13    	ldd   19,sp
    251a:	6c 84       	std   4,sp
    251c:	18 00 86 00 	movw  #0xf <si>,6,sp
    2520:	0f 
    2521:	18 00 88 00 	movw  #0x1 <err_over>,8,sp
    2525:	01 
    2526:	ec 8b       	ldd   11,sp
    2528:	16 20 28    	jsr   0x2028 <___9TimerTaskUiUiR5Ictlrii>
    252b:	cc 3f 9a    	ldd   #0x3f9a <___vt_13HC12TimerTask$3Isr>
    252e:	ed 8b       	ldy   11,sp
    2530:	6c 4c       	std   12,y
    2532:	cc 3f a2    	ldd   #0x3fa2 <___vt_13HC12TimerTask>
    2535:	6c 46       	std   6,y

0x00002537 <LBB2>:
    2537:	18 0b 81 00 	movb  #0x81,0x14 <dc4>
    253b:	14 
    253c:	b7 64       	tfr   y,d
    253e:	16 2a 43    	jsr   0x2a43 <_fork__4Task>
    2541:	f6 00 ff    	ldab  0xff <_ddrdlc>
    2544:	ca 01       	orab  #0x1
    2546:	7b 00 ff    	stab  0xff <_ddrdlc>
    2549:	f6 00 fe    	ldab  0xfe <_portdlc>
    254c:	c4 fe       	andb  #0xfe
    254e:	7b 00 fe    	stab  0xfe <_portdlc>

0x00002551 <LBE2>:
    2551:	ec 8b       	ldd   11,sp
    2553:	1b 8d       	leas  13,sp
    2555:	3d          	rts   

0x00002556 <__$_13HC12TimerTask>:
    2556:	1b 9e       	leas  -2,sp
    2558:	b7 46       	tfr   d,y
    255a:	18 00 4c 3f 	movw  #0x3f9a <___vt_13HC12TimerTask$3Isr>,12,y
    255e:	9a 
    255f:	18 00 46 3f 	movw  #0x3fa2 <___vt_13HC12TimerTask>,6,y
    2563:	a2 

0x00002564 <LBB3>:
    2564:	18 0b 7f 00 	movb  #0x7f,0x14 <dc4>
    2568:	14 

0x00002569 <LBE3>:
    2569:	18 02 84 80 	movw  4,sp,0,sp
    256d:	16 20 99    	jsr   0x2099 <__$_9TimerTask>
    2570:	1b 82       	leas  2,sp
    2572:	3d          	rts   

0x00002573 <_handler__13HC12TimerTask>:
    2573:	b7 46       	tfr   d,y

0x00002575 <LBB4>:
    2575:	18 0b 80 00 	movb  #0x80,0x15 <nak>
    2579:	15 
    257a:	f6 00 fe    	ldab  0xfe <_portdlc>
    257d:	c8 01       	eorb  #0x1
    257f:	7b 00 fe    	stab  0xfe <_portdlc>
    2582:	b7 64       	tfr   y,d
    2584:	16 21 47    	jsr   0x2147 <_handler__9TimerTask>

0x00002587 <LBE4>:
    2587:	3d          	rts   

0x00002588 <Lscope2>:
    2588:	c3 ff f8    	addd  #0xfff8 <.stab+0x74>
    258b:	06 25 56    	jmp   0x2556 <__$_13HC12TimerTask>

0x0000258e <___thunk_8_handler__13HC12TimerTask>:
    258e:	c3 ff f8    	addd  #0xfff8 <.stab+0x74>
    2591:	06 25 73    	jmp   0x2573 <_handler__13HC12TimerTask>

0x00002594 <___builtin_new>:
    2594:	1b 9e       	leas  -2,sp

0x00002596 <LBB2>:
    2596:	16 20 11    	jsr   0x2011 <_malloc__FUi>
    2599:	6c 80       	std   0,sp
    259b:	26 09       	bne   0x25a6 <L2>
    259d:	16 20 26    	jsr   0x2026 <_EnterSafeMode__Fv>
    25a0:	16 20 27    	jsr   0x2027 <_SetErrorFlag__Fv>
    25a3:	16 28 8e    	jsr   0x288e <_Restart__Fv>

0x000025a6 <L2>:
    25a6:	ec 80       	ldd   0,sp

0x000025a8 <LBE2>:
    25a8:	1b 82       	leas  2,sp
    25aa:	3d          	rts   

0x000025ab <___builtin_vec_new>:
    25ab:	1b 9e       	leas  -2,sp

0x000025ad <LBB3>:
    25ad:	16 20 11    	jsr   0x2011 <_malloc__FUi>
    25b0:	6c 80       	std   0,sp
    25b2:	26 09       	bne   0x25bd <L4>
    25b4:	16 20 26    	jsr   0x2026 <_EnterSafeMode__Fv>
    25b7:	16 20 27    	jsr   0x2027 <_SetErrorFlag__Fv>
    25ba:	16 28 8e    	jsr   0x288e <_Restart__Fv>

0x000025bd <L4>:
    25bd:	ec 80       	ldd   0,sp

0x000025bf <LBE3>:
    25bf:	1b 82       	leas  2,sp
    25c1:	3d          	rts   

0x000025c2 <___builtin_delete>:
    25c2:	16 20 25    	jsr   0x2025 <_free__FPv>

0x000025c5 <LBE4>:
    25c5:	3d          	rts   

0x000025c6 <___builtin_vec_delete>:
    25c6:	16 20 25    	jsr   0x2025 <_free__FPv>

0x000025c9 <LBE5>:
    25c9:	3d          	rts   

0x000025ca <___6SciBufRV7sciportUiUi>:
    25ca:	1b 97       	leas  -9,sp
    25cc:	6c 87       	std   7,sp
    25ce:	16 32 58    	jsr   0x3258 <___9streambuf>
    25d1:	cc 3f aa    	ldd   #0x3faa <___vt_6SciBuf>
    25d4:	ed 87       	ldy   7,sp
    25d6:	6c e8 12    	std   18,y
    25d9:	ec 8b       	ldd   11,sp
    25db:	6c e8 14    	std   20,y
    25de:	ec 8d       	ldd   13,sp
    25e0:	16 25 ab    	jsr   0x25ab <___builtin_vec_new>
    25e3:	b7 45       	tfr   d,x
    25e5:	ed 87       	ldy   7,sp
    25e7:	6e e8 16    	stx   22,y
    25ea:	ec 8d       	ldd   13,sp
    25ec:	1a e6       	leax  d,x
    25ee:	6e e8 18    	stx   24,y
    25f1:	ec 8f       	ldd   15,sp
    25f3:	16 25 ab    	jsr   0x25ab <___builtin_vec_new>
    25f6:	b7 45       	tfr   d,x
    25f8:	ed 87       	ldy   7,sp
    25fa:	6e e8 1a    	stx   26,y
    25fd:	ec 8f       	ldd   15,sp
    25ff:	1a e6       	leax  d,x
    2601:	6e e8 1c    	stx   28,y

0x00002604 <LBB2>:
    2604:	ed e8 16    	ldy   22,y
    2607:	6d 80       	sty   0,sp
    2609:	ed 87       	ldy   7,sp
    260b:	ed e8 18    	ldy   24,y
    260e:	6d 82       	sty   2,sp
    2610:	ed 87       	ldy   7,sp
    2612:	ed e8 18    	ldy   24,y
    2615:	6d 84       	sty   4,sp
    2617:	ec 87       	ldd   7,sp
    2619:	16 32 90    	jsr   0x3290 <_setg__9streambufPcN21>
    261c:	ed 87       	ldy   7,sp
    261e:	ed e8 1a    	ldy   26,y
    2621:	6d 80       	sty   0,sp
    2623:	ed 87       	ldy   7,sp
    2625:	ed e8 1c    	ldy   28,y
    2628:	6d 82       	sty   2,sp
    262a:	ec 87       	ldd   7,sp
    262c:	16 32 a0    	jsr   0x32a0 <_setp__9streambufPcT1>
    262f:	ed 87       	ldy   7,sp
    2631:	ee e8 14    	ldx   20,y
    2634:	e6 03       	ldab  3,x
    2636:	ca 0c       	orab  #0xc
    2638:	6b 03       	stab  3,x

0x0000263a <LBE2>:
    263a:	b7 64       	tfr   y,d
    263c:	1b 89       	leas  9,sp
    263e:	3d          	rts   

0x0000263f <__$_6SciBuf>:
    263f:	1b 9b       	leas  -5,sp
    2641:	6c 83       	std   3,sp
    2643:	cc 3f aa    	ldd   #0x3faa <___vt_6SciBuf>
    2646:	ed 83       	ldy   3,sp
    2648:	6c e8 12    	std   18,y

0x0000264b <LBB3>:
    264b:	ee e8 14    	ldx   20,y
    264e:	e6 03       	ldab  3,x
    2650:	c4 f3       	andb  #0xf3
    2652:	6b 03       	stab  3,x
    2654:	ee e8 1a    	ldx   26,y
    2657:	b7 54       	tfr   x,d
    2659:	16 25 c2    	jsr   0x25c2 <___builtin_delete>
    265c:	ed 83       	ldy   3,sp
    265e:	ee e8 16    	ldx   22,y
    2661:	b7 54       	tfr   x,d
    2663:	16 25 c2    	jsr   0x25c2 <___builtin_delete>

0x00002666 <LBE3>:
    2666:	ec 87       	ldd   7,sp
    2668:	6c 80       	std   0,sp
    266a:	ec 83       	ldd   3,sp
    266c:	16 32 ad    	jsr   0x32ad <__$_9streambuf>
    266f:	1b 85       	leas  5,sp
    2671:	3d          	rts   

0x00002672 <_underflow__6SciBuf>:
    2672:	1b 96       	leas  -10,sp
    2674:	6c 88       	std   8,sp

0x00002676 <LBB4>:
    2676:	b7 46       	tfr   d,y
    2678:	ed e8 16    	ldy   22,y
    267b:	6d 86       	sty   6,sp

0x0000267d <L152>:
    267d:	ec 88       	ldd   8,sp
    267f:	16 27 17    	jsr   0x2717 <_recv__6SciBuf>
    2682:	ee 86       	ldx   6,sp
    2684:	6b 30       	stab  1,x+
    2686:	6e 86       	stx   6,sp
    2688:	ed 88       	ldy   8,sp
    268a:	ae e8 18    	cpx   24,y
    268d:	24 0a       	bcc   0x2699 <L153>
    268f:	b7 64       	tfr   y,d
    2691:	16 27 0c    	jsr   0x270c <_poll__6SciBuf>
    2694:	8c 00 00    	tstd  
    2697:	26 e4       	bne   0x267d <L152>

0x00002699 <L153>:
    2699:	ee 88       	ldx   8,sp
    269b:	ee e0 16    	ldx   22,x
    269e:	6e 80       	stx   0,sp
    26a0:	ed 88       	ldy   8,sp
    26a2:	ed e8 16    	ldy   22,y
    26a5:	6d 82       	sty   2,sp
    26a7:	ee 86       	ldx   6,sp
    26a9:	6e 84       	stx   4,sp
    26ab:	ec 88       	ldd   8,sp
    26ad:	16 32 90    	jsr   0x3290 <_setg__9streambufPcN21>
    26b0:	ed 88       	ldy   8,sp
    26b2:	e6 eb 00 16 	ldab  [22,y]
    26b6:	87          	clra  

0x000026b7 <LBE4>:
    26b7:	1b 8a       	leas  10,sp
    26b9:	3d          	rts   

0x000026ba <_overflow__6SciBufi>:
    26ba:	1b 9c       	leas  -4,sp
    26bc:	6c 82       	std   2,sp

0x000026be <LBB5>:
    26be:	b7 46       	tfr   d,y
    26c0:	ee e8 12    	ldx   18,y
    26c3:	15 e3 00 0c 	jsr   [12,x]
    26c7:	ed 86       	ldy   6,sp
    26c9:	6d 80       	sty   0,sp
    26cb:	ec 82       	ldd   2,sp
    26cd:	16 32 da    	jsr   0x32da <_sputc__9streambufi>

0x000026d0 <LBE5>:
    26d0:	1b 84       	leas  4,sp
    26d2:	3d          	rts   

0x000026d3 <_sync__6SciBuf>:
    26d3:	1b 98       	leas  -8,sp
    26d5:	6c 86       	std   6,sp

0x000026d7 <LBB6>:
    26d7:	b7 46       	tfr   d,y
    26d9:	ed e8 1a    	ldy   26,y
    26dc:	6d 84       	sty   4,sp

0x000026de <L159>:
    26de:	ed 84       	ldy   4,sp
    26e0:	ee 86       	ldx   6,sp
    26e2:	ad 08       	cpy   8,x
    26e4:	24 0e       	bcc   0x26f4 <L160>
    26e6:	e6 70       	ldab  1,y+
    26e8:	87          	clra  
    26e9:	6d 84       	sty   4,sp
    26eb:	6c 80       	std   0,sp
    26ed:	b7 54       	tfr   x,d
    26ef:	16 27 35    	jsr   0x2735 <_send__6SciBufc>

0x000026f2 <LBE8>:
    26f2:	20 ea       	bra   0x26de <L159>

0x000026f4 <L160>:
    26f4:	ee 86       	ldx   6,sp
    26f6:	ee e0 1a    	ldx   26,x
    26f9:	6e 80       	stx   0,sp
    26fb:	ed 86       	ldy   6,sp
    26fd:	ed e8 1c    	ldy   28,y
    2700:	6d 82       	sty   2,sp
    2702:	ec 86       	ldd   6,sp
    2704:	16 32 a0    	jsr   0x32a0 <_setp__9streambufPcT1>
    2707:	87 c7       	clrd  

0x00002709 <LBE6>:
    2709:	1b 88       	leas  8,sp
    270b:	3d          	rts   

0x0000270c <_poll__6SciBuf>:
    270c:	b7 46       	tfr   d,y

0x0000270e <LBB11>:
    270e:	ed e8 14    	ldy   20,y
    2711:	e6 44       	ldab  4,y
    2713:	87          	clra  
    2714:	c4 20       	andb  #0x20

0x00002716 <LBE11>:
    2716:	3d          	rts   

0x00002717 <_recv__6SciBuf>:
    2717:	1b 9e       	leas  -2,sp
    2719:	6c 80       	std   0,sp

0x0000271b <L166>:
    271b:	ec 80       	ldd   0,sp
    271d:	16 27 0c    	jsr   0x270c <_poll__6SciBuf>
    2720:	8c 00 00    	tstd  
    2723:	26 05       	bne   0x272a <L167>
    2725:	16 29 86    	jsr   0x2986 <_yield__4Task>
    2728:	20 f1       	bra   0x271b <L166>

0x0000272a <L167>:
    272a:	ed 80       	ldy   0,sp
    272c:	ee e8 14    	ldx   20,y
    272f:	e6 07       	ldab  7,x
    2731:	87          	clra  

0x00002732 <LBE12>:
    2732:	1b 82       	leas  2,sp
    2734:	3d          	rts   

0x00002735 <_send__6SciBufc>:
    2735:	1b 9c       	leas  -4,sp
    2737:	6c 82       	std   2,sp
    2739:	e6 87       	ldab  7,sp
    273b:	6b 81       	stab  1,sp

0x0000273d <LBB13>:
    273d:	ed 82       	ldy   2,sp
    273f:	ee e8 14    	ldx   20,y
    2742:	e6 04       	ldab  4,x
    2744:	6b 80       	stab  0,sp
    2746:	2d 0c       	blt   0x2754 <L171>

0x00002748 <L172>:
    2748:	16 29 86    	jsr   0x2986 <_yield__4Task>
    274b:	ed 82       	ldy   2,sp
    274d:	ee e8 14    	ldx   20,y
    2750:	e6 04       	ldab  4,x
    2752:	2c f4       	bge   0x2748 <L172>

0x00002754 <L171>:
    2754:	ed 82       	ldy   2,sp
    2756:	ee e8 14    	ldx   20,y
    2759:	e6 81       	ldab  1,sp
    275b:	6b 07       	stab  7,x

0x0000275d <LBE13>:
    275d:	1b 84       	leas  4,sp
    275f:	3d          	rts   

0x00002760 <_block__13DeltaTaskListi>:
    2760:	1b 9e       	leas  -2,sp
    2762:	b7 45       	tfr   d,x
    2764:	ed 84       	ldy   4,sp

0x00002766 <LBB2>:
    2766:	b7 21       	tfr   ccr,b
    2768:	6c 80       	std   0,sp
    276a:	14 10       	sei   

0x0000276c <LBE3>:
    276c:	6d 04       	sty   4,x
    276e:	b7 54       	tfr   x,d
    2770:	16 29 13    	jsr   0x2913 <_block__8TaskList>

0x00002773 <LBB5>:
    2773:	ec 80       	ldd   0,sp
    2775:	b7 12       	tfr   b,ccr

0x00002777 <LBE2>:
    2777:	1b 82       	leas  2,sp
    2779:	3d          	rts   

0x0000277a <_insert__13DeltaTaskListPQ28TaskList4Node>:
    277a:	1b 90       	leas  -16,sp
    277c:	6c 8c       	std   12,sp

0x0000277e <LBB7>:
    277e:	b7 21       	tfr   ccr,b
    2780:	6c 8e       	std   14,sp
    2782:	14 10       	sei   

0x00002784 <LBB10>:
    2784:	ed f0 12    	ldy   18,sp
    2787:	18 27 00 c9 	lbeq  0x2854 <L33>

0x0000278b <LBB11>:
    278b:	ed 8c       	ldy   12,sp
    278d:	ec 44       	ldd   4,y
    278f:	ed f0 12    	ldy   18,sp
    2792:	6c 44       	std   4,y

0x00002794 <LBB12>:
    2794:	ed f3 00 0c 	ldy   [12,sp]
    2798:	6d 80       	sty   0,sp
    279a:	18 27 00 a9 	lbeq  0x2847 <L34>

0x0000279e <LBB13>:
    279e:	ec 44       	ldd   4,y
    27a0:	20 0a       	bra   0x27ac <L54>

0x000027a2 <L37>:
    27a2:	ed f3 00 00 	ldy   [0,sp]
    27a6:	6d 80       	sty   0,sp
    27a8:	ec 8a       	ldd   10,sp
    27aa:	e3 44       	addd  4,y

0x000027ac <L54>:
    27ac:	6c 8a       	std   10,sp
    27ae:	ee f3 00 00 	ldx   [0,sp]
    27b2:	26 ee       	bne   0x27a2 <L37>

0x000027b4 <LBB14>:
    27b4:	ed f0 12    	ldy   18,sp
    27b7:	ee 44       	ldx   4,y
    27b9:	ae 8a       	cpx   10,sp
    27bb:	2d 0f       	blt   0x27cc <L39>
    27bd:	b7 c5       	xgdx  
    27bf:	a3 8a       	subd  10,sp
    27c1:	b7 c5       	xgdx  
    27c3:	6e 44       	stx   4,y
    27c5:	6d f3 00 00 	sty   [0,sp]
    27c9:	06 28 4e    	jmp   0x284e <L55>

0x000027cc <L39>:
    27cc:	ed f3 00 0c 	ldy   [12,sp]
    27d0:	6d 88       	sty   8,sp

0x000027d2 <LBB16>:
    27d2:	ec 44       	ldd   4,y
    27d4:	6c 80       	std   0,sp
    27d6:	ae 80       	cpx   0,sp
    27d8:	2c 13       	bge   0x27ed <L41>
    27da:	34          	pshx  
    27db:	a3 b1       	subd  2,sp+
    27dd:	6c 44       	std   4,y
    27df:	6d f3 00 12 	sty   [18,sp]
    27e3:	ed f0 12    	ldy   18,sp
    27e6:	6d f3 00 0c 	sty   [12,sp]
    27ea:	06 28 54    	jmp   0x2854 <L33>

0x000027ed <L41>:
    27ed:	ec 80       	ldd   0,sp
    27ef:	6c 86       	std   6,sp
    27f1:	cd 00 01    	ldy   #0x1 <err_over>
    27f4:	6d 84       	sty   4,sp

0x000027f6 <L56>:
    27f6:	ee f3 00 08 	ldx   [8,sp]
    27fa:	18 27 00 56 	lbeq  0x2854 <L33>
    27fe:	ec 84       	ldd   4,sp
    2800:	18 27 00 50 	lbeq  0x2854 <L33>
    2804:	ee f3 00 08 	ldx   [8,sp]
    2808:	ec 86       	ldd   6,sp
    280a:	e3 04       	addd  4,x
    280c:	6c 80       	std   0,sp
    280e:	ed f0 12    	ldy   18,sp
    2811:	ed 44       	ldy   4,y
    2813:	6d 82       	sty   2,sp
    2815:	ad 86       	cpy   6,sp
    2817:	2d 21       	blt   0x283a <L47>
    2819:	ad 80       	cpy   0,sp
    281b:	2e 1d       	bgt   0x283a <L47>
    281d:	b7 64       	tfr   y,d
    281f:	a3 86       	subd  6,sp
    2821:	6c 80       	std   0,sp
    2823:	ed f0 12    	ldy   18,sp
    2826:	6c 44       	std   4,y
    2828:	ec 04       	ldd   4,x
    282a:	a3 80       	subd  0,sp
    282c:	6c 04       	std   4,x
    282e:	6e f3 00 12 	stx   [18,sp]
    2832:	6d f3 00 08 	sty   [8,sp]
    2836:	87 c7       	clrd  
    2838:	6c 84       	std   4,sp

0x0000283a <L47>:
    283a:	6e 88       	stx   8,sp
    283c:	ec 86       	ldd   6,sp
    283e:	b7 56       	tfr   x,y
    2840:	e3 44       	addd  4,y
    2842:	6c 86       	std   6,sp
    2844:	06 27 f6    	jmp   0x27f6 <L56>

0x00002847 <L34>:
    2847:	ed f0 12    	ldy   18,sp
    284a:	6d f3 00 0c 	sty   [12,sp]

0x0000284e <L55>:
    284e:	87 c7       	clrd  
    2850:	6c f3 00 12 	std   [18,sp]

0x00002854 <L33>:
    2854:	ec 8e       	ldd   14,sp
    2856:	b7 12       	tfr   b,ccr

0x00002858 <LBE18>:
    2858:	1b f0 10    	leas  16,sp
    285b:	3d          	rts   

0x0000285c <_decrement__13DeltaTaskList>:
    285c:	b7 46       	tfr   d,y

0x0000285e <LBB20>:
    285e:	ed 40       	ldy   0,y
    2860:	27 07       	beq   0x2869 <L58>
    2862:	ec 44       	ldd   4,y
    2864:	c3 ff ff    	addd  #0xffff <.stab+0x7b>
    2867:	6c 44       	std   4,y

0x00002869 <L58>:
    2869:	3d          	rts   

0x0000286a <_zero__13DeltaTaskList>:
    286a:	1b 9f       	des   
    286c:	b7 46       	tfr   d,y

0x0000286e <LBB21>:
    286e:	c7          	clrb  
    286f:	6b 80       	stab  0,sp
    2871:	ed 40       	ldy   0,y
    2873:	27 08       	beq   0x287d <L60>
    2875:	ec 44       	ldd   4,y
    2877:	2e 04       	bgt   0x287d <L60>
    2879:	c6 01       	ldab  #0x1
    287b:	6b 80       	stab  0,sp

0x0000287d <L60>:
    287d:	e6 80       	ldab  0,sp

0x0000287f <LBE21>:
    287f:	1b 81       	ins   
    2881:	3d          	rts   

0x00002882 <__$_13DeltaTaskList>:
    2882:	1b 9e       	leas  -2,sp
    2884:	18 02 84 80 	movw  4,sp,0,sp
    2888:	16 28 d0    	jsr   0x28d0 <__$_8TaskList>
    288b:	1b 82       	leas  2,sp
    288d:	3d          	rts   

0x0000288e <_Restart__Fv>:
    288e:	06 2a c1    	jmp   0x2ac1 <_start>

0x00002891 <LBE2>:
    2891:	3d          	rts   

0x00002892 <_dispatch__4TaskP4Task>:
    2892:	b7 45       	tfr   d,x

0x00002894 <LBB2>:
    2894:	fd 49 9d    	ldy   0x499d <__4Task$current>
    2897:	6f 42       	sts   2,y
    2899:	7e 49 9d    	stx   0x499d <__4Task$current>
    289c:	ef 02       	lds   2,x

0x0000289e <LBE2>:
    289e:	3d          	rts   

0x0000289f <___8TaskListP4Task>:
    289f:	1b 9e       	leas  -2,sp
    28a1:	6c 80       	std   0,sp
    28a3:	cc 3f ca    	ldd   #0x3fca <___vt_8TaskList>
    28a6:	ed 80       	ldy   0,sp
    28a8:	6c 42       	std   2,y
    28aa:	ed 84       	ldy   4,sp
    28ac:	27 17       	beq   0x28c5 <L29>
    28ae:	cc 00 06    	ldd   #0x6 <aa_siz>
    28b1:	16 25 94    	jsr   0x2594 <___builtin_new>
    28b4:	b7 45       	tfr   d,x

0x000028b6 <LBB3>:
    28b6:	18 00 00 00 	movw  #0x0 <*ABS*>,0,x
    28ba:	00 
    28bb:	ec 84       	ldd   4,sp
    28bd:	6c 02       	std   2,x

0x000028bf <LBB4>:
    28bf:	6e f3 00 00 	stx   [0,sp]
    28c3:	20 06       	bra   0x28cb <L33>

0x000028c5 <L29>:
    28c5:	87 c7       	clrd  
    28c7:	6c f3 00 00 	std   [0,sp]

0x000028cb <L33>:
    28cb:	ec 80       	ldd   0,sp
    28cd:	1b 82       	leas  2,sp
    28cf:	3d          	rts   

0x000028d0 <__$_8TaskList>:
    28d0:	b7 46       	tfr   d,y
    28d2:	ec 82       	ldd   2,sp
    28d4:	18 00 42 3f 	movw  #0x3fca <___vt_8TaskList>,2,y
    28d8:	ca 

0x000028d9 <LBB6>:
    28d9:	87          	clra  
    28da:	c4 01       	andb  #0x1
    28dc:	8c 00 00    	tstd  
    28df:	27 05       	beq   0x28e6 <L37>
    28e1:	b7 64       	tfr   y,d
    28e3:	16 25 c2    	jsr   0x25c2 <___builtin_delete>

0x000028e6 <L37>:
    28e6:	3d          	rts   

0x000028e7 <_insert__8TaskListPQ28TaskList4Node>:
    28e7:	b7 46       	tfr   d,y
    28e9:	ee 82       	ldx   2,sp

0x000028eb <LBB7>:
    28eb:	27 15       	beq   0x2902 <L39>

0x000028ed <LBB9>:
    28ed:	ec 40       	ldd   0,y
    28ef:	27 0a       	beq   0x28fb <L43>
    28f1:	b7 46       	tfr   d,y
    28f3:	20 02       	bra   0x28f7 <L47>

0x000028f5 <L44>:
    28f5:	ed 40       	ldy   0,y

0x000028f7 <L47>:
    28f7:	ec 40       	ldd   0,y
    28f9:	26 fa       	bne   0x28f5 <L44>

0x000028fb <L43>:
    28fb:	6e 40       	stx   0,y
    28fd:	18 00 00 00 	movw  #0x0 <*ABS*>,0,x
    2901:	00 

0x00002902 <L39>:
    2902:	3d          	rts   

0x00002903 <_remove__8TaskList>:
    2903:	b7 45       	tfr   d,x

0x00002905 <LBB10>:
    2905:	ed 00       	ldy   0,x
    2907:	18 02 40 00 	movw  0,y,0,x
    290b:	18 00 40 00 	movw  #0x0 <*ABS*>,0,y
    290f:	00 
    2910:	b7 64       	tfr   y,d

0x00002912 <LBE10>:
    2912:	3d          	rts   

0x00002913 <_block__8TaskList>:
    2913:	1b 9a       	leas  -6,sp
    2915:	6c 82       	std   2,sp

0x00002917 <LBB11>:
    2917:	b7 21       	tfr   ccr,b
    2919:	6c 84       	std   4,sp
    291b:	14 10       	sei   

0x0000291d <LBE12>:
    291d:	fc 49 a3    	ldd   0x49a3 <_readyList>
    2920:	16 29 03    	jsr   0x2903 <_remove__8TaskList>
    2923:	ed 82       	ldy   2,sp
    2925:	ee 42       	ldx   2,y
    2927:	6c 80       	std   0,sp
    2929:	b7 64       	tfr   y,d
    292b:	15 e3 00 06 	jsr   [6,x]
    292f:	fe 49 a3    	ldx   0x49a3 <_readyList>
    2932:	ee 00       	ldx   0,x
    2934:	ec 02       	ldd   2,x
    2936:	16 28 92    	jsr   0x2892 <_dispatch__4TaskP4Task>

0x00002939 <LBB14>:
    2939:	ec 84       	ldd   4,sp
    293b:	b7 12       	tfr   b,ccr

0x0000293d <LBE11>:
    293d:	1b 86       	leas  6,sp
    293f:	3d          	rts   

0x00002940 <_unblock__8TaskList>:
    2940:	1b 9c       	leas  -4,sp
    2942:	b7 46       	tfr   d,y

0x00002944 <LBB16>:
    2944:	b7 21       	tfr   ccr,b
    2946:	6c 82       	std   2,sp
    2948:	14 10       	sei   

0x0000294a <LBE17>:
    294a:	b7 64       	tfr   y,d
    294c:	16 29 03    	jsr   0x2903 <_remove__8TaskList>
    294f:	fd 49 a3    	ldy   0x49a3 <_readyList>
    2952:	ed 42       	ldy   2,y
    2954:	6c 80       	std   0,sp
    2956:	fc 49 a3    	ldd   0x49a3 <_readyList>
    2959:	15 eb 00 06 	jsr   [6,y]
    295d:	fd 49 a3    	ldy   0x49a3 <_readyList>
    2960:	ed 40       	ldy   0,y
    2962:	ec 42       	ldd   2,y
    2964:	16 28 92    	jsr   0x2892 <_dispatch__4TaskP4Task>

0x00002967 <LBB19>:
    2967:	ec 82       	ldd   2,sp
    2969:	b7 12       	tfr   b,ccr

0x0000296b <LBE16>:
    296b:	1b 84       	leas  4,sp
    296d:	3d          	rts   

0x0000296e <_getCurrent__8TaskList>:
    296e:	1b 9e       	leas  -2,sp

0x00002970 <LBB21>:
    2970:	b7 21       	tfr   ccr,b
    2972:	6c 80       	std   0,sp
    2974:	14 10       	sei   

0x00002976 <LBE22>:
    2976:	fd 49 a3    	ldy   0x49a3 <_readyList>
    2979:	ed 40       	ldy   0,y
    297b:	ed 42       	ldy   2,y

0x0000297d <LBB24>:
    297d:	ec 80       	ldd   0,sp
    297f:	b7 12       	tfr   b,ccr

0x00002981 <LBE24>:
    2981:	b7 64       	tfr   y,d

0x00002983 <LBE21>:
    2983:	1b 82       	leas  2,sp
    2985:	3d          	rts   

0x00002986 <_yield__4Task>:
    2986:	fc 49 a3    	ldd   0x49a3 <_readyList>
    2989:	16 29 13    	jsr   0x2913 <_block__8TaskList>

0x0000298c <LBE27>:
    298c:	3d          	rts   

0x0000298d <_main__4Task>:
    298d:	3d          	rts   

0x0000298e <_start__4Task>:
    298e:	1b 96       	leas  -10,sp

0x00002990 <LBB29>:
    2990:	10 ef       	cli   
    2992:	fe 49 9d    	ldx   0x499d <__4Task$current>
    2995:	ed 06       	ldy   6,x
    2997:	b7 54       	tfr   x,d
    2999:	15 eb 00 06 	jsr   [6,y]
    299d:	19 86       	leay  6,sp
    299f:	6d 84       	sty   4,sp
    29a1:	18 00 80 00 	movw  #0x0 <*ABS*>,0,sp
    29a5:	00 
    29a6:	b7 64       	tfr   y,d
    29a8:	16 28 9f    	jsr   0x289f <___8TaskListP4Task>
    29ab:	ec 84       	ldd   4,sp
    29ad:	16 29 13    	jsr   0x2913 <_block__8TaskList>
    29b0:	18 00 80 00 	movw  #0x2 <err_under>,0,sp
    29b4:	02 
    29b5:	ec 84       	ldd   4,sp
    29b7:	16 28 d0    	jsr   0x28d0 <__$_8TaskList>

0x000029ba <LBE29>:
    29ba:	1b 8a       	leas  10,sp
    29bc:	3d          	rts   

0x000029bd <___4TaskUiUi>:
    29bd:	1b 9c       	leas  -4,sp
    29bf:	6c 82       	std   2,sp
    29c1:	cc 3f d2    	ldd   #0x3fd2 <___vt_4Task>
    29c4:	ed 82       	ldy   2,sp
    29c6:	6c 46       	std   6,y
    29c8:	ec 86       	ldd   6,sp
    29ca:	c4 fe       	andb  #0xfe
    29cc:	6c 80       	std   0,sp
    29ce:	16 25 ab    	jsr   0x25ab <___builtin_vec_new>
    29d1:	b7 45       	tfr   d,x
    29d3:	6e f3 00 02 	stx   [2,sp]
    29d7:	ec 80       	ldd   0,sp
    29d9:	1a e6       	leax  d,x
    29db:	ed 82       	ldy   2,sp
    29dd:	6e 42       	stx   2,y
    29df:	ec 88       	ldd   8,sp
    29e1:	6c 44       	std   4,y

0x000029e3 <LBB30>:
    29e3:	ed 86       	ldy   6,sp
    29e5:	27 2f       	beq   0x2a16 <L75>
    29e7:	ed 82       	ldy   2,sp
    29e9:	ec 42       	ldd   2,y
    29eb:	b7 46       	tfr   d,y
    29ed:	1a 5e       	leax  -2,y
    29ef:	ed 82       	ldy   2,sp
    29f1:	6e 42       	stx   2,y
    29f3:	18 00 00 00 	movw  #0x0 <*ABS*>,0,x
    29f7:	00 
    29f8:	ec 42       	ldd   2,y
    29fa:	b7 46       	tfr   d,y
    29fc:	1a 5e       	leax  -2,y
    29fe:	ed 82       	ldy   2,sp
    2a00:	6e 42       	stx   2,y
    2a02:	18 00 00 00 	movw  #0x0 <*ABS*>,0,x
    2a06:	00 
    2a07:	ec 42       	ldd   2,y
    2a09:	b7 46       	tfr   d,y
    2a0b:	1a 5e       	leax  -2,y
    2a0d:	ed 82       	ldy   2,sp
    2a0f:	6e 42       	stx   2,y
    2a11:	18 00 00 29 	movw  #0x298e <_start__4Task>,0,x
    2a15:	8e 

0x00002a16 <L75>:
    2a16:	ec 82       	ldd   2,sp
    2a18:	1b 84       	leas  4,sp
    2a1a:	3d          	rts   

0x00002a1b <__$_4Task>:
    2a1b:	1b 9e       	leas  -2,sp
    2a1d:	6c 80       	std   0,sp
    2a1f:	cc 3f d2    	ldd   #0x3fd2 <___vt_4Task>
    2a22:	ed 80       	ldy   0,sp
    2a24:	6c 46       	std   6,y

0x00002a26 <LBB31>:
    2a26:	ee f3 00 00 	ldx   [0,sp]
    2a2a:	b7 54       	tfr   x,d
    2a2c:	16 25 c2    	jsr   0x25c2 <___builtin_delete>

0x00002a2f <LBE31>:
    2a2f:	ec 84       	ldd   4,sp
    2a31:	87          	clra  
    2a32:	c4 01       	andb  #0x1
    2a34:	b7 45       	tfr   d,x
    2a36:	8e 00 00    	tstx  
    2a39:	27 05       	beq   0x2a40 <L79>
    2a3b:	ec 80       	ldd   0,sp
    2a3d:	16 25 c2    	jsr   0x25c2 <___builtin_delete>

0x00002a40 <L79>:
    2a40:	1b 82       	leas  2,sp
    2a42:	3d          	rts   

0x00002a43 <_fork__4Task>:
    2a43:	1b 98       	leas  -8,sp

0x00002a45 <LBB32>:
    2a45:	19 84       	leay  4,sp
    2a47:	6d 82       	sty   2,sp
    2a49:	6c 80       	std   0,sp
    2a4b:	b7 64       	tfr   y,d
    2a4d:	16 28 9f    	jsr   0x289f <___8TaskListP4Task>
    2a50:	ec 82       	ldd   2,sp
    2a52:	16 29 40    	jsr   0x2940 <_unblock__8TaskList>
    2a55:	18 00 80 00 	movw  #0x2 <err_under>,0,sp
    2a59:	02 
    2a5a:	ec 82       	ldd   2,sp
    2a5c:	16 28 d0    	jsr   0x28d0 <__$_8TaskList>

0x00002a5f <LBE32>:
    2a5f:	1b 88       	leas  8,sp
    2a61:	3d          	rts   

0x00002a62 <__GLOBAL_$D$initialTask>:
    2a62:	1b 9e       	leas  -2,sp

0x00002a64 <LBB33>:
    2a64:	18 00 80 00 	movw  #0x2 <err_under>,0,sp
    2a68:	02 
    2a69:	cc 49 9f    	ldd   #0x499f <__readyList>
    2a6c:	16 28 d0    	jsr   0x28d0 <__$_8TaskList>

0x00002a6f <LBE34>:
    2a6f:	18 00 80 00 	movw  #0x2 <err_under>,0,sp
    2a73:	02 
    2a74:	cc 49 95    	ldd   #0x4995 <_initialTask>
    2a77:	16 2a 1b    	jsr   0x2a1b <__$_4Task>

0x00002a7a <LBE33>:
    2a7a:	1b 82       	leas  2,sp
    2a7c:	3d          	rts   

0x00002a7d <__GLOBAL_$I$initialTask>:
    2a7d:	1b 9c       	leas  -4,sp

0x00002a7f <LBB35>:
    2a7f:	18 00 80 00 	movw  #0x0 <*ABS*>,0,sp
    2a83:	00 
    2a84:	18 00 82 00 	movw  #0x6 <aa_siz>,2,sp
    2a88:	06 
    2a89:	cc 49 95    	ldd   #0x4995 <_initialTask>
    2a8c:	16 29 bd    	jsr   0x29bd <___4TaskUiUi>

0x00002a8f <LBB36>:
    2a8f:	18 00 80 49 	movw  #0x4995 <_initialTask>,0,sp
    2a93:	95 
    2a94:	cc 49 9f    	ldd   #0x499f <__readyList>
    2a97:	16 28 9f    	jsr   0x289f <___8TaskListP4Task>
    2a9a:	18 03 3e 8d 	movw  #0x3e8d <___vt_16PriorityTaskList>,0x49a1 <__readyList+0x2>
    2a9e:	49 a1 

0x00002aa0 <LBB37>:
    2aa0:	18 03 49 9f 	movw  #0x499f <__readyList>,0x49a3 <_readyList>
    2aa4:	49 a3 

0x00002aa6 <LBE35>:
    2aa6:	1b 84       	leas  4,sp
    2aa8:	3d          	rts   

0x00002aa9 <_lowerPriorityThan__C4TaskPC4Task>:
    2aa9:	1b 9f       	des   
    2aab:	b7 45       	tfr   d,x
    2aad:	ed 83       	ldy   3,sp

0x00002aaf <LBB38>:
    2aaf:	c7          	clrb  
    2ab0:	6b 80       	stab  0,sp
    2ab2:	ee 04       	ldx   4,x
    2ab4:	ae 44       	cpx   4,y
    2ab6:	23 04       	bls   0x2abc <L2>
    2ab8:	c6 01       	ldab  #0x1
    2aba:	6b 80       	stab  0,sp

0x00002abc <L2>:
    2abc:	e6 80       	ldab  0,sp

0x00002abe <LBE38>:
    2abe:	1b 81       	ins   
    2ac0:	3d          	rts   

0x00002ac1 <_start>:
    2ac1:	cf 80 00    	lds   #0x8000 <_stack_top>
    2ac4:	18 00 ae 00 	movw  #0x0 <*ABS*>,2,-sp
    2ac8:	00 
    2ac9:	18 00 ae 00 	movw  #0x0 <*ABS*>,2,-sp
    2acd:	00 
    2ace:	b7 75       	tsx   
    2ad0:	06 10 00    	jmp   0x1000 <_crt1__Fv>

0x00002ad3 <Ltext0>:
    2ad3:	b7 45       	tfr   d,x

0x00002ad5 <LBB2>:
    2ad5:	18 02 82 08 	movw  2,sp,8,x

0x00002ad9 <LBE2>:
    2ad9:	3d          	rts   

0x00002ada <_setw__Fi>:
    2ada:	b7 46       	tfr   d,y

0x00002adc <LBB5>:
    2adc:	18 00 40 2a 	movw  #0x2ad3 <Ltext0>,0,y
    2ae0:	d3 
    2ae1:	18 02 82 42 	movw  2,sp,2,y

0x00002ae5 <LBB7>:
    2ae5:	3d          	rts   

0x00002ae6 <___rs__7istreamPc>:
    2ae6:	1b 97       	leas  -9,sp
    2ae8:	6c 87       	std   7,sp

0x00002aea <LBB2>:
    2aea:	18 00 80 00 	movw  #0x0 <*ABS*>,0,sp
    2aee:	00 
    2aef:	16 34 21    	jsr   0x3421 <_ipfx__7istreami>
    2af2:	8c 00 00    	tstd  
    2af5:	18 27 00 97 	lbeq  0x2b90 <L136>
    2af9:	ce 00 00    	clrx  

0x00002afc <LBB4>:
    2afc:	ed 87       	ldy   7,sp
    2afe:	27 04       	beq   0x2b04 <L138>
    2b00:	ee f3 00 07 	ldx   [7,sp]

0x00002b04 <L138>:
    2b04:	ee 00       	ldx   0,x

0x00002b06 <LBE5>:
    2b06:	b7 54       	tfr   x,d
    2b08:	16 35 31    	jsr   0x3531 <_sgetc__9streambuf>
    2b0b:	6c 85       	std   5,sp

0x00002b0d <LBB7>:
    2b0d:	8c ff ff    	cpd   #0xffff <.stab+0x7b>
    2b10:	26 11       	bne   0x2b23 <L141>
    2b12:	ce 00 00    	clrx  

0x00002b15 <LBB8>:
    2b15:	ed 87       	ldy   7,sp
    2b17:	27 04       	beq   0x2b1d <L143>
    2b19:	ee f3 00 07 	ldx   [7,sp]

0x00002b1d <L143>:
    2b1d:	ec 04       	ldd   4,x
    2b1f:	ca 02       	orab  #0x2
    2b21:	6c 04       	std   4,x

0x00002b23 <L141>:
    2b23:	ce 00 00    	clrx  

0x00002b26 <LBE7>:
    2b26:	ed 87       	ldy   7,sp
    2b28:	27 04       	beq   0x2b2e <L147>
    2b2a:	ee f3 00 07 	ldx   [7,sp]

0x00002b2e <L147>:
    2b2e:	ec 08       	ldd   8,x
    2b30:	18 00 08 00 	movw  #0x0 <*ABS*>,8,x
    2b34:	00 
    2b35:	6c 83       	std   3,sp

0x00002b37 <L149>:
    2b37:	c7          	clrb  
    2b38:	6b 82       	stab  2,sp
    2b3a:	ec 83       	ldd   3,sp
    2b3c:	c3 ff ff    	addd  #0xffff <.stab+0x7b>
    2b3f:	6c 83       	std   3,sp
    2b41:	27 0e       	beq   0x2b51 <L153>
    2b43:	ec 85       	ldd   5,sp
    2b45:	16 35 49    	jsr   0x3549 <_isspace__Fi>
    2b48:	8c 00 00    	tstd  
    2b4b:	26 04       	bne   0x2b51 <L153>
    2b4d:	c6 01       	ldab  #0x1
    2b4f:	6b 82       	stab  2,sp

0x00002b51 <L153>:
    2b51:	e7 82       	tst   2,sp
    2b53:	27 23       	beq   0x2b78 <L150>
    2b55:	ed 85       	ldy   5,sp
    2b57:	8d ff ff    	cpy   #0xffff <.stab+0x7b>
    2b5a:	27 23       	beq   0x2b7f <L163>
    2b5c:	ed 8b       	ldy   11,sp
    2b5e:	e6 86       	ldab  6,sp
    2b60:	6b 70       	stab  1,y+
    2b62:	6d 8b       	sty   11,sp
    2b64:	ce 00 00    	clrx  
    2b67:	ed 87       	ldy   7,sp
    2b69:	27 04       	beq   0x2b6f <L155>
    2b6b:	ee f3 00 07 	ldx   [7,sp]

0x00002b6f <L155>:
    2b6f:	ec 00       	ldd   0,x

0x00002b71 <LBE14>:
    2b71:	16 35 60    	jsr   0x3560 <_snextc__9streambuf>
    2b74:	6c 85       	std   5,sp

0x00002b76 <LBE13>:
    2b76:	20 bf       	bra   0x2b37 <L149>

0x00002b78 <L150>:
    2b78:	ec 85       	ldd   5,sp
    2b7a:	8c ff ff    	cpd   #0xffff <.stab+0x7b>
    2b7d:	26 11       	bne   0x2b90 <L136>

0x00002b7f <L163>:
    2b7f:	ce 00 00    	clrx  

0x00002b82 <LBB17>:
    2b82:	ed 87       	ldy   7,sp
    2b84:	27 04       	beq   0x2b8a <L160>
    2b86:	ee f3 00 07 	ldx   [7,sp]

0x00002b8a <L160>:
    2b8a:	ec 04       	ldd   4,x
    2b8c:	ca 01       	orab  #0x1
    2b8e:	6c 04       	std   4,x

0x00002b90 <L136>:
    2b90:	c7          	clrb  
    2b91:	6b f3 00 0b 	stab  [11,sp]
    2b95:	ec 87       	ldd   7,sp

0x00002b97 <LBE2>:
    2b97:	1b 89       	leas  9,sp
    2b99:	3d          	rts   

0x00002b9a <_strcmp__FPCcT0>:
    2b9a:	b7 46       	tfr   d,y
    2b9c:	ee 82       	ldx   2,sp

0x00002b9e <LBB2>:
    2b9e:	e7 40       	tst   0,y
    2ba0:	27 0b       	beq   0x2bad <L3>

0x00002ba2 <L6>:
    2ba2:	e6 40       	ldab  0,y
    2ba4:	e1 00       	cmpb  0,x
    2ba6:	26 05       	bne   0x2bad <L3>
    2ba8:	08          	inx   
    2ba9:	e7 60       	tst   1,+y
    2bab:	26 f5       	bne   0x2ba2 <L6>

0x00002bad <L3>:
    2bad:	e6 40       	ldab  0,y
    2baf:	87          	clra  
    2bb0:	b7 46       	tfr   d,y
    2bb2:	e6 00       	ldab  0,x
    2bb4:	87          	clra  
    2bb5:	b7 45       	tfr   d,x
    2bb7:	b7 64       	tfr   y,d
    2bb9:	34          	pshx  
    2bba:	a3 b1       	subd  2,sp+
    2bbc:	b7 46       	tfr   d,y

0x00002bbe <LBE2>:
    2bbe:	3d          	rts   

0x00002bbf <___7istreamiP9streambuf>:
    2bbf:	1b 9c       	leas  -4,sp
    2bc1:	6c 82       	std   2,sp
    2bc3:	ec 86       	ldd   6,sp
    2bc5:	ee 88       	ldx   8,sp
    2bc7:	8c 00 00    	tstd  
    2bca:	27 0e       	beq   0x2bda <L136>
    2bcc:	ec 82       	ldd   2,sp
    2bce:	c3 00 04    	addd  #0x4 <eot>
    2bd1:	6c f3 00 02 	std   [2,sp]
    2bd5:	6e 80       	stx   0,sp
    2bd7:	16 35 91    	jsr   0x3591 <___3iosP9streambuf>

0x00002bda <L136>:
    2bda:	ed f3 00 02 	ldy   [2,sp]
    2bde:	18 00 4e 3f 	movw  #0x3fe6 <___vt_7istream$3ios>,14,y
    2be2:	e6 

0x00002be3 <LBB2>:
    2be3:	ec 82       	ldd   2,sp
    2be5:	1b 84       	leas  4,sp
    2be7:	3d          	rts   

0x00002be8 <___7ostreamiP9streambuf>:
    2be8:	1b 9c       	leas  -4,sp
    2bea:	6c 82       	std   2,sp
    2bec:	ec 86       	ldd   6,sp
    2bee:	ee 88       	ldx   8,sp
    2bf0:	8c 00 00    	tstd  
    2bf3:	27 0e       	beq   0x2c03 <L136>
    2bf5:	ec 82       	ldd   2,sp
    2bf7:	c3 00 02    	addd  #0x2 <err_under>
    2bfa:	6c f3 00 02 	std   [2,sp]
    2bfe:	6e 80       	stx   0,sp
    2c00:	16 35 91    	jsr   0x3591 <___3iosP9streambuf>

0x00002c03 <L136>:
    2c03:	ed f3 00 02 	ldy   [2,sp]
    2c07:	18 00 4e 3f 	movw  #0x3fe0 <___vt_7ostream$3ios>,14,y
    2c0b:	e0 

0x00002c0c <LBB2>:
    2c0c:	ec 82       	ldd   2,sp
    2c0e:	1b 84       	leas  4,sp
    2c10:	3d          	rts   

0x00002c11 <_endl__FR7ostream>:
    2c11:	1b 9c       	leas  -4,sp
    2c13:	6c 82       	std   2,sp

0x00002c15 <LBB2>:
    2c15:	18 00 80 00 	movw  #0xa <lf>,0,sp
    2c19:	0a 
    2c1a:	16 2c ba    	jsr   0x2cba <_put__7ostreamc>
    2c1d:	ec 82       	ldd   2,sp
    2c1f:	16 2d 09    	jsr   0x2d09 <_flush__7ostream>
    2c22:	ec 82       	ldd   2,sp

0x00002c24 <LBE2>:
    2c24:	1b 84       	leas  4,sp
    2c26:	3d          	rts   

0x00002c27 <___ls__7ostreamPCc>:
    2c27:	1b 9a       	leas  -6,sp
    2c29:	6c 84       	std   4,sp

0x00002c2b <LBB2>:
    2c2b:	16 35 af    	jsr   0x35af <_opfx__7ostream>
    2c2e:	8c 00 00    	tstd  
    2c31:	27 13       	beq   0x2c46 <L136>
    2c33:	ed 88       	ldy   8,sp
    2c35:	6d 80       	sty   0,sp
    2c37:	18 00 82 00 	movw  #0x0 <*ABS*>,2,sp
    2c3b:	00 
    2c3c:	ec 84       	ldd   4,sp
    2c3e:	16 36 04    	jsr   0x3604 <_puts__7ostreamPCcT1>
    2c41:	ec 84       	ldd   4,sp
    2c43:	16 37 f7    	jsr   0x37f7 <_osfx__7ostream>

0x00002c46 <L136>:
    2c46:	ec 84       	ldd   4,sp

0x00002c48 <LBE2>:
    2c48:	1b 86       	leas  6,sp
    2c4a:	3d          	rts   

0x00002c4b <_flush__FR7ostream>:
    2c4b:	1b 9e       	leas  -2,sp
    2c4d:	6c 80       	std   0,sp

0x00002c4f <LBB2>:
    2c4f:	16 2d 09    	jsr   0x2d09 <_flush__7ostream>
    2c52:	ec 80       	ldd   0,sp

0x00002c54 <LBE2>:
    2c54:	1b 82       	leas  2,sp
    2c56:	3d          	rts   

0x00002c57 <_get__7istream>:
    2c57:	1b 9a       	leas  -6,sp
    2c59:	6c 84       	std   4,sp

0x00002c5b <LBB2>:
    2c5b:	18 00 80 00 	movw  #0x1 <err_over>,0,sp
    2c5f:	01 
    2c60:	16 34 21    	jsr   0x3421 <_ipfx__7istreami>
    2c63:	8c 00 00    	tstd  
    2c66:	27 3b       	beq   0x2ca3 <L136>
    2c68:	ce 00 00    	clrx  

0x00002c6b <LBB4>:
    2c6b:	ed 84       	ldy   4,sp
    2c6d:	27 04       	beq   0x2c73 <L138>
    2c6f:	ee f3 00 04 	ldx   [4,sp]

0x00002c73 <L138>:
    2c73:	ec 00       	ldd   0,x

0x00002c75 <LBE5>:
    2c75:	16 38 43    	jsr   0x3843 <_sbumpc__9streambuf>
    2c78:	b7 45       	tfr   d,x

0x00002c7a <LBB7>:
    2c7a:	8e ff ff    	cpx   #0xffff <.stab+0x7b>
    2c7d:	27 09       	beq   0x2c88 <L141>
    2c7f:	cc 00 01    	ldd   #0x1 <err_over>
    2c82:	ed 84       	ldy   4,sp
    2c84:	6c 42       	std   2,y
    2c86:	20 17       	bra   0x2c9f <L142>

0x00002c88 <L141>:
    2c88:	cd 00 00    	clry  
    2c8b:	6d 82       	sty   2,sp

0x00002c8d <LBB8>:
    2c8d:	ed 84       	ldy   4,sp
    2c8f:	27 06       	beq   0x2c97 <L144>
    2c91:	ed f3 00 04 	ldy   [4,sp]
    2c95:	6d 82       	sty   2,sp

0x00002c97 <L144>:
    2c97:	ed 82       	ldy   2,sp
    2c99:	ec 44       	ldd   4,y
    2c9b:	ca 01       	orab  #0x1
    2c9d:	6c 44       	std   4,y

0x00002c9f <L142>:
    2c9f:	b7 54       	tfr   x,d
    2ca1:	20 03       	bra   0x2ca6 <L147>

0x00002ca3 <L136>:
    2ca3:	cc ff ff    	ldd   #0xffff <.stab+0x7b>

0x00002ca6 <L147>:
    2ca6:	1b 86       	leas  6,sp
    2ca8:	3d          	rts   

0x00002ca9 <_isprint__Fi>:
    2ca9:	cd 00 00    	clry  
    2cac:	c3 ff e0    	addd  #0xffe0 <.stab+0x5c>
    2caf:	8c 00 5e    	cpd   #0x5e <_rsvd58+0x6>
    2cb2:	22 03       	bhi   0x2cb7 <L2>
    2cb4:	cd 00 01    	ldy   #0x1 <err_over>

0x00002cb7 <L2>:
    2cb7:	b7 64       	tfr   y,d

0x00002cb9 <LBE2>:
    2cb9:	3d          	rts   

0x00002cba <_put__7ostreamc>:
    2cba:	1b 9b       	leas  -5,sp
    2cbc:	6c 83       	std   3,sp
    2cbe:	e6 88       	ldab  8,sp
    2cc0:	6b 82       	stab  2,sp
    2cc2:	ce 00 00    	clrx  

0x00002cc5 <LBB2>:
    2cc5:	ed 83       	ldy   3,sp
    2cc7:	27 04       	beq   0x2ccd <L138>
    2cc9:	ee f3 00 03 	ldx   [3,sp]

0x00002ccd <L138>:
    2ccd:	ec 04       	ldd   4,x
    2ccf:	87          	clra  
    2cd0:	c4 06       	andb  #0x6

0x00002cd2 <LBE4>:
    2cd2:	8c 00 00    	tstd  
    2cd5:	26 2d       	bne   0x2d04 <L136>
    2cd7:	ce 00 00    	clrx  

0x00002cda <LBB6>:
    2cda:	ed 83       	ldy   3,sp
    2cdc:	27 04       	beq   0x2ce2 <L143>
    2cde:	ee f3 00 03 	ldx   [3,sp]

0x00002ce2 <L143>:
    2ce2:	ed 00       	ldy   0,x

0x00002ce4 <LBE8>:
    2ce4:	e6 82       	ldab  2,sp
    2ce6:	87          	clra  
    2ce7:	6c 80       	std   0,sp
    2ce9:	b7 64       	tfr   y,d
    2ceb:	16 32 da    	jsr   0x32da <_sputc__9streambufi>
    2cee:	8c ff ff    	cpd   #0xffff <.stab+0x7b>
    2cf1:	26 11       	bne   0x2d04 <L136>
    2cf3:	ce 00 00    	clrx  

0x00002cf6 <LBB10>:
    2cf6:	ed 83       	ldy   3,sp
    2cf8:	27 04       	beq   0x2cfe <L147>
    2cfa:	ee f3 00 03 	ldx   [3,sp]

0x00002cfe <L147>:
    2cfe:	ec 04       	ldd   4,x
    2d00:	ca 04       	orab  #0x4
    2d02:	6c 04       	std   4,x

0x00002d04 <L136>:
    2d04:	ec 83       	ldd   3,sp

0x00002d06 <LBE2>:
    2d06:	1b 85       	leas  5,sp
    2d08:	3d          	rts   

0x00002d09 <_flush__7ostream>:
    2d09:	1b 9e       	leas  -2,sp
    2d0b:	6c 80       	std   0,sp
    2d0d:	ce 00 00    	clrx  

0x00002d10 <LBB2>:
    2d10:	b7 46       	tfr   d,y
    2d12:	8d 00 00    	tsty  
    2d15:	27 04       	beq   0x2d1b <L138>
    2d17:	ee f3 00 00 	ldx   [0,sp]

0x00002d1b <L138>:
    2d1b:	ee 00       	ldx   0,x

0x00002d1d <LBE4>:
    2d1d:	ed e0 12    	ldy   18,x
    2d20:	b7 54       	tfr   x,d
    2d22:	15 eb 00 0c 	jsr   [12,y]
    2d26:	8c ff ff    	cpd   #0xffff <.stab+0x7b>
    2d29:	26 11       	bne   0x2d3c <L136>
    2d2b:	ce 00 00    	clrx  

0x00002d2e <LBB6>:
    2d2e:	ed 80       	ldy   0,sp
    2d30:	27 04       	beq   0x2d36 <L142>
    2d32:	ee f3 00 00 	ldx   [0,sp]

0x00002d36 <L142>:
    2d36:	ec 04       	ldd   4,x
    2d38:	ca 04       	orab  #0x4
    2d3a:	6c 04       	std   4,x

0x00002d3c <L136>:
    2d3c:	ec 80       	ldd   0,sp

0x00002d3e <LBE2>:
    2d3e:	1b 82       	leas  2,sp
    2d40:	3d          	rts   

0x00002d41 <___10istrstreamiPc>:
    2d41:	1b 96       	leas  -10,sp
    2d43:	6c 88       	std   8,sp
    2d45:	ec 8c       	ldd   12,sp
    2d47:	27 12       	beq   0x2d5b <L162>
    2d49:	ed 88       	ldy   8,sp
    2d4b:	1a e8 1a    	leax  26,y
    2d4e:	6e e8 16    	stx   22,y
    2d51:	6e f3 00 08 	stx   [8,sp]
    2d55:	ec e8 16    	ldd   22,y
    2d58:	16 38 71    	jsr   0x3871 <___3ios>

0x00002d5b <L162>:
    2d5b:	18 00 80 00 	movw  #0x0 <*ABS*>,0,sp
    2d5f:	00 
    2d60:	ed 8e       	ldy   14,sp
    2d62:	6d 82       	sty   2,sp
    2d64:	18 00 84 00 	movw  #0x0 <*ABS*>,4,sp
    2d68:	00 
    2d69:	18 00 86 00 	movw  #0x0 <*ABS*>,6,sp
    2d6d:	00 
    2d6e:	ec 88       	ldd   8,sp
    2d70:	16 38 90    	jsr   0x3890 <___13strstreambaseiPciT2>

0x00002d73 <LBB2>:
    2d73:	ec 88       	ldd   8,sp
    2d75:	c3 00 02    	addd  #0x2 <err_under>

0x00002d78 <LBE2>:
    2d78:	ed 88       	ldy   8,sp
    2d7a:	1a e8 16    	leax  22,y
    2d7d:	18 00 80 00 	movw  #0x0 <*ABS*>,0,sp
    2d81:	00 
    2d82:	6c 82       	std   2,sp
    2d84:	b7 54       	tfr   x,d
    2d86:	16 2b bf    	jsr   0x2bbf <___7istreamiP9streambuf>
    2d89:	ee f3 00 08 	ldx   [8,sp]
    2d8d:	18 00 0e 3f 	movw  #0x3fda <___vt_10istrstream$3ios>,14,x
    2d91:	da 

0x00002d92 <LBB4>:
    2d92:	ec 88       	ldd   8,sp
    2d94:	1b 8a       	leas  10,sp
    2d96:	3d          	rts   

0x00002d97 <__$_10istrstream>:
    2d97:	1b 9c       	leas  -4,sp
    2d99:	6c 82       	std   2,sp
    2d9b:	ee f3 00 02 	ldx   [2,sp]
    2d9f:	18 00 0e 3f 	movw  #0x3fda <___vt_10istrstream$3ios>,14,x
    2da3:	da 

0x00002da4 <LBB2>:
    2da4:	b7 46       	tfr   d,y
    2da6:	1a e8 16    	leax  22,y
    2da9:	18 00 80 00 	movw  #0x0 <*ABS*>,0,sp
    2dad:	00 
    2dae:	b7 54       	tfr   x,d
    2db0:	16 2e 29    	jsr   0x2e29 <__$_7istream>
    2db3:	18 00 80 00 	movw  #0x0 <*ABS*>,0,sp
    2db7:	00 
    2db8:	ec 82       	ldd   2,sp
    2dba:	16 38 e1    	jsr   0x38e1 <__$_13strstreambase>
    2dbd:	ec 86       	ldd   6,sp
    2dbf:	87          	clra  
    2dc0:	c4 02       	andb  #0x2
    2dc2:	8c 00 00    	tstd  
    2dc5:	27 0c       	beq   0x2dd3 <L163>
    2dc7:	ec f3 00 02 	ldd   [2,sp]
    2dcb:	18 00 80 00 	movw  #0x0 <*ABS*>,0,sp
    2dcf:	00 
    2dd0:	16 39 27    	jsr   0x3927 <__$_3ios>

0x00002dd3 <L163>:
    2dd3:	ec 86       	ldd   6,sp
    2dd5:	87          	clra  
    2dd6:	c4 01       	andb  #0x1
    2dd8:	8c 00 00    	tstd  
    2ddb:	27 05       	beq   0x2de2 <L164>
    2ddd:	ec 82       	ldd   2,sp
    2ddf:	16 25 c2    	jsr   0x25c2 <___builtin_delete>

0x00002de2 <L164>:
    2de2:	1b 84       	leas  4,sp
    2de4:	3d          	rts   

0x00002de5 <Lscope0>:
    2de5:	c3 ff e6    	addd  #0xffe6 <.stab+0x62>
    2de8:	06 2d 97    	jmp   0x2d97 <__$_10istrstream>

0x00002deb <__$_7ostream>:
    2deb:	1b 9c       	leas  -4,sp
    2ded:	6c 82       	std   2,sp
    2def:	ee f3 00 02 	ldx   [2,sp]
    2df3:	18 00 0e 3f 	movw  #0x3fe0 <___vt_7ostream$3ios>,14,x
    2df7:	e0 

0x00002df8 <LBB2>:
    2df8:	16 2d 09    	jsr   0x2d09 <_flush__7ostream>

0x00002dfb <LBE2>:
    2dfb:	ec 86       	ldd   6,sp
    2dfd:	87          	clra  
    2dfe:	c4 02       	andb  #0x2
    2e00:	8c 00 00    	tstd  
    2e03:	27 0c       	beq   0x2e11 <L137>
    2e05:	ec f3 00 02 	ldd   [2,sp]
    2e09:	18 00 80 00 	movw  #0x0 <*ABS*>,0,sp
    2e0d:	00 
    2e0e:	16 39 27    	jsr   0x3927 <__$_3ios>

0x00002e11 <L137>:
    2e11:	ec 86       	ldd   6,sp
    2e13:	87          	clra  
    2e14:	c4 01       	andb  #0x1
    2e16:	8c 00 00    	tstd  
    2e19:	27 05       	beq   0x2e20 <L138>
    2e1b:	ec 82       	ldd   2,sp
    2e1d:	16 25 c2    	jsr   0x25c2 <___builtin_delete>

0x00002e20 <L138>:
    2e20:	1b 84       	leas  4,sp
    2e22:	3d          	rts   

0x00002e23 <Lscope0>:
    2e23:	c3 ff fe    	addd  #0xfffe <.stab+0x7a>
    2e26:	06 2d eb    	jmp   0x2deb <__$_7ostream>

0x00002e29 <__$_7istream>:
    2e29:	1b 9c       	leas  -4,sp
    2e2b:	6c 82       	std   2,sp
    2e2d:	ee f3 00 02 	ldx   [2,sp]
    2e31:	18 00 0e 3f 	movw  #0x3fe6 <___vt_7istream$3ios>,14,x
    2e35:	e6 

0x00002e36 <LBB2>:
    2e36:	ec 86       	ldd   6,sp
    2e38:	87          	clra  
    2e39:	c4 02       	andb  #0x2
    2e3b:	8c 00 00    	tstd  
    2e3e:	27 0c       	beq   0x2e4c <L137>
    2e40:	ec f3 00 02 	ldd   [2,sp]
    2e44:	18 00 80 00 	movw  #0x0 <*ABS*>,0,sp
    2e48:	00 
    2e49:	16 39 27    	jsr   0x3927 <__$_3ios>

0x00002e4c <L137>:
    2e4c:	ec 86       	ldd   6,sp
    2e4e:	87          	clra  
    2e4f:	c4 01       	andb  #0x1
    2e51:	8c 00 00    	tstd  
    2e54:	27 05       	beq   0x2e5b <L138>
    2e56:	ec 82       	ldd   2,sp
    2e58:	16 25 c2    	jsr   0x25c2 <___builtin_delete>

0x00002e5b <L138>:
    2e5b:	1b 84       	leas  4,sp
    2e5d:	3d          	rts   

0x00002e5e <Lscope0>:
    2e5e:	c3 ff fc    	addd  #0xfffc <.stab+0x78>
    2e61:	06 2e 29    	jmp   0x2e29 <__$_7istream>

0x00002e64 <___ls__7ostreamf>:
    2e64:	1b f1 86    	leas  -122,sp
    2e67:	6c f0 2a    	std   42,sp
    2e6a:	ec f0 7c    	ldd   124,sp
    2e6d:	6c f0 26    	std   38,sp
    2e70:	ed f0 7e    	ldy   126,sp
    2e73:	6d f0 28    	sty   40,sp

0x00002e76 <LBB2>:
    2e76:	ec f0 2a    	ldd   42,sp
    2e79:	16 35 af    	jsr   0x35af <_opfx__7ostream>
    2e7c:	b7 45       	tfr   d,x
    2e7e:	8e 00 00    	tstx  
    2e81:	18 27 01 4f 	lbeq  0x2fd4 <L136>

0x00002e85 <LBB4>:
    2e85:	19 f0 2c    	leay  44,sp
    2e88:	6d f0 24    	sty   36,sp
    2e8b:	ce 00 00    	clrx  
    2e8e:	ed f0 2a    	ldy   42,sp
    2e91:	27 04       	beq   0x2e97 <L138>
    2e93:	ee f3 00 2a 	ldx   [42,sp]

0x00002e97 <L138>:
    2e97:	ec 0a       	ldd   10,x
    2e99:	6c f0 22    	std   34,sp

0x00002e9c <LBE5>:
    2e9c:	2c 05       	bge   0x2ea3 <L140>
    2e9e:	87 c7       	clrd  
    2ea0:	6c f0 22    	std   34,sp

0x00002ea3 <L140>:
    2ea3:	ed f0 22    	ldy   34,sp
    2ea6:	8d 00 27    	cpy   #0x27 <_rsvd26+0x1>
    2ea9:	2f 06       	ble   0x2eb1 <L141>
    2eab:	cc 00 27    	ldd   #0x27 <_rsvd26+0x1>
    2eae:	6c f0 22    	std   34,sp

0x00002eb1 <L141>:
    2eb1:	ce 00 00    	clrx  
    2eb4:	ed f0 22    	ldy   34,sp
    2eb7:	26 1b       	bne   0x2ed4 <L143>
    2eb9:	b7 56       	tfr   x,y
    2ebb:	6d 84       	sty   4,sp
    2ebd:	ed f0 2a    	ldy   42,sp
    2ec0:	27 06       	beq   0x2ec8 <L145>
    2ec2:	ed f3 00 2a 	ldy   [42,sp]
    2ec6:	6d 84       	sty   4,sp

0x00002ec8 <L145>:
    2ec8:	ed 84       	ldy   4,sp
    2eca:	ec 46       	ldd   6,y

0x00002ecc <LBE7>:
    2ecc:	84 01       	anda  #0x1
    2ece:	c7          	clrb  
    2ecf:	8c 00 00    	tstd  
    2ed2:	27 03       	beq   0x2ed7 <L142>

0x00002ed4 <L143>:
    2ed4:	ce 00 01    	ldx   #0x1 <err_over>

0x00002ed7 <L142>:
    2ed7:	cd 00 00    	clry  
    2eda:	6d 84       	sty   4,sp
    2edc:	ed f0 2a    	ldy   42,sp
    2edf:	27 06       	beq   0x2ee7 <L151>
    2ee1:	ed f3 00 2a 	ldy   [42,sp]
    2ee5:	6d 84       	sty   4,sp

0x00002ee7 <L151>:
    2ee7:	ed 84       	ldy   4,sp
    2ee9:	ed 46       	ldy   6,y

0x00002eeb <LBE10>:
    2eeb:	b7 64       	tfr   y,d
    2eed:	84 04       	anda  #0x4
    2eef:	c7          	clrb  
    2ef0:	6c 84       	std   4,sp
    2ef2:	87 c7       	clrd  
    2ef4:	6c f0 20    	std   32,sp
    2ef7:	ed 84       	ldy   4,sp
    2ef9:	27 06       	beq   0x2f01 <L148>
    2efb:	cc 3f ec    	ldd   #0x3fec <LC0>
    2efe:	6c f0 20    	std   32,sp

0x00002f01 <L148>:
    2f01:	16 41 13    	jsr   0x4113 <___hc12_tstsf>
    2f04:	26 2c       	bne   0x2f32 <L154+0x20>
    2f06:	0b          	rti   
    2f07:	16 42 4a    	jsr   0x424a <___hc12_negsf>
    2f0a:	26 26       	bne   0x2f32 <L154+0x20>
    2f0c:	cd 3f ee    	ldy   #0x3fee <LC1>
    2f0f:	6d f0 20    	sty   32,sp

0x00002f12 <L154>:
    2f12:	ec f0 22    	ldd   34,sp
    2f15:	59          	asld  
    2f16:	59          	asld  
    2f17:	b7 46       	tfr   d,y
    2f19:	19 ea 3f f0 	leay  16368,y
    2f1d:	6d 84       	sty   4,sp
    2f1f:	ec f3 00 04 	ldd   [4,sp]
    2f23:	6c f0 1c    	std   28,sp
    2f26:	ed 42       	ldy   2,y
    2f28:	6d f0 1e    	sty   30,sp
    2f2b:	16 42 53    	jsr   0x4253 <___hc12_addsf>
    2f2e:	26 26       	bne   0x2f56 <L165+0x1>
    2f30:	1c cd 00 01 	bset  0xcd00 <.stab+0xa48>,#0x1
    2f34:	6d f0 1a    	sty   26,sp
    2f37:	fc 40 90    	ldd   0x4090 <LC2>
    2f3a:	20 19       	bra   0x2f55 <L165>

0x00002f3c <L157>:
    2f3c:	fc 40 90    	ldd   0x4090 <LC2>
    2f3f:	6c f0 12    	std   18,sp
    2f42:	fd 40 92    	ldy   0x4092 <LC2+0x2>
    2f45:	6d f0 14    	sty   20,sp
    2f48:	16 42 5c    	jsr   0x425c <___hc12_divsf>
    2f4b:	26 26       	bne   0x2f73 <LBB11+0xe>
    2f4d:	12          	mul   
    2f4e:	ed f0 1a    	ldy   26,sp
    2f51:	02          	iny   
    2f52:	6d f0 1a    	sty   26,sp

0x00002f55 <L165>:
    2f55:	6c f0 16    	std   22,sp
    2f58:	fd 40 92    	ldy   0x4092 <LC2+0x2>
    2f5b:	6d f0 18    	sty   24,sp
    2f5e:	16 42 65    	jsr   0x4265 <___hc12_cmpsf>
    2f61:	26 16       	bne   0x2f79 <L159+0x4>
    2f63:	2c d7       	bge   0x2f3c <L157>

0x00002f65 <LBB11>:
    2f65:	87 c7       	clrd  
    2f67:	6c 84       	std   4,sp
    2f69:	ed f0 1a    	ldy   26,sp
    2f6c:	b7 54       	tfr   x,d
    2f6e:	1a ee       	leax  d,y
    2f70:	ec f0 22    	ldd   34,sp
    2f73:	1a e6       	leax  d,x

0x00002f75 <L159>:
    2f75:	ed 84       	ldy   4,sp
    2f77:	34          	pshx  
    2f78:	ad b1       	cpy   2,sp+
    2f7a:	2c 3d       	bge   0x2fb9 <L160>

0x00002f7c <LBB13>:
    2f7c:	ad f0 1a    	cpy   26,sp
    2f7f:	26 07       	bne   0x2f88 <L163>
    2f81:	ed f0 24    	ldy   36,sp
    2f84:	c6 2e       	ldab  #0x2e
    2f86:	20 23       	bra   0x2fab <L166>

0x00002f88 <L163>:
    2f88:	16 42 c8    	jsr   0x42c8 <___hc12_fix_truncsfhi>
    2f8b:	26 16       	bne   0x2fa3 <.stab+0xf>
    2f8d:	41          	coma  
    2f8e:	b8 0e 16    	eora  0xe16 <.stab+0xae>
    2f91:	43          	deca  
    2f92:	12          	mul   
    2f93:	0a          	rtc   
    2f94:	26 0e       	bne   0x2fa4 <.stab+0x10>
    2f96:	18 01 86 40 	movw  0x4090 <LC2>,6,sp
    2f9a:	90 
    2f9b:	18 01 88 40 	movw  0x4092 <LC2+0x2>,8,sp
    2f9f:	92 
    2fa0:	16 41 af    	jsr   0x41af <___hc12_mulsf>
    2fa3:	26 0a       	bne   0x2faf <L166+0x4>
    2fa5:	06 ed f0    	jmp   0xedf0 <.stab+0x144>
    2fa8:	24 cb       	bcc   0x2f75 <L159>
    2faa:	30          	pulx  

0x00002fab <L166>:
    2fab:	6b 70       	stab  1,y+
    2fad:	6d f0 24    	sty   36,sp

0x00002fb0 <LBE12>:
    2fb0:	ec 84       	ldd   4,sp
    2fb2:	c3 00 01    	incd  
    2fb5:	6c 84       	std   4,sp
    2fb7:	20 bc       	bra   0x2f75 <L159>

0x00002fb9 <L160>:
    2fb9:	c7          	clrb  
    2fba:	6b f3 00 24 	stab  [36,sp]
    2fbe:	1a f0 2c    	leax  44,sp
    2fc1:	6e 80       	stx   0,sp
    2fc3:	ed f0 20    	ldy   32,sp
    2fc6:	6d 82       	sty   2,sp
    2fc8:	ec f0 2a    	ldd   42,sp
    2fcb:	16 36 04    	jsr   0x3604 <_puts__7ostreamPCcT1>
    2fce:	ec f0 2a    	ldd   42,sp
    2fd1:	16 37 f7    	jsr   0x37f7 <_osfx__7ostream>

0x00002fd4 <L136>:
    2fd4:	ec f0 2a    	ldd   42,sp

0x00002fd7 <LBE2>:
    2fd7:	1b f0 7a    	leas  122,sp
    2fda:	3d          	rts   

0x00002fdb <___rs__7istreamRf>:
    2fdb:	1b f1 bc    	leas  -68,sp
    2fde:	6c f0 42    	std   66,sp

0x00002fe1 <LBB2>:
    2fe1:	18 00 80 00 	movw  #0x0 <*ABS*>,0,sp
    2fe5:	00 
    2fe6:	16 34 21    	jsr   0x3421 <_ipfx__7istreami>
    2fe9:	8c 00 00    	tstd  
    2fec:	18 27 01 f1 	lbeq  0x31e1 <L136>
    2ff0:	ce 00 00    	clrx  

0x00002ff3 <LBB4>:
    2ff3:	ed f0 42    	ldy   66,sp
    2ff6:	27 04       	beq   0x2ffc <L138>
    2ff8:	ee f3 00 42 	ldx   [66,sp]

0x00002ffc <L138>:
    2ffc:	ee 00       	ldx   0,x

0x00002ffe <LBE5>:
    2ffe:	b7 54       	tfr   x,d
    3000:	16 35 31    	jsr   0x3531 <_sgetc__9streambuf>
    3003:	6c f0 40    	std   64,sp
    3006:	cc ff ff    	ldd   #0xffff <.stab+0x7b>
    3009:	6c f0 3e    	std   62,sp
    300c:	ed f0 40    	ldy   64,sp
    300f:	8d 00 2d    	cpy   #0x2d <_rsvd26+0x7>
    3012:	27 0b       	beq   0x301f <L144>
    3014:	cc 00 01    	ldd   #0x1 <err_over>
    3017:	6c f0 3e    	std   62,sp

0x0000301a <LBB7>:
    301a:	8d 00 2b    	cpy   #0x2b <_rsvd26+0x5>
    301d:	26 14       	bne   0x3033 <L143>

0x0000301f <L144>:
    301f:	ce 00 00    	clrx  

0x00003022 <LBB8>:
    3022:	ed f0 42    	ldy   66,sp
    3025:	27 04       	beq   0x302b <L146>
    3027:	ee f3 00 42 	ldx   [66,sp]

0x0000302b <L146>:
    302b:	ec 00       	ldd   0,x

0x0000302d <LBE10>:
    302d:	16 35 60    	jsr   0x3560 <_snextc__9streambuf>
    3030:	6c f0 40    	std   64,sp

0x00003033 <L143>:
    3033:	ec f0 40    	ldd   64,sp
    3036:	8c ff ff    	cpd   #0xffff <.stab+0x7b>
    3039:	26 12       	bne   0x304d <L149>
    303b:	ce 00 00    	clrx  

0x0000303e <LBB12>:
    303e:	ed f0 42    	ldy   66,sp
    3041:	27 04       	beq   0x3047 <L151>
    3043:	ee f3 00 42 	ldx   [66,sp]

0x00003047 <L151>:
    3047:	ec 04       	ldd   4,x
    3049:	ca 04       	orab  #0x4
    304b:	6c 04       	std   4,x

0x0000304d <L149>:
    304d:	ec f0 40    	ldd   64,sp
    3050:	16 39 3e    	jsr   0x393e <_isdigit__Fi>
    3053:	8c 00 00    	tstd  
    3056:	26 0a       	bne   0x3062 <L155>
    3058:	ec f0 40    	ldd   64,sp
    305b:	8c 00 2e    	cpd   #0x2e <_rsvd26+0x8>
    305e:	18 26 01 53 	lbne  0x31b5 <L154>

0x00003062 <L155>:
    3062:	fd 40 94    	ldy   0x4094 <LC0>
    3065:	6d f3 00 46 	sty   [70,sp]
    3069:	fc 40 96    	ldd   0x4096 <LC0+0x2>
    306c:	ed f0 46    	ldy   70,sp
    306f:	6c 42       	std   2,y

0x00003071 <L156>:
    3071:	ec f0 40    	ldd   64,sp
    3074:	16 39 3e    	jsr   0x393e <_isdigit__Fi>
    3077:	8c 00 00    	tstd  
    307a:	18 27 00 77 	lbeq  0x30f5 <L157>
    307e:	ed f3 00 46 	ldy   [70,sp]
    3082:	6d f0 3a    	sty   58,sp
    3085:	ed f0 46    	ldy   70,sp
    3088:	ed 42       	ldy   2,y
    308a:	6d f0 3c    	sty   60,sp
    308d:	fc 40 98    	ldd   0x4098 <LC1>
    3090:	6c f0 32    	std   50,sp
    3093:	fd 40 9a    	ldy   0x409a <LC1+0x2>
    3096:	6d f0 34    	sty   52,sp
    3099:	16 41 af    	jsr   0x41af <___hc12_mulsf>
    309c:	36          	psha  
    309d:	3a          	puld  
    309e:	32          	pula  
    309f:	ec f0 36    	ldd   54,sp
    30a2:	6c f3 00 46 	std   [70,sp]
    30a6:	ec f0 38    	ldd   56,sp
    30a9:	ed f0 46    	ldy   70,sp
    30ac:	6c 42       	std   2,y
    30ae:	ed f0 40    	ldy   64,sp
    30b1:	1a e9 d0    	leax  -48,y
    30b4:	b7 54       	tfr   x,d
    30b6:	16 41 b8    	jsr   0x41b8 <___hc12_floathisf>
    30b9:	2e ed       	bgt   0x30a8 <L156+0x37>
    30bb:	f3 00 46    	addd  0x46 <_pwscal1>
    30be:	6d f0 2a    	sty   42,sp
    30c1:	ed f0 46    	ldy   70,sp
    30c4:	ed 42       	ldy   2,y
    30c6:	6d f0 2c    	sty   44,sp
    30c9:	16 42 53    	jsr   0x4253 <___hc12_addsf>
    30cc:	26 2a       	bne   0x30f8 <L157+0x3>
    30ce:	2e ec       	bgt   0x30bc <L156+0x4b>
    30d0:	f0 26 6c    	subb  0x266c <LBE3+0x6>
    30d3:	f3 00 46    	addd  0x46 <_pwscal1>
    30d6:	ec f0 28    	ldd   40,sp
    30d9:	ed f0 46    	ldy   70,sp
    30dc:	6c 42       	std   2,y
    30de:	ce 00 00    	clrx  
    30e1:	ed f0 42    	ldy   66,sp
    30e4:	27 04       	beq   0x30ea <L160>
    30e6:	ee f3 00 42 	ldx   [66,sp]

0x000030ea <L160>:
    30ea:	ec 00       	ldd   0,x

0x000030ec <LBE18>:
    30ec:	16 35 60    	jsr   0x3560 <_snextc__9streambuf>
    30ef:	6c f0 40    	std   64,sp

0x000030f2 <LBE17>:
    30f2:	06 30 71    	jmp   0x3071 <L156>

0x000030f5 <L157>:
    30f5:	ec f0 40    	ldd   64,sp
    30f8:	8c 00 2e    	cpd   #0x2e <_rsvd26+0x8>
    30fb:	18 26 00 8d 	lbne  0x318c <L163>
    30ff:	ce 00 00    	clrx  

0x00003102 <LBB21>:
    3102:	ed f0 42    	ldy   66,sp
    3105:	27 04       	beq   0x310b <L165>
    3107:	ee f3 00 42 	ldx   [66,sp]

0x0000310b <L165>:
    310b:	ee 00       	ldx   0,x

0x0000310d <LBE22>:
    310d:	b7 54       	tfr   x,d
    310f:	16 35 60    	jsr   0x3560 <_snextc__9streambuf>
    3112:	6c f0 40    	std   64,sp
    3115:	fc 40 9c    	ldd   0x409c <LC2>
    3118:	6c f0 22    	std   34,sp
    311b:	fd 40 9e    	ldy   0x409e <LC2+0x2>
    311e:	6d f0 24    	sty   36,sp

0x00003121 <L168>:
    3121:	ec f0 40    	ldd   64,sp
    3124:	16 39 3e    	jsr   0x393e <_isdigit__Fi>
    3127:	8c 00 00    	tstd  
    312a:	18 27 00 5e 	lbeq  0x318c <L163>
    312e:	fc 40 98    	ldd   0x4098 <LC1>
    3131:	6c f0 1e    	std   30,sp
    3134:	fd 40 9a    	ldy   0x409a <LC1+0x2>
    3137:	6d f0 20    	sty   32,sp
    313a:	16 42 5c    	jsr   0x425c <___hc12_divsf>
    313d:	22 22       	bhi   0x3161 <L168+0x40>
    313f:	1e ed f0 40 	brset 0xedf0 <.stab+0x144>,#0x40,0x315e <L168+0x3d>
    3143:	1a 
    3144:	e9 d0       	adcb  0x3136 <L168+0x15>,pc
    3146:	b7 54       	tfr   x,d
    3148:	16 41 b8    	jsr   0x41b8 <___hc12_floathisf>
    314b:	1a 16       	leax  -10,x
    314d:	41          	coma  
    314e:	af 16       	cps   -10,x
    3150:	1a 22       	leax  3,+x
    3152:	ed f3 00 46 	ldy   [70,sp]
    3156:	6d f0 12    	sty   18,sp
    3159:	ed f0 46    	ldy   70,sp
    315c:	ed 42       	ldy   2,y
    315e:	6d f0 14    	sty   20,sp
    3161:	16 42 53    	jsr   0x4253 <___hc12_addsf>
    3164:	0e 12 16 ec 	brset -14,x,#0x16,0x3154 <L168+0x33>
    3168:	8e 6c f3    	cpx   #0x6cf3 <.stab+0x93>
    316b:	00          	bgnd  
    316c:	46          	rora  
    316d:	ec f0 10    	ldd   16,sp
    3170:	ed f0 46    	ldy   70,sp
    3173:	6c 42       	std   2,y
    3175:	ce 00 00    	clrx  
    3178:	ed f0 42    	ldy   66,sp
    317b:	27 04       	beq   0x3181 <L172>
    317d:	ee f3 00 42 	ldx   [66,sp]

0x00003181 <L172>:
    3181:	ec 00       	ldd   0,x

0x00003183 <LBE25>:
    3183:	16 35 60    	jsr   0x3560 <_snextc__9streambuf>
    3186:	6c f0 40    	std   64,sp

0x00003189 <LBE24>:
    3189:	06 31 21    	jmp   0x3121 <L168>

0x0000318c <L163>:
    318c:	ec f0 3e    	ldd   62,sp
    318f:	16 41 b8    	jsr   0x41b8 <___hc12_floathisf>
    3192:	0a          	rtc   
    3193:	ed f3 00 46 	ldy   [70,sp]
    3197:	6d 86       	sty   6,sp
    3199:	ed f0 46    	ldy   70,sp
    319c:	ed 42       	ldy   2,y
    319e:	6d 88       	sty   8,sp
    31a0:	16 41 af    	jsr   0x41af <___hc12_mulsf>
    31a3:	02          	iny   
    31a4:	06 0a ec    	jmp   0xaec <_ddrdlc+0x9ed>
    31a7:	82 6c       	sbca  #0x6c
    31a9:	f3 00 46    	addd  0x46 <_pwscal1>
    31ac:	ec 84       	ldd   4,sp
    31ae:	ed f0 46    	ldy   70,sp
    31b1:	6c 42       	std   2,y

0x000031b3 <LBE16>:
    31b3:	20 12       	bra   0x31c7 <L175>

0x000031b5 <L154>:
    31b5:	ce 00 00    	clrx  

0x000031b8 <LBB27>:
    31b8:	ed f0 42    	ldy   66,sp
    31bb:	27 04       	beq   0x31c1 <L177>
    31bd:	ee f3 00 42 	ldx   [66,sp]

0x000031c1 <L177>:
    31c1:	ec 04       	ldd   4,x
    31c3:	ca 02       	orab  #0x2
    31c5:	6c 04       	std   4,x

0x000031c7 <L175>:
    31c7:	ec f0 40    	ldd   64,sp
    31ca:	8c ff ff    	cpd   #0xffff <.stab+0x7b>
    31cd:	26 12       	bne   0x31e1 <L136>
    31cf:	ce 00 00    	clrx  

0x000031d2 <LBB31>:
    31d2:	ed f0 42    	ldy   66,sp
    31d5:	27 04       	beq   0x31db <L182>
    31d7:	ee f3 00 42 	ldx   [66,sp]

0x000031db <L182>:
    31db:	ec 04       	ldd   4,x
    31dd:	ca 01       	orab  #0x1
    31df:	6c 04       	std   4,x

0x000031e1 <L136>:
    31e1:	ec f0 42    	ldd   66,sp

0x000031e4 <LBE2>:
    31e4:	1b f0 44    	leas  68,sp
    31e7:	3d          	rts   

0x000031e8 <_hex__FR3ios>:
    31e8:	b7 46       	tfr   d,y

0x000031ea <LBB2>:
    31ea:	ec 46       	ldd   6,y
    31ec:	c4 8f       	andb  #0x8f
    31ee:	ca 40       	orab  #0x40
    31f0:	6c 46       	std   6,y

0x000031f2 <LBE3>:
    31f2:	b7 64       	tfr   y,d

0x000031f4 <LBE2>:
    31f4:	3d          	rts   

0x000031f5 <___rs__7istreamRUi>:
    31f5:	1b 9a       	leas  -6,sp
    31f7:	6c 82       	std   2,sp

0x000031f9 <LBB2>:
    31f9:	1a 84       	leax  4,sp
    31fb:	6e 80       	stx   0,sp
    31fd:	16 39 4f    	jsr   0x394f <___rs__7istreamRi>
    3200:	ed 84       	ldy   4,sp
    3202:	6d f3 00 08 	sty   [8,sp]
    3206:	ec 82       	ldd   2,sp

0x00003208 <LBE2>:
    3208:	1b 86       	leas  6,sp
    320a:	3d          	rts   

0x0000320b <___ls__7ostreami>:
    320b:	1b 9a       	leas  -6,sp
    320d:	6c 84       	std   4,sp

0x0000320f <LBB2>:
    320f:	16 35 af    	jsr   0x35af <_opfx__7ostream>
    3212:	8c 00 00    	tstd  
    3215:	27 3c       	beq   0x3253 <L136>

0x00003217 <LBB4>:
    3217:	ed 88       	ldy   8,sp
    3219:	2c 25       	bge   0x3240 <L137>
    321b:	ce 00 00    	clrx  
    321e:	ed 84       	ldy   4,sp
    3220:	27 04       	beq   0x3226 <L139>
    3222:	ee f3 00 04 	ldx   [4,sp]

0x00003226 <L139>:
    3226:	ec 06       	ldd   6,x

0x00003228 <LBE6>:
    3228:	87          	clra  
    3229:	c4 50       	andb  #0x50
    322b:	8c 00 00    	tstd  
    322e:	26 10       	bne   0x3240 <L137>
    3230:	ec 88       	ldd   8,sp
    3232:	41 51 c3 00 	negd  
    3236:	01 
    3237:	6c 80       	std   0,sp
    3239:	18 00 82 ff 	movw  #0xffff <.stab+0x7b>,2,sp
    323d:	ff 
    323e:	20 09       	bra   0x3249 <L143>

0x00003240 <L137>:
    3240:	ed 88       	ldy   8,sp
    3242:	6d 80       	sty   0,sp
    3244:	18 00 82 00 	movw  #0x1 <err_over>,2,sp
    3248:	01 

0x00003249 <L143>:
    3249:	ec 84       	ldd   4,sp
    324b:	16 3a ea    	jsr   0x3aea <_puti__7ostreamUii>

0x0000324e <LBE5>:
    324e:	ec 84       	ldd   4,sp
    3250:	16 37 f7    	jsr   0x37f7 <_osfx__7ostream>

0x00003253 <L136>:
    3253:	ec 84       	ldd   4,sp

0x00003255 <LBE2>:
    3255:	1b 86       	leas  6,sp
    3257:	3d          	rts   

0x00003258 <___9streambuf>:
    3258:	b7 46       	tfr   d,y
    325a:	cc 40 a0    	ldd   #0x40a0 <___vt_9streambuf>
    325d:	6c e8 12    	std   18,y

0x00003260 <LBB2>:
    3260:	18 00 40 00 	movw  #0x0 <*ABS*>,0,y
    3264:	00 
    3265:	18 00 42 00 	movw  #0x0 <*ABS*>,2,y
    3269:	00 
    326a:	18 00 44 00 	movw  #0x0 <*ABS*>,4,y
    326e:	00 
    326f:	18 00 46 00 	movw  #0x0 <*ABS*>,6,y
    3273:	00 
    3274:	18 00 48 00 	movw  #0x0 <*ABS*>,8,y
    3278:	00 
    3279:	18 00 4a 00 	movw  #0x0 <*ABS*>,10,y
    327d:	00 
    327e:	18 00 4c 00 	movw  #0x0 <*ABS*>,12,y
    3282:	00 
    3283:	18 00 4e 00 	movw  #0x0 <*ABS*>,14,y
    3287:	00 
    3288:	87 c7       	clrd  
    328a:	6c e8 10    	std   16,y

0x0000328d <LBE2>:
    328d:	b7 64       	tfr   y,d
    328f:	3d          	rts   

0x00003290 <_setg__9streambufPcN21>:
    3290:	b7 45       	tfr   d,x

0x00003292 <LBB2>:
    3292:	18 02 82 0c 	movw  2,sp,12,x
    3296:	18 02 84 0e 	movw  4,sp,14,x
    329a:	ed 86       	ldy   6,sp
    329c:	6d e0 10    	sty   16,x

0x0000329f <LBE2>:
    329f:	3d          	rts   

0x000032a0 <_setp__9streambufPcT1>:
    32a0:	b7 46       	tfr   d,y
    32a2:	ec 82       	ldd   2,sp

0x000032a4 <LBB2>:
    32a4:	6c 48       	std   8,y
    32a6:	6c 46       	std   6,y
    32a8:	18 02 84 4a 	movw  4,sp,10,y

0x000032ac <LBE2>:
    32ac:	3d          	rts   

0x000032ad <__$_9streambuf>:
    32ad:	1b 9e       	leas  -2,sp
    32af:	6c 80       	std   0,sp
    32b1:	cc 40 a0    	ldd   #0x40a0 <___vt_9streambuf>
    32b4:	ed 80       	ldy   0,sp
    32b6:	6c e8 12    	std   18,y

0x000032b9 <LBB2>:
    32b9:	ee f3 00 00 	ldx   [0,sp]
    32bd:	27 09       	beq   0x32c8 <L139>
    32bf:	ee 42       	ldx   2,y
    32c1:	27 05       	beq   0x32c8 <L139>
    32c3:	b7 54       	tfr   x,d
    32c5:	16 25 c6    	jsr   0x25c6 <___builtin_vec_delete>

0x000032c8 <L139>:
    32c8:	ec 84       	ldd   4,sp
    32ca:	87          	clra  
    32cb:	c4 01       	andb  #0x1
    32cd:	8c 00 00    	tstd  
    32d0:	27 05       	beq   0x32d7 <L141>
    32d2:	ec 80       	ldd   0,sp
    32d4:	16 25 c2    	jsr   0x25c2 <___builtin_delete>

0x000032d7 <L141>:
    32d7:	1b 82       	leas  2,sp
    32d9:	3d          	rts   

0x000032da <_sputc__9streambufi>:
    32da:	1b 9d       	leas  -3,sp
    32dc:	b7 46       	tfr   d,y
    32de:	ec 85       	ldd   5,sp

0x000032e0 <LBB2>:
    32e0:	ee 48       	ldx   8,y
    32e2:	ae 4a       	cpx   10,y
    32e4:	25 0d       	bcs   0x32f3 <L136>
    32e6:	ee e8 12    	ldx   18,y
    32e9:	6c 80       	std   0,sp
    32eb:	b7 64       	tfr   y,d
    32ed:	15 e3 00 0e 	jsr   [14,x]
    32f1:	20 0d       	bra   0x3300 <L138>

0x000032f3 <L136>:
    32f3:	1a 48       	leax  8,y
    32f5:	ed 00       	ldy   0,x
    32f7:	6b 82       	stab  2,sp
    32f9:	6b 70       	stab  1,y+
    32fb:	e6 82       	ldab  2,sp
    32fd:	87          	clra  
    32fe:	6d 00       	sty   0,x

0x00003300 <L138>:
    3300:	1b 83       	leas  3,sp
    3302:	3d          	rts   

0x00003303 <_in_avail__9streambuf>:
    3303:	b7 46       	tfr   d,y

0x00003305 <LBB2>:
    3305:	ec e8 10    	ldd   16,y
    3308:	a3 4e       	subd  14,y
    330a:	2c 02       	bge   0x330e <L136>
    330c:	87 c7       	clrd  

0x0000330e <L136>:
    330e:	3d          	rts   

0x0000330f <_seekoff__9streambufiQ23ios8seek_diri>:
    330f:	cc ff ff    	ldd   #0xffff <.stab+0x7b>

0x00003312 <LBE2>:
    3312:	3d          	rts   

0x00003313 <_seekpos__9streambufii>:
    3313:	1b 9a       	leas  -6,sp

0x00003315 <LBB2>:
    3315:	b7 46       	tfr   d,y
    3317:	ee e8 12    	ldx   18,y
    331a:	18 02 88 80 	movw  8,sp,0,sp
    331e:	18 00 82 00 	movw  #0x0 <*ABS*>,2,sp
    3322:	00 
    3323:	18 02 8a 84 	movw  10,sp,4,sp
    3327:	15 e3 00 08 	jsr   [8,x]

0x0000332b <LBE2>:
    332b:	1b 86       	leas  6,sp
    332d:	3d          	rts   

0x0000332e <_xsputn__9streambufPCci>:
    332e:	1b 94       	leas  -12,sp
    3330:	6c 8a       	std   10,sp

0x00003332 <LBB2>:
    3332:	ec 8e       	ldd   14,sp
    3334:	6c 88       	std   8,sp

0x00003336 <L136>:
    3336:	ed f0 10    	ldy   16,sp
    3339:	18 27 00 71 	lbeq  0x33ae <L137>

0x0000333d <LBB4>:
    333d:	ed 8a       	ldy   10,sp
    333f:	ee 4a       	ldx   10,y

0x00003341 <LBB7>:
    3341:	ec 48       	ldd   8,y
    3343:	6c 84       	std   4,sp

0x00003345 <LBE7>:
    3345:	b7 c5       	xgdx  
    3347:	a3 84       	subd  4,sp
    3349:	b7 c5       	xgdx  
    334b:	ed f0 10    	ldy   16,sp
    334e:	6d 86       	sty   6,sp
    3350:	34          	pshx  
    3351:	ad b1       	cpy   2,sp+
    3353:	2f 02       	ble   0x3357 <L141>
    3355:	6e 86       	stx   6,sp

0x00003357 <L141>:
    3357:	ec 86       	ldd   6,sp
    3359:	27 23       	beq   0x337e <L142>

0x0000335b <LBB10>:
    335b:	ed 8e       	ldy   14,sp
    335d:	6d 80       	sty   0,sp
    335f:	6c 82       	std   2,sp
    3361:	ec 84       	ldd   4,sp
    3363:	16 3c 78    	jsr   0x3c78 <_memcpy>

0x00003366 <LBB12>:
    3366:	ed 8a       	ldy   10,sp
    3368:	ee 48       	ldx   8,y
    336a:	ec 86       	ldd   6,sp
    336c:	1a e6       	leax  d,x
    336e:	6e 48       	stx   8,y

0x00003370 <LBE12>:
    3370:	ec 8e       	ldd   14,sp
    3372:	e3 86       	addd  6,sp
    3374:	6c 8e       	std   14,sp
    3376:	ec f0 10    	ldd   16,sp
    3379:	a3 86       	subd  6,sp
    337b:	6c f0 10    	std   16,sp

0x0000337e <L142>:
    337e:	ed f0 10    	ldy   16,sp
    3381:	27 2b       	beq   0x33ae <L137>
    3383:	b7 64       	tfr   y,d
    3385:	c3 ff ff    	addd  #0xffff <.stab+0x7b>
    3388:	6c f0 10    	std   16,sp
    338b:	ed 8a       	ldy   10,sp
    338d:	ed e8 12    	ldy   18,y
    3390:	6d 84       	sty   4,sp
    3392:	ed 8e       	ldy   14,sp
    3394:	e6 70       	ldab  1,y+
    3396:	87          	clra  
    3397:	b7 45       	tfr   d,x
    3399:	6d 8e       	sty   14,sp
    339b:	6e 80       	stx   0,sp
    339d:	ec 8a       	ldd   10,sp
    339f:	ed 84       	ldy   4,sp
    33a1:	15 eb 00 0e 	jsr   [14,y]
    33a5:	b7 45       	tfr   d,x
    33a7:	8e ff ff    	cpx   #0xffff <.stab+0x7b>
    33aa:	18 26 ff 88 	lbne  0x3336 <L136>

0x000033ae <L137>:
    33ae:	ec 8e       	ldd   14,sp
    33b0:	a3 88       	subd  8,sp

0x000033b2 <LBE2>:
    33b2:	1b 8c       	leas  12,sp
    33b4:	3d          	rts   

0x000033b5 <_xsgetn__9streambufPci>:
    33b5:	1b 94       	leas  -12,sp
    33b7:	6c 8a       	std   10,sp

0x000033b9 <LBB2>:
    33b9:	ec 8e       	ldd   14,sp
    33bb:	6c 88       	std   8,sp

0x000033bd <L136>:
    33bd:	ed f0 10    	ldy   16,sp
    33c0:	18 27 00 52 	lbeq  0x3416 <L137>

0x000033c4 <LBB4>:
    33c4:	ed 8a       	ldy   10,sp
    33c6:	ee e8 10    	ldx   16,y

0x000033c9 <LBB6>:
    33c9:	ec 4e       	ldd   14,y
    33cb:	6c 84       	std   4,sp

0x000033cd <LBE6>:
    33cd:	b7 c5       	xgdx  
    33cf:	a3 84       	subd  4,sp
    33d1:	b7 c5       	xgdx  
    33d3:	ed f0 10    	ldy   16,sp
    33d6:	6d 86       	sty   6,sp
    33d8:	34          	pshx  
    33d9:	ad b1       	cpy   2,sp+
    33db:	2f 02       	ble   0x33df <L141>
    33dd:	6e 86       	stx   6,sp

0x000033df <L141>:
    33df:	ec 84       	ldd   4,sp
    33e1:	6c 80       	std   0,sp
    33e3:	ed 86       	ldy   6,sp
    33e5:	6d 82       	sty   2,sp
    33e7:	ec 8e       	ldd   14,sp
    33e9:	16 3c 78    	jsr   0x3c78 <_memcpy>
    33ec:	ec 8e       	ldd   14,sp
    33ee:	e3 86       	addd  6,sp
    33f0:	6c 8e       	std   14,sp

0x000033f2 <LBB10>:
    33f2:	ed 8a       	ldy   10,sp
    33f4:	ee 4e       	ldx   14,y
    33f6:	ec 86       	ldd   6,sp
    33f8:	1a e6       	leax  d,x
    33fa:	6e 4e       	stx   14,y

0x000033fc <LBE10>:
    33fc:	ec f0 10    	ldd   16,sp
    33ff:	a3 86       	subd  6,sp
    3401:	6c f0 10    	std   16,sp
    3404:	27 10       	beq   0x3416 <L137>
    3406:	ee e8 12    	ldx   18,y
    3409:	b7 64       	tfr   y,d
    340b:	15 e3 00 12 	jsr   [18,x]
    340f:	8c ff ff    	cpd   #0xffff <.stab+0x7b>
    3412:	18 26 ff a7 	lbne  0x33bd <L136>

0x00003416 <L137>:
    3416:	ec 8e       	ldd   14,sp
    3418:	a3 88       	subd  8,sp

0x0000341a <LBE2>:
    341a:	1b 8c       	leas  12,sp
    341c:	3d          	rts   

0x0000341d <_pbackfail__9streambufi>:
    341d:	cc ff ff    	ldd   #0xffff <.stab+0x7b>

0x00003420 <LBE2>:
    3420:	3d          	rts   

0x00003421 <_ipfx__7istreami>:
    3421:	1b 99       	leas  -7,sp
    3423:	6c 85       	std   5,sp

0x00003425 <LBB2>:
    3425:	87 c7       	clrd  
    3427:	ed 85       	ldy   5,sp
    3429:	6c 42       	std   2,y
    342b:	b7 46       	tfr   d,y
    342d:	6d 80       	sty   0,sp

0x0000342f <LBB3>:
    342f:	ed 85       	ldy   5,sp
    3431:	27 06       	beq   0x3439 <L138>
    3433:	ed f3 00 05 	ldy   [5,sp]
    3437:	6d 80       	sty   0,sp

0x00003439 <L138>:
    3439:	ce 00 00    	clrx  
    343c:	ed 80       	ldy   0,sp
    343e:	ec 44       	ldd   4,y
    3440:	26 03       	bne   0x3445 <L139>
    3442:	ce 00 01    	ldx   #0x1 <err_over>

0x00003445 <L139>:
    3445:	8e 00 00    	tstx  
    3448:	26 12       	bne   0x345c <L136>
    344a:	ce 00 00    	clrx  

0x0000344d <LBB6>:
    344d:	ed 85       	ldy   5,sp
    344f:	27 04       	beq   0x3455 <L143>
    3451:	ee f3 00 05 	ldx   [5,sp]

0x00003455 <L143>:
    3455:	ec 04       	ldd   4,x
    3457:	ca 02       	orab  #0x2

0x00003459 <LBE6>:
    3459:	06 35 0f    	jmp   0x350f <L186>

0x0000345c <L136>:
    345c:	c7          	clrb  
    345d:	6b 84       	stab  4,sp
    345f:	ce 00 00    	clrx  
    3462:	ed 85       	ldy   5,sp
    3464:	27 04       	beq   0x346a <L150>
    3466:	ee f3 00 05 	ldx   [5,sp]

0x0000346a <L150>:
    346a:	ec 02       	ldd   2,x

0x0000346c <LBE11>:
    346c:	27 27       	beq   0x3495 <L148>
    346e:	ec 89       	ldd   9,sp
    3470:	27 1f       	beq   0x3491 <L152>
    3472:	ce 00 00    	clrx  
    3475:	ed 85       	ldy   5,sp
    3477:	27 04       	beq   0x347d <L154>
    3479:	ee f3 00 05 	ldx   [5,sp]

0x0000347d <L154>:
    347d:	ee 00       	ldx   0,x

0x0000347f <LBE13>:
    347f:	ed e0 12    	ldy   18,x
    3482:	b7 54       	tfr   x,d
    3484:	15 eb 00 06 	jsr   [6,y]
    3488:	b7 45       	tfr   d,x
    348a:	ec 89       	ldd   9,sp
    348c:	34          	pshx  
    348d:	ac b1       	cpd   2,sp+
    348f:	2f 04       	ble   0x3495 <L148>

0x00003491 <L152>:
    3491:	c6 01       	ldab  #0x1
    3493:	6b 84       	stab  4,sp

0x00003495 <L148>:
    3495:	e7 84       	tst   4,sp
    3497:	27 10       	beq   0x34a9 <L147>
    3499:	ce 00 00    	clrx  

0x0000349c <LBB15>:
    349c:	ed 85       	ldy   5,sp
    349e:	27 04       	beq   0x34a4 <L158>
    34a0:	ee f3 00 05 	ldx   [5,sp]

0x000034a4 <L158>:
    34a4:	ec 02       	ldd   2,x

0x000034a6 <LBE16>:
    34a6:	16 2d 09    	jsr   0x2d09 <_flush__7ostream>

0x000034a9 <L147>:
    34a9:	ec 89       	ldd   9,sp
    34ab:	18 26 00 62 	lbne  0x3511 <L146>
    34af:	ce 00 00    	clrx  
    34b2:	ed 85       	ldy   5,sp
    34b4:	27 04       	beq   0x34ba <L162>
    34b6:	ee f3 00 05 	ldx   [5,sp]

0x000034ba <L162>:
    34ba:	ec 06       	ldd   6,x

0x000034bc <LBE19>:
    34bc:	87          	clra  
    34bd:	c4 01       	andb  #0x1
    34bf:	d7          	tstb  
    34c0:	18 27 00 4d 	lbeq  0x3511 <L146>

0x000034c4 <L165>:
    34c4:	ce 00 00    	clrx  

0x000034c7 <LBB22>:
    34c7:	ed 85       	ldy   5,sp
    34c9:	27 04       	beq   0x34cf <L169>
    34cb:	ee f3 00 05 	ldx   [5,sp]

0x000034cf <L169>:
    34cf:	ec 00       	ldd   0,x

0x000034d1 <LBE23>:
    34d1:	16 35 31    	jsr   0x3531 <_sgetc__9streambuf>
    34d4:	6c 82       	std   2,sp
    34d6:	16 35 49    	jsr   0x3549 <_isspace__Fi>
    34d9:	8c 00 00    	tstd  
    34dc:	27 1b       	beq   0x34f9 <L166>
    34de:	ce 00 00    	clrx  
    34e1:	ed 85       	ldy   5,sp
    34e3:	27 04       	beq   0x34e9 <L173>
    34e5:	ee f3 00 05 	ldx   [5,sp]

0x000034e9 <L173>:
    34e9:	ec 00       	ldd   0,x

0x000034eb <LBE25>:
    34eb:	16 3c 95    	jsr   0x3c95 <_stossc__9streambuf>
    34ee:	ed 85       	ldy   5,sp
    34f0:	ec 42       	ldd   2,y
    34f2:	c3 00 01    	incd  
    34f5:	6c 42       	std   2,y

0x000034f7 <LBE22>:
    34f7:	20 cb       	bra   0x34c4 <L165>

0x000034f9 <L166>:
    34f9:	ec 82       	ldd   2,sp
    34fb:	8c ff ff    	cpd   #0xffff <.stab+0x7b>
    34fe:	26 11       	bne   0x3511 <L146>
    3500:	ce 00 00    	clrx  

0x00003503 <LBB28>:
    3503:	ed 85       	ldy   5,sp
    3505:	27 04       	beq   0x350b <L178>
    3507:	ee f3 00 05 	ldx   [5,sp]

0x0000350b <L178>:
    350b:	ec 04       	ldd   4,x
    350d:	ca 03       	orab  #0x3

0x0000350f <L186>:
    350f:	6c 04       	std   4,x

0x00003511 <L146>:
    3511:	cd 00 00    	clry  
    3514:	6d 80       	sty   0,sp

0x00003516 <LBE3>:
    3516:	ed 85       	ldy   5,sp
    3518:	27 06       	beq   0x3520 <L182>
    351a:	ed f3 00 05 	ldy   [5,sp]
    351e:	6d 80       	sty   0,sp

0x00003520 <L182>:
    3520:	ce 00 00    	clrx  
    3523:	ed 80       	ldy   0,sp
    3525:	ed 44       	ldy   4,y
    3527:	26 03       	bne   0x352c <L183>
    3529:	ce 00 01    	ldx   #0x1 <err_over>

0x0000352c <L183>:
    352c:	b7 54       	tfr   x,d

0x0000352e <LBE2>:
    352e:	1b 87       	leas  7,sp
    3530:	3d          	rts   

0x00003531 <_sgetc__9streambuf>:
    3531:	b7 46       	tfr   d,y

0x00003533 <LBB2>:
    3533:	ee 4e       	ldx   14,y
    3535:	ae e8 10    	cpx   16,y
    3538:	24 05       	bcc   0x353f <L136>
    353a:	e6 00       	ldab  0,x
    353c:	87          	clra  
    353d:	20 09       	bra   0x3548 <L138>

0x0000353f <L136>:
    353f:	ee e8 12    	ldx   18,y
    3542:	b7 64       	tfr   y,d
    3544:	15 e3 00 12 	jsr   [18,x]

0x00003548 <L138>:
    3548:	3d          	rts   

0x00003549 <_isspace__Fi>:
    3549:	8c 00 09    	cpd   #0x9 <ht>
    354c:	2d 0f       	blt   0x355d <L5>
    354e:	8c 00 0d    	cpd   #0xd <cr>
    3551:	2f 05       	ble   0x3558 <L4>
    3553:	8c 00 20    	cpd   #0x20 <_brkct0>
    3556:	26 05       	bne   0x355d <L5>

0x00003558 <L4>:
    3558:	cc 00 01    	ldd   #0x1 <err_over>
    355b:	20 02       	bra   0x355f <L8>

0x0000355d <L5>:
    355d:	87 c7       	clrd  

0x0000355f <L8>:
    355f:	3d          	rts   

0x00003560 <_snextc__9streambuf>:
    3560:	1b 9e       	leas  -2,sp
    3562:	6c 80       	std   0,sp

0x00003564 <LBB2>:
    3564:	b7 46       	tfr   d,y
    3566:	ec 4e       	ldd   14,y
    3568:	ac e8 10    	cpd   16,y
    356b:	25 13       	bcs   0x3580 <L136>
    356d:	ee e8 12    	ldx   18,y
    3570:	b7 64       	tfr   y,d
    3572:	15 e3 00 12 	jsr   [18,x]
    3576:	8c ff ff    	cpd   #0xffff <.stab+0x7b>
    3579:	26 05       	bne   0x3580 <L136>
    357b:	cc ff ff    	ldd   #0xffff <.stab+0x7b>
    357e:	20 0e       	bra   0x358e <L138>

0x00003580 <L136>:
    3580:	ed 80       	ldy   0,sp
    3582:	ec 4e       	ldd   14,y
    3584:	c3 00 01    	incd  
    3587:	6c 4e       	std   14,y
    3589:	b7 64       	tfr   y,d
    358b:	16 35 31    	jsr   0x3531 <_sgetc__9streambuf>

0x0000358e <L138>:
    358e:	1b 82       	leas  2,sp
    3590:	3d          	rts   

0x00003591 <___3iosP9streambuf>:
    3591:	1b 9a       	leas  -6,sp
    3593:	6c 84       	std   4,sp
    3595:	cc 40 be    	ldd   #0x40be <___vt_3ios>
    3598:	ed 84       	ldy   4,sp
    359a:	6c 4e       	std   14,y

0x0000359c <LBB2>:
    359c:	18 02 88 80 	movw  8,sp,0,sp
    35a0:	18 00 82 00 	movw  #0x0 <*ABS*>,2,sp
    35a4:	00 
    35a5:	b7 64       	tfr   y,d
    35a7:	16 3c af    	jsr   0x3caf <_init__3iosP9streambufP7ostream>

0x000035aa <LBE2>:
    35aa:	ec 84       	ldd   4,sp
    35ac:	1b 86       	leas  6,sp
    35ae:	3d          	rts   

0x000035af <_opfx__7ostream>:
    35af:	1b 9e       	leas  -2,sp
    35b1:	6c 80       	std   0,sp
    35b3:	87 c7       	clrd  

0x000035b5 <LBB2>:
    35b5:	ed 80       	ldy   0,sp
    35b7:	27 04       	beq   0x35bd <L138>
    35b9:	ec f3 00 00 	ldd   [0,sp]

0x000035bd <L138>:
    35bd:	ce 00 00    	clrx  
    35c0:	b7 46       	tfr   d,y
    35c2:	ec 44       	ldd   4,y
    35c4:	26 03       	bne   0x35c9 <L139>
    35c6:	ce 00 01    	ldx   #0x1 <err_over>

0x000035c9 <L139>:
    35c9:	8e 00 00    	tstx  
    35cc:	27 1f       	beq   0x35ed <L136>
    35ce:	ce 00 00    	clrx  

0x000035d1 <LBB6>:
    35d1:	ed 80       	ldy   0,sp
    35d3:	27 04       	beq   0x35d9 <L144>
    35d5:	ee f3 00 00 	ldx   [0,sp]

0x000035d9 <L144>:
    35d9:	ec 02       	ldd   2,x

0x000035db <LBE8>:
    35db:	27 10       	beq   0x35ed <L136>
    35dd:	ce 00 00    	clrx  

0x000035e0 <LBB10>:
    35e0:	ed 80       	ldy   0,sp
    35e2:	27 04       	beq   0x35e8 <L147>
    35e4:	ee f3 00 00 	ldx   [0,sp]

0x000035e8 <L147>:
    35e8:	ec 02       	ldd   2,x

0x000035ea <LBE11>:
    35ea:	16 2d 09    	jsr   0x2d09 <_flush__7ostream>

0x000035ed <L136>:
    35ed:	ce 00 00    	clrx  

0x000035f0 <LBE3>:
    35f0:	ed 80       	ldy   0,sp
    35f2:	27 04       	beq   0x35f8 <L150>
    35f4:	ee f3 00 00 	ldx   [0,sp]

0x000035f8 <L150>:
    35f8:	87 c7       	clrd  
    35fa:	ed 04       	ldy   4,x
    35fc:	26 03       	bne   0x3601 <L151>
    35fe:	cc 00 01    	ldd   #0x1 <err_over>

0x00003601 <L151>:
    3601:	1b 82       	leas  2,sp
    3603:	3d          	rts   

0x00003604 <_puts__7ostreamPCcT1>:
    3604:	1b 90       	leas  -16,sp
    3606:	6c 8e       	std   14,sp

0x00003608 <LBB2>:
    3608:	ec f0 14    	ldd   20,sp
    360b:	27 05       	beq   0x3612 <L136>
    360d:	16 3c df    	jsr   0x3cdf <_strlen__FPCc>
    3610:	20 02       	bra   0x3614 <L220>

0x00003612 <L136>:
    3612:	87 c7       	clrd  

0x00003614 <L220>:
    3614:	6c 8c       	std   12,sp
    3616:	ed f0 12    	ldy   18,sp
    3619:	27 07       	beq   0x3622 <L138>
    361b:	b7 64       	tfr   y,d
    361d:	16 3c df    	jsr   0x3cdf <_strlen__FPCc>
    3620:	20 02       	bra   0x3624 <L221>

0x00003622 <L138>:
    3622:	87 c7       	clrd  

0x00003624 <L221>:
    3624:	6c 8a       	std   10,sp
    3626:	cd 00 00    	clry  
    3629:	6d 84       	sty   4,sp
    362b:	ed 8e       	ldy   14,sp
    362d:	27 06       	beq   0x3635 <L141>
    362f:	ed f3 00 0e 	ldy   [14,sp]
    3633:	6d 84       	sty   4,sp

0x00003635 <L141>:
    3635:	ed 84       	ldy   4,sp
    3637:	ee 48       	ldx   8,y
    3639:	87 c7       	clrd  
    363b:	6c 48       	std   8,y

0x0000363d <LBE3>:
    363d:	b7 c5       	xgdx  
    363f:	a3 8c       	subd  12,sp
    3641:	b7 c5       	xgdx  
    3643:	b7 54       	tfr   x,d
    3645:	a3 8a       	subd  10,sp
    3647:	6c 88       	std   8,sp
    3649:	2c 04       	bge   0x364f <L143>
    364b:	87 c7       	clrd  
    364d:	6c 88       	std   8,sp

0x0000364f <L143>:
    364f:	ed f0 14    	ldy   20,sp
    3652:	18 27 00 4e 	lbeq  0x36a4 <L144>
    3656:	ce 00 00    	clrx  
    3659:	ed 8e       	ldy   14,sp
    365b:	27 04       	beq   0x3661 <L146>
    365d:	ee f3 00 0e 	ldx   [14,sp]

0x00003661 <L146>:
    3661:	ec 06       	ldd   6,x

0x00003663 <LBE6>:
    3663:	87          	clra  
    3664:	c4 06       	andb  #0x6
    3666:	8c 00 00    	tstd  
    3669:	27 39       	beq   0x36a4 <L144>
    366b:	ce 00 00    	clrx  

0x0000366e <LBB8>:
    366e:	ed 8e       	ldy   14,sp
    3670:	27 04       	beq   0x3676 <L151>
    3672:	ee f3 00 0e 	ldx   [14,sp]

0x00003676 <L151>:
    3676:	ed 00       	ldy   0,x
    3678:	6d 84       	sty   4,sp

0x0000367a <LBB12>:
    367a:	ee e8 12    	ldx   18,y
    367d:	ec f0 14    	ldd   20,sp
    3680:	6c 80       	std   0,sp
    3682:	ed 8c       	ldy   12,sp
    3684:	6d 82       	sty   2,sp
    3686:	ec 84       	ldd   4,sp
    3688:	15 e3 00 10 	jsr   [16,x]
    368c:	b7 45       	tfr   d,x

0x0000368e <LBE12>:
    368e:	8e ff ff    	cpx   #0xffff <.stab+0x7b>
    3691:	26 11       	bne   0x36a4 <L144>
    3693:	ce 00 00    	clrx  

0x00003696 <LBB14>:
    3696:	ed 8e       	ldy   14,sp
    3698:	27 04       	beq   0x369e <L156>
    369a:	ee f3 00 0e 	ldx   [14,sp]

0x0000369e <L156>:
    369e:	ec 04       	ldd   4,x
    36a0:	ca 04       	orab  #0x4
    36a2:	6c 04       	std   4,x

0x000036a4 <L144>:
    36a4:	ec f0 12    	ldd   18,sp
    36a7:	18 27 00 4e 	lbeq  0x36f9 <L159>
    36ab:	ce 00 00    	clrx  
    36ae:	ed 8e       	ldy   14,sp
    36b0:	27 04       	beq   0x36b6 <L161>
    36b2:	ee f3 00 0e 	ldx   [14,sp]

0x000036b6 <L161>:
    36b6:	ec 06       	ldd   6,x

0x000036b8 <LBE18>:
    36b8:	87          	clra  
    36b9:	c4 02       	andb  #0x2
    36bb:	8c 00 00    	tstd  
    36be:	27 39       	beq   0x36f9 <L159>
    36c0:	ce 00 00    	clrx  

0x000036c3 <LBB20>:
    36c3:	ed 8e       	ldy   14,sp
    36c5:	27 04       	beq   0x36cb <L166>
    36c7:	ee f3 00 0e 	ldx   [14,sp]

0x000036cb <L166>:
    36cb:	ed 00       	ldy   0,x
    36cd:	6d 84       	sty   4,sp

0x000036cf <LBB24>:
    36cf:	ee e8 12    	ldx   18,y
    36d2:	ec f0 12    	ldd   18,sp
    36d5:	6c 80       	std   0,sp
    36d7:	ed 8a       	ldy   10,sp
    36d9:	6d 82       	sty   2,sp
    36db:	ec 84       	ldd   4,sp
    36dd:	15 e3 00 10 	jsr   [16,x]
    36e1:	b7 45       	tfr   d,x

0x000036e3 <LBE24>:
    36e3:	8e ff ff    	cpx   #0xffff <.stab+0x7b>
    36e6:	26 11       	bne   0x36f9 <L159>
    36e8:	ce 00 00    	clrx  

0x000036eb <LBB26>:
    36eb:	ed 8e       	ldy   14,sp
    36ed:	27 04       	beq   0x36f3 <L171>
    36ef:	ee f3 00 0e 	ldx   [14,sp]

0x000036f3 <L171>:
    36f3:	ec 04       	ldd   4,x
    36f5:	ca 04       	orab  #0x4
    36f7:	6c 04       	std   4,x

0x000036f9 <L159>:
    36f9:	87 c7       	clrd  

0x000036fb <L222>:
    36fb:	6c 86       	std   6,sp

0x000036fd <LBB30>:
    36fd:	ed 86       	ldy   6,sp
    36ff:	ad 88       	cpy   8,sp
    3701:	2c 46       	bge   0x3749 <L175>
    3703:	ce 00 00    	clrx  

0x00003706 <LBB31>:
    3706:	ed 8e       	ldy   14,sp
    3708:	27 04       	beq   0x370e <L180>
    370a:	ee f3 00 0e 	ldx   [14,sp]

0x0000370e <L180>:
    370e:	ee 00       	ldx   0,x

0x00003710 <Ltext20>:
    3710:	cd 00 00    	clry  
    3713:	6d 84       	sty   4,sp

0x00003715 <LBE32>:
    3715:	ed 8e       	ldy   14,sp
    3717:	27 06       	beq   0x371f <L184>
    3719:	ed f3 00 0e 	ldy   [14,sp]
    371d:	6d 84       	sty   4,sp

0x0000371f <L184>:
    371f:	ed 84       	ldy   4,sp
    3721:	e6 4d       	ldab  13,y
    3723:	87          	clra  
    3724:	6c 80       	std   0,sp
    3726:	b7 54       	tfr   x,d
    3728:	16 32 da    	jsr   0x32da <_sputc__9streambufi>
    372b:	8c ff ff    	cpd   #0xffff <.stab+0x7b>
    372e:	26 11       	bne   0x3741 <L176>
    3730:	ce 00 00    	clrx  

0x00003733 <LBB36>:
    3733:	ed 8e       	ldy   14,sp
    3735:	27 04       	beq   0x373b <L187>
    3737:	ee f3 00 0e 	ldx   [14,sp]

0x0000373b <L187>:
    373b:	ec 04       	ldd   4,x
    373d:	ca 04       	orab  #0x4
    373f:	6c 04       	std   4,x

0x00003741 <L176>:
    3741:	ec 86       	ldd   6,sp
    3743:	c3 00 01    	incd  
    3746:	06 36 fb    	jmp   0x36fb <L222>

0x00003749 <L175>:
    3749:	ed f0 14    	ldy   20,sp
    374c:	18 27 00 4e 	lbeq  0x379e <L190>
    3750:	ce 00 00    	clrx  
    3753:	ed 8e       	ldy   14,sp
    3755:	27 04       	beq   0x375b <L192>
    3757:	ee f3 00 0e 	ldx   [14,sp]

0x0000375b <L192>:
    375b:	ec 06       	ldd   6,x

0x0000375d <LBE40>:
    375d:	87          	clra  
    375e:	c4 06       	andb  #0x6
    3760:	8c 00 00    	tstd  
    3763:	26 39       	bne   0x379e <L190>
    3765:	ce 00 00    	clrx  

0x00003768 <LBB42>:
    3768:	ed 8e       	ldy   14,sp
    376a:	27 04       	beq   0x3770 <L197>
    376c:	ee f3 00 0e 	ldx   [14,sp]

0x00003770 <L197>:
    3770:	ed 00       	ldy   0,x
    3772:	6d 84       	sty   4,sp

0x00003774 <LBB46>:
    3774:	ee e8 12    	ldx   18,y
    3777:	ec f0 14    	ldd   20,sp
    377a:	6c 80       	std   0,sp
    377c:	ed 8c       	ldy   12,sp
    377e:	6d 82       	sty   2,sp
    3780:	ec 84       	ldd   4,sp
    3782:	15 e3 00 10 	jsr   [16,x]
    3786:	b7 45       	tfr   d,x

0x00003788 <LBE46>:
    3788:	8e ff ff    	cpx   #0xffff <.stab+0x7b>
    378b:	26 11       	bne   0x379e <L190>
    378d:	ce 00 00    	clrx  

0x00003790 <LBB48>:
    3790:	ed 8e       	ldy   14,sp
    3792:	27 04       	beq   0x3798 <L202>
    3794:	ee f3 00 0e 	ldx   [14,sp]

0x00003798 <L202>:
    3798:	ec 04       	ldd   4,x
    379a:	ca 04       	orab  #0x4
    379c:	6c 04       	std   4,x

0x0000379e <L190>:
    379e:	ec f0 12    	ldd   18,sp
    37a1:	18 27 00 4e 	lbeq  0x37f3 <L205>
    37a5:	ce 00 00    	clrx  
    37a8:	ed 8e       	ldy   14,sp
    37aa:	27 04       	beq   0x37b0 <L207>
    37ac:	ee f3 00 0e 	ldx   [14,sp]

0x000037b0 <L207>:
    37b0:	ec 06       	ldd   6,x

0x000037b2 <LBE52>:
    37b2:	87          	clra  
    37b3:	c4 02       	andb  #0x2
    37b5:	8c 00 00    	tstd  
    37b8:	26 39       	bne   0x37f3 <L205>
    37ba:	ce 00 00    	clrx  

0x000037bd <LBB54>:
    37bd:	ed 8e       	ldy   14,sp
    37bf:	27 04       	beq   0x37c5 <L212>
    37c1:	ee f3 00 0e 	ldx   [14,sp]

0x000037c5 <L212>:
    37c5:	ed 00       	ldy   0,x
    37c7:	6d 84       	sty   4,sp

0x000037c9 <LBB58>:
    37c9:	ee e8 12    	ldx   18,y
    37cc:	ec f0 12    	ldd   18,sp
    37cf:	6c 80       	std   0,sp
    37d1:	ed 8a       	ldy   10,sp
    37d3:	6d 82       	sty   2,sp
    37d5:	ec 84       	ldd   4,sp
    37d7:	15 e3 00 10 	jsr   [16,x]
    37db:	b7 45       	tfr   d,x

0x000037dd <LBE58>:
    37dd:	8e ff ff    	cpx   #0xffff <.stab+0x7b>
    37e0:	26 11       	bne   0x37f3 <L205>
    37e2:	ce 00 00    	clrx  

0x000037e5 <LBB60>:
    37e5:	ed 8e       	ldy   14,sp
    37e7:	27 04       	beq   0x37ed <L217>
    37e9:	ee f3 00 0e 	ldx   [14,sp]

0x000037ed <L217>:
    37ed:	ec 04       	ldd   4,x
    37ef:	ca 04       	orab  #0x4
    37f1:	6c 04       	std   4,x

0x000037f3 <L205>:
    37f3:	1b f0 10    	leas  16,sp
    37f6:	3d          	rts   

0x000037f7 <_osfx__7ostream>:
    37f7:	1b 9b       	leas  -5,sp
    37f9:	6c 83       	std   3,sp

0x000037fb <LBB2>:
    37fb:	c7          	clrb  
    37fc:	6b 82       	stab  2,sp
    37fe:	cd 00 00    	clry  
    3801:	6d 80       	sty   0,sp
    3803:	ed 83       	ldy   3,sp
    3805:	27 06       	beq   0x380d <L139>
    3807:	ed f3 00 03 	ldy   [3,sp]
    380b:	6d 80       	sty   0,sp

0x0000380d <L139>:
    380d:	ce 00 00    	clrx  
    3810:	ed 80       	ldy   0,sp
    3812:	ec 44       	ldd   4,y
    3814:	26 03       	bne   0x3819 <L140>
    3816:	ce 00 01    	ldx   #0x1 <err_over>

0x00003819 <L140>:
    3819:	8e 00 00    	tstx  
    381c:	27 19       	beq   0x3837 <L137>
    381e:	ce 00 00    	clrx  
    3821:	ed 83       	ldy   3,sp
    3823:	27 04       	beq   0x3829 <L144>
    3825:	ee f3 00 03 	ldx   [3,sp]

0x00003829 <L144>:
    3829:	ec 06       	ldd   6,x

0x0000382b <LBE6>:
    382b:	84 20       	anda  #0x20
    382d:	c7          	clrb  
    382e:	8c 00 00    	tstd  
    3831:	27 04       	beq   0x3837 <L137>
    3833:	c6 01       	ldab  #0x1
    3835:	6b 82       	stab  2,sp

0x00003837 <L137>:
    3837:	e7 82       	tst   2,sp
    3839:	27 05       	beq   0x3840 <L136>
    383b:	ec 83       	ldd   3,sp
    383d:	16 2d 09    	jsr   0x2d09 <_flush__7ostream>

0x00003840 <L136>:
    3840:	1b 85       	leas  5,sp
    3842:	3d          	rts   

0x00003843 <_sbumpc__9streambuf>:
    3843:	1b 9c       	leas  -4,sp
    3845:	6c 82       	std   2,sp

0x00003847 <LBB2>:
    3847:	b7 46       	tfr   d,y
    3849:	ec 4e       	ldd   14,y
    384b:	ac e8 10    	cpd   16,y
    384e:	25 13       	bcs   0x3863 <L136>
    3850:	ee e8 12    	ldx   18,y
    3853:	b7 64       	tfr   y,d
    3855:	15 e3 00 12 	jsr   [18,x]
    3859:	8c ff ff    	cpd   #0xffff <.stab+0x7b>
    385c:	26 05       	bne   0x3863 <L136>
    385e:	cc ff ff    	ldd   #0xffff <.stab+0x7b>
    3861:	20 0b       	bra   0x386e <L138>

0x00003863 <L136>:
    3863:	ed 82       	ldy   2,sp
    3865:	1a 4e       	leax  14,y
    3867:	ed 00       	ldy   0,x
    3869:	e6 70       	ldab  1,y+
    386b:	87          	clra  
    386c:	6d 00       	sty   0,x

0x0000386e <L138>:
    386e:	1b 84       	leas  4,sp
    3870:	3d          	rts   

0x00003871 <___3ios>:
    3871:	1b 9a       	leas  -6,sp
    3873:	6c 84       	std   4,sp
    3875:	cc 40 be    	ldd   #0x40be <___vt_3ios>
    3878:	ed 84       	ldy   4,sp
    387a:	6c 4e       	std   14,y

0x0000387c <LBB2>:
    387c:	18 00 80 00 	movw  #0x0 <*ABS*>,0,sp
    3880:	00 
    3881:	18 00 82 00 	movw  #0x0 <*ABS*>,2,sp
    3885:	00 
    3886:	b7 64       	tfr   y,d
    3888:	16 3c af    	jsr   0x3caf <_init__3iosP9streambufP7ostream>

0x0000388b <LBE2>:
    388b:	ec 84       	ldd   4,sp
    388d:	1b 86       	leas  6,sp
    388f:	3d          	rts   

0x00003890 <___13strstreambaseiPciT2>:
    3890:	1b 96       	leas  -10,sp
    3892:	6c 88       	std   8,sp
    3894:	ec 8c       	ldd   12,sp
    3896:	27 0e       	beq   0x38a6 <L162>
    3898:	ed 88       	ldy   8,sp
    389a:	1a e8 16    	leax  22,y
    389d:	6e f3 00 08 	stx   [8,sp]
    38a1:	b7 54       	tfr   x,d
    38a3:	16 38 71    	jsr   0x3871 <___3ios>

0x000038a6 <L162>:
    38a6:	ed 88       	ldy   8,sp
    38a8:	6d 86       	sty   6,sp
    38aa:	ee 71       	ldx   2,y+
    38ac:	6d 86       	sty   6,sp
    38ae:	18 00 0e 40 	movw  #0x40b8 <___vt_13strstreambase$3ios>,14,x
    38b2:	b8 
    38b3:	ed 8e       	ldy   14,sp
    38b5:	6d 80       	sty   0,sp
    38b7:	ed f0 10    	ldy   16,sp
    38ba:	6d 82       	sty   2,sp
    38bc:	ed f0 12    	ldy   18,sp
    38bf:	6d 84       	sty   4,sp
    38c1:	ec 86       	ldd   6,sp
    38c3:	16 3c f3    	jsr   0x3cf3 <___12strstreambufPciT1>
    38c6:	87 c7       	clrd  

0x000038c8 <LBB2>:
    38c8:	ed 88       	ldy   8,sp
    38ca:	27 04       	beq   0x38d0 <L164>
    38cc:	ec f3 00 08 	ldd   [8,sp]

0x000038d0 <L164>:
    38d0:	ed 86       	ldy   6,sp
    38d2:	6d 80       	sty   0,sp
    38d4:	18 00 82 00 	movw  #0x0 <*ABS*>,2,sp
    38d8:	00 
    38d9:	16 3c af    	jsr   0x3caf <_init__3iosP9streambufP7ostream>

0x000038dc <LBE2>:
    38dc:	ec 88       	ldd   8,sp
    38de:	1b 8a       	leas  10,sp
    38e0:	3d          	rts   

0x000038e1 <__$_13strstreambase>:
    38e1:	1b 9c       	leas  -4,sp
    38e3:	6c 82       	std   2,sp
    38e5:	b7 46       	tfr   d,y
    38e7:	c3 00 02    	addd  #0x2 <err_under>
    38ea:	ee 40       	ldx   0,y
    38ec:	18 00 0e 40 	movw  #0x40b8 <___vt_13strstreambase$3ios>,14,x
    38f0:	b8 

0x000038f1 <LBB2>:
    38f1:	18 00 80 00 	movw  #0x2 <err_under>,0,sp
    38f5:	02 
    38f6:	16 3d 18    	jsr   0x3d18 <__$_12strstreambuf>
    38f9:	ec 86       	ldd   6,sp
    38fb:	87          	clra  
    38fc:	c4 02       	andb  #0x2
    38fe:	8c 00 00    	tstd  
    3901:	27 0c       	beq   0x390f <L163>
    3903:	ec f3 00 02 	ldd   [2,sp]
    3907:	18 00 80 00 	movw  #0x0 <*ABS*>,0,sp
    390b:	00 
    390c:	16 39 27    	jsr   0x3927 <__$_3ios>

0x0000390f <L163>:
    390f:	ec 86       	ldd   6,sp
    3911:	87          	clra  
    3912:	c4 01       	andb  #0x1
    3914:	8c 00 00    	tstd  
    3917:	27 05       	beq   0x391e <L164>
    3919:	ec 82       	ldd   2,sp
    391b:	16 25 c2    	jsr   0x25c2 <___builtin_delete>

0x0000391e <L164>:
    391e:	1b 84       	leas  4,sp
    3920:	3d          	rts   

0x00003921 <Lscope0>:
    3921:	c3 ff ea    	addd  #0xffea <.stab+0x66>
    3924:	06 38 e1    	jmp   0x38e1 <__$_13strstreambase>

0x00003927 <__$_3ios>:
    3927:	b7 46       	tfr   d,y
    3929:	ec 82       	ldd   2,sp
    392b:	18 00 4e 40 	movw  #0x40be <___vt_3ios>,14,y
    392f:	be 

0x00003930 <LBB2>:
    3930:	87          	clra  
    3931:	c4 01       	andb  #0x1
    3933:	8c 00 00    	tstd  
    3936:	27 05       	beq   0x393d <L138>
    3938:	b7 64       	tfr   y,d
    393a:	16 25 c2    	jsr   0x25c2 <___builtin_delete>

0x0000393d <L138>:
    393d:	3d          	rts   

0x0000393e <_isdigit__Fi>:
    393e:	cd 00 00    	clry  
    3941:	c3 ff d0    	addd  #0xffd0 <.stab+0x4c>
    3944:	8c 00 09    	cpd   #0x9 <ht>
    3947:	22 03       	bhi   0x394c <L2>
    3949:	cd 00 01    	ldy   #0x1 <err_over>

0x0000394c <L2>:
    394c:	b7 64       	tfr   y,d

0x0000394e <LBE2>:
    394e:	3d          	rts   

0x0000394f <___rs__7istreamRi>:
    394f:	1b 90       	leas  -16,sp
    3951:	6c 8e       	std   14,sp

0x00003953 <LBB2>:
    3953:	18 00 80 00 	movw  #0x0 <*ABS*>,0,sp
    3957:	00 
    3958:	16 34 21    	jsr   0x3421 <_ipfx__7istreami>
    395b:	8c 00 00    	tstd  
    395e:	18 27 01 82 	lbeq  0x3ae4 <L136>
    3962:	ce 00 00    	clrx  

0x00003965 <LBB4>:
    3965:	ed 8e       	ldy   14,sp
    3967:	27 04       	beq   0x396d <L138>
    3969:	ee f3 00 0e 	ldx   [14,sp]

0x0000396d <L138>:
    396d:	ee 00       	ldx   0,x

0x0000396f <LBE5>:
    396f:	b7 54       	tfr   x,d
    3971:	16 35 31    	jsr   0x3531 <_sgetc__9streambuf>
    3974:	6c 8c       	std   12,sp
    3976:	cc ff ff    	ldd   #0xffff <.stab+0x7b>
    3979:	6c 8a       	std   10,sp
    397b:	ed 8c       	ldy   12,sp
    397d:	8d 00 2d    	cpy   #0x2d <_rsvd26+0x7>
    3980:	27 0a       	beq   0x398c <L144>
    3982:	cc 00 01    	ldd   #0x1 <err_over>
    3985:	6c 8a       	std   10,sp

0x00003987 <LBB7>:
    3987:	8d 00 2b    	cpy   #0x2b <_rsvd26+0x5>
    398a:	26 12       	bne   0x399e <L143>

0x0000398c <L144>:
    398c:	ce 00 00    	clrx  

0x0000398f <LBB8>:
    398f:	ed 8e       	ldy   14,sp
    3991:	27 04       	beq   0x3997 <L146>
    3993:	ee f3 00 0e 	ldx   [14,sp]

0x00003997 <L146>:
    3997:	ec 00       	ldd   0,x

0x00003999 <LBE10>:
    3999:	16 35 60    	jsr   0x3560 <_snextc__9streambuf>
    399c:	6c 8c       	std   12,sp

0x0000399e <L143>:
    399e:	cc 00 0a    	ldd   #0xa <lf>
    39a1:	6c 88       	std   8,sp
    39a3:	ce 00 00    	clrx  

0x000039a6 <LBB11>:
    39a6:	ed 8e       	ldy   14,sp
    39a8:	27 04       	beq   0x39ae <L151>
    39aa:	ee f3 00 0e 	ldx   [14,sp]

0x000039ae <L151>:
    39ae:	ec 06       	ldd   6,x

0x000039b0 <LBE12>:
    39b0:	87          	clra  
    39b1:	c4 10       	andb  #0x10
    39b3:	8c 00 00    	tstd  
    39b6:	18 26 00 56 	lbne  0x3a10 <L206>
    39ba:	ce 00 00    	clrx  

0x000039bd <LBB14>:
    39bd:	ed 8e       	ldy   14,sp
    39bf:	27 04       	beq   0x39c5 <L157>
    39c1:	ee f3 00 0e 	ldx   [14,sp]

0x000039c5 <L157>:
    39c5:	ec 06       	ldd   6,x

0x000039c7 <LBE16>:
    39c7:	87          	clra  
    39c8:	c4 20       	andb  #0x20
    39ca:	8c 00 00    	tstd  
    39cd:	18 26 00 67 	lbne  0x3a38 <L154>
    39d1:	ce 00 00    	clrx  

0x000039d4 <LBB18>:
    39d4:	ed 8e       	ldy   14,sp
    39d6:	27 04       	beq   0x39dc <L163>
    39d8:	ee f3 00 0e 	ldx   [14,sp]

0x000039dc <L163>:
    39dc:	ec 06       	ldd   6,x

0x000039de <LBE20>:
    39de:	87          	clra  
    39df:	c4 40       	andb  #0x40
    39e1:	8c 00 00    	tstd  
    39e4:	27 07       	beq   0x39ed <L161>
    39e6:	cc 00 10    	ldd   #0x10 <dle>
    39e9:	6c 88       	std   8,sp
    39eb:	20 4b       	bra   0x3a38 <L154>

0x000039ed <L161>:
    39ed:	ed 8c       	ldy   12,sp
    39ef:	8d 00 30    	cpy   #0x30 <_rsvd26+0xa>
    39f2:	26 44       	bne   0x3a38 <L154>
    39f4:	ce 00 00    	clrx  

0x000039f7 <LBB24>:
    39f7:	ed 8e       	ldy   14,sp
    39f9:	27 04       	beq   0x39ff <L169>
    39fb:	ee f3 00 0e 	ldx   [14,sp]

0x000039ff <L169>:
    39ff:	ec 00       	ldd   0,x

0x00003a01 <LBE25>:
    3a01:	16 35 60    	jsr   0x3560 <_snextc__9streambuf>
    3a04:	6c 8c       	std   12,sp

0x00003a06 <LBB27>:
    3a06:	b7 46       	tfr   d,y
    3a08:	1a e9 d0    	leax  -48,y
    3a0b:	8e 00 07    	cpx   #0x7 <bel>
    3a0e:	22 07       	bhi   0x3a17 <L172>

0x00003a10 <L206>:
    3a10:	cc 00 08    	ldd   #0x8 <bs>
    3a13:	6c 88       	std   8,sp
    3a15:	20 21       	bra   0x3a38 <L154>

0x00003a17 <L172>:
    3a17:	ec 8c       	ldd   12,sp
    3a19:	16 3d 2c    	jsr   0x3d2c <_tolower__Fi>
    3a1c:	8c 00 78    	cpd   #0x78 <_adr4>
    3a1f:	26 17       	bne   0x3a38 <L154>

0x00003a21 <LBB30>:
    3a21:	cd 00 10    	ldy   #0x10 <dle>
    3a24:	6d 88       	sty   8,sp
    3a26:	ce 00 00    	clrx  
    3a29:	ed 8e       	ldy   14,sp
    3a2b:	27 04       	beq   0x3a31 <L176>
    3a2d:	ee f3 00 0e 	ldx   [14,sp]

0x00003a31 <L176>:
    3a31:	ec 00       	ldd   0,x

0x00003a33 <LBE31>:
    3a33:	16 35 60    	jsr   0x3560 <_snextc__9streambuf>
    3a36:	6c 8c       	std   12,sp

0x00003a38 <L154>:
    3a38:	87 c7       	clrd  
    3a3a:	6c 86       	std   6,sp
    3a3c:	6c 84       	std   4,sp

0x00003a3e <LBB33>:
    3a3e:	ed 8c       	ldy   12,sp
    3a40:	8d ff ff    	cpy   #0xffff <.stab+0x7b>
    3a43:	26 10       	bne   0x3a55 <L184>
    3a45:	b7 45       	tfr   d,x

0x00003a47 <LBB34>:
    3a47:	ed 8e       	ldy   14,sp
    3a49:	27 04       	beq   0x3a4f <L181>
    3a4b:	ee f3 00 0e 	ldx   [14,sp]

0x00003a4f <L181>:
    3a4f:	ec 04       	ldd   4,x
    3a51:	ca 04       	orab  #0x4
    3a53:	6c 04       	std   4,x

0x00003a55 <L184>:
    3a55:	ec 8c       	ldd   12,sp
    3a57:	8c 00 2f    	cpd   #0x2f <_rsvd26+0x9>
    3a5a:	2f 4f       	ble   0x3aab <L185>
    3a5c:	b7 46       	tfr   d,y
    3a5e:	1a e9 d0    	leax  -48,y
    3a61:	8e 00 0a    	cpx   #0xa <lf>
    3a64:	2f 16       	ble   0x3a7c <L188>
    3a66:	ec 88       	ldd   8,sp
    3a68:	8c 00 0a    	cpd   #0xa <lf>
    3a6b:	2f 0f       	ble   0x3a7c <L188>
    3a6d:	b7 64       	tfr   y,d
    3a6f:	16 3d 2c    	jsr   0x3d2c <_tolower__Fi>
    3a72:	b7 46       	tfr   d,y
    3a74:	1a e9 a9    	leax  -87,y
    3a77:	8e 00 09    	cpx   #0x9 <ht>
    3a7a:	2f 2f       	ble   0x3aab <L185>

0x00003a7c <L188>:
    3a7c:	ae 88       	cpx   8,sp
    3a7e:	2c 2b       	bge   0x3aab <L185>
    3a80:	ec 84       	ldd   4,sp
    3a82:	c3 00 01    	incd  
    3a85:	6c 84       	std   4,sp
    3a87:	ec 86       	ldd   6,sp
    3a89:	ed 88       	ldy   8,sp
    3a8b:	18 13       	emuls 
    3a8d:	6c 82       	std   2,sp
    3a8f:	b7 46       	tfr   d,y
    3a91:	b7 54       	tfr   x,d
    3a93:	19 ee       	leay  d,y
    3a95:	6d 86       	sty   6,sp
    3a97:	ce 00 00    	clrx  
    3a9a:	ed 8e       	ldy   14,sp
    3a9c:	27 04       	beq   0x3aa2 <L192>
    3a9e:	ee f3 00 0e 	ldx   [14,sp]

0x00003aa2 <L192>:
    3aa2:	ec 00       	ldd   0,x

0x00003aa4 <LBE38>:
    3aa4:	16 35 60    	jsr   0x3560 <_snextc__9streambuf>
    3aa7:	6c 8c       	std   12,sp

0x00003aa9 <LBE37>:
    3aa9:	20 aa       	bra   0x3a55 <L184>

0x00003aab <L185>:
    3aab:	ec 84       	ldd   4,sp
    3aad:	27 0c       	beq   0x3abb <L195>
    3aaf:	ec 8a       	ldd   10,sp
    3ab1:	ed 86       	ldy   6,sp
    3ab3:	18 13       	emuls 
    3ab5:	6c f3 00 12 	std   [18,sp]
    3ab9:	20 11       	bra   0x3acc <L196>

0x00003abb <L195>:
    3abb:	ce 00 00    	clrx  

0x00003abe <LBB41>:
    3abe:	ed 8e       	ldy   14,sp
    3ac0:	27 04       	beq   0x3ac6 <L198>
    3ac2:	ee f3 00 0e 	ldx   [14,sp]

0x00003ac6 <L198>:
    3ac6:	ec 04       	ldd   4,x
    3ac8:	ca 02       	orab  #0x2
    3aca:	6c 04       	std   4,x

0x00003acc <L196>:
    3acc:	ec 8c       	ldd   12,sp
    3ace:	8c ff ff    	cpd   #0xffff <.stab+0x7b>
    3ad1:	26 11       	bne   0x3ae4 <L136>
    3ad3:	ce 00 00    	clrx  

0x00003ad6 <LBB45>:
    3ad6:	ed 8e       	ldy   14,sp
    3ad8:	27 04       	beq   0x3ade <L203>
    3ada:	ee f3 00 0e 	ldx   [14,sp]

0x00003ade <L203>:
    3ade:	ec 04       	ldd   4,x
    3ae0:	ca 01       	orab  #0x1
    3ae2:	6c 04       	std   4,x

0x00003ae4 <L136>:
    3ae4:	ec 8e       	ldd   14,sp

0x00003ae6 <LBE2>:
    3ae6:	1b f0 10    	leas  16,sp
    3ae9:	3d          	rts   

0x00003aea <_puti__7ostreamUii>:
    3aea:	1b f1 df    	leas  -33,sp
    3aed:	6c f0 11    	std   17,sp
    3af0:	ee f0 23    	ldx   35,sp

0x00003af3 <LBB2>:
    3af3:	fc 40 c4    	ldd   0x40c4 <LC0>
    3af6:	6c f0 13    	std   19,sp
    3af9:	fd 40 c6    	ldy   0x40c6 <LC1+0x1>
    3afc:	6d f0 15    	sty   21,sp
    3aff:	19 f0 20    	leay  32,sp
    3b02:	6d 8f       	sty   15,sp
    3b04:	c7          	clrb  
    3b05:	6b f3 00 0f 	stab  [15,sp]
    3b09:	cd 00 00    	clry  
    3b0c:	6d 84       	sty   4,sp

0x00003b0e <LBB3>:
    3b0e:	ed f0 11    	ldy   17,sp
    3b11:	27 06       	beq   0x3b19 <L138>
    3b13:	ed f3 00 11 	ldy   [17,sp]
    3b17:	6d 84       	sty   4,sp

0x00003b19 <L138>:
    3b19:	ed 84       	ldy   4,sp
    3b1b:	ec 46       	ldd   6,y

0x00003b1d <LBE4>:
    3b1d:	87          	clra  
    3b1e:	c4 10       	andb  #0x10
    3b20:	8c 00 00    	tstd  
    3b23:	27 45       	beq   0x3b6a <L136>

0x00003b25 <LBB6>:
    3b25:	cd 00 00    	clry  
    3b28:	6d 84       	sty   4,sp

0x00003b2a <L141>:
    3b2a:	b7 54       	tfr   x,d
    3b2c:	c4 07       	andb  #0x7
    3b2e:	cb 30       	addb  #0x30
    3b30:	6b 88       	stab  8,sp
    3b32:	ed 8f       	ldy   15,sp
    3b34:	6b 6f       	stab  1,-y
    3b36:	6d 8f       	sty   15,sp
    3b38:	b7 54       	tfr   x,d
    3b3a:	49          	lsrd  
    3b3b:	49          	lsrd  
    3b3c:	49          	lsrd  
    3b3d:	b7 45       	tfr   d,x
    3b3f:	8e 00 00    	tstx  
    3b42:	26 e6       	bne   0x3b2a <L141>

0x00003b44 <LBB7>:
    3b44:	ed f0 11    	ldy   17,sp
    3b47:	27 06       	beq   0x3b4f <L147>
    3b49:	ed f3 00 11 	ldy   [17,sp]
    3b4d:	6d 84       	sty   4,sp

0x00003b4f <L147>:
    3b4f:	ed 84       	ldy   4,sp
    3b51:	e7 47       	tst   7,y
    3b53:	18 2c 01 03 	lbge  0x3c5a <L150>
    3b57:	e6 88       	ldab  8,sp
    3b59:	c1 30       	cmpb  #0x30
    3b5b:	18 27 00 fb 	lbeq  0x3c5a <L150>
    3b5f:	19 f0 13    	leay  19,sp
    3b62:	18 00 80 40 	movw  #0x40c5 <LC1>,0,sp
    3b66:	c5 

0x00003b67 <LBE6>:
    3b67:	06 3c 55    	jmp   0x3c55 <L183>

0x00003b6a <L136>:
    3b6a:	cd 00 00    	clry  
    3b6d:	6d 84       	sty   4,sp

0x00003b6f <LBB10>:
    3b6f:	ed f0 11    	ldy   17,sp
    3b72:	27 06       	beq   0x3b7a <L153>
    3b74:	ed f3 00 11 	ldy   [17,sp]
    3b78:	6d 84       	sty   4,sp

0x00003b7a <L153>:
    3b7a:	ed 84       	ldy   4,sp
    3b7c:	ec 46       	ldd   6,y

0x00003b7e <LBE12>:
    3b7e:	87          	clra  
    3b7f:	c4 40       	andb  #0x40
    3b81:	8c 00 00    	tstd  
    3b84:	18 27 00 6f 	lbeq  0x3bf7 <L151>
    3b88:	cd 00 00    	clry  
    3b8b:	6d 84       	sty   4,sp

0x00003b8d <LBB14>:
    3b8d:	ed f0 11    	ldy   17,sp
    3b90:	27 06       	beq   0x3b98 <L159>
    3b92:	ed f3 00 11 	ldy   [17,sp]
    3b96:	6d 84       	sty   4,sp

0x00003b98 <L159>:
    3b98:	ed 84       	ldy   4,sp
    3b9a:	ec 46       	ldd   6,y

0x00003b9c <LBE15>:
    3b9c:	84 02       	anda  #0x2
    3b9e:	c7          	clrb  
    3b9f:	cd 40 da    	ldy   #0x40da <LC3>
    3ba2:	6d 8d       	sty   13,sp
    3ba4:	8c 00 00    	tstd  
    3ba7:	27 05       	beq   0x3bae <L156>
    3ba9:	cd 40 c7    	ldy   #0x40c7 <LC2>
    3bac:	6d 8d       	sty   13,sp

0x00003bae <L156>:
    3bae:	cd 00 00    	clry  
    3bb1:	6d 8b       	sty   11,sp

0x00003bb3 <L162>:
    3bb3:	b7 54       	tfr   x,d
    3bb5:	87          	clra  
    3bb6:	c4 0f       	andb  #0xf
    3bb8:	6c 84       	std   4,sp
    3bba:	ec 8d       	ldd   13,sp
    3bbc:	e3 84       	addd  4,sp
    3bbe:	6c 84       	std   4,sp
    3bc0:	ed 8f       	ldy   15,sp
    3bc2:	e6 f3 00 04 	ldab  [4,sp]
    3bc6:	6b 6f       	stab  1,-y
    3bc8:	6d 8f       	sty   15,sp
    3bca:	b7 54       	tfr   x,d
    3bcc:	49          	lsrd  
    3bcd:	49          	lsrd  
    3bce:	49          	lsrd  
    3bcf:	49          	lsrd  
    3bd0:	b7 45       	tfr   d,x
    3bd2:	8e 00 00    	tstx  
    3bd5:	26 dc       	bne   0x3bb3 <L162>

0x00003bd7 <LBB17>:
    3bd7:	ed f0 11    	ldy   17,sp
    3bda:	27 06       	beq   0x3be2 <L168>
    3bdc:	ed f3 00 11 	ldy   [17,sp]
    3be0:	6d 8b       	sty   11,sp

0x00003be2 <L168>:
    3be2:	ed 8b       	ldy   11,sp
    3be4:	e7 47       	tst   7,y
    3be6:	18 2c 00 70 	lbge  0x3c5a <L150>
    3bea:	19 f0 13    	leay  19,sp
    3bed:	ec 8d       	ldd   13,sp
    3bef:	c3 00 10    	addd  #0x10 <dle>
    3bf2:	6c 80       	std   0,sp

0x00003bf4 <LBE14>:
    3bf4:	06 3c 55    	jmp   0x3c55 <L183>

0x00003bf7 <L151>:
    3bf7:	cc 00 0a    	ldd   #0xa <lf>
    3bfa:	6c 89       	std   9,sp

0x00003bfc <L172>:
    3bfc:	b7 54       	tfr   x,d
    3bfe:	ed 89       	ldy   9,sp
    3c00:	b7 d6       	exg   x,y
    3c02:	18 10       	idiv  
    3c04:	b7 d6       	exg   x,y
    3c06:	6c 86       	std   6,sp
    3c08:	ed 8f       	ldy   15,sp
    3c0a:	e6 87       	ldab  7,sp
    3c0c:	ca 30       	orab  #0x30
    3c0e:	6b 6f       	stab  1,-y
    3c10:	6d 8f       	sty   15,sp
    3c12:	ed 89       	ldy   9,sp
    3c14:	b7 54       	tfr   x,d
    3c16:	b7 d6       	exg   x,y
    3c18:	18 10       	idiv  
    3c1a:	b7 d6       	exg   x,y
    3c1c:	b7 65       	tfr   y,x
    3c1e:	8e 00 00    	tstx  
    3c21:	26 d9       	bne   0x3bfc <L172>

0x00003c23 <LBB21>:
    3c23:	ec f0 25    	ldd   37,sp
    3c26:	2c 0a       	bge   0x3c32 <L176>
    3c28:	19 f0 13    	leay  19,sp
    3c2b:	18 00 80 40 	movw  #0x40ed <LC4>,0,sp
    3c2f:	ed 
    3c30:	20 23       	bra   0x3c55 <L183>

0x00003c32 <L176>:
    3c32:	ed f0 25    	ldy   37,sp
    3c35:	2f 23       	ble   0x3c5a <L150>
    3c37:	ce 00 00    	clrx  
    3c3a:	ed f0 11    	ldy   17,sp
    3c3d:	27 04       	beq   0x3c43 <L180>
    3c3f:	ee f3 00 11 	ldx   [17,sp]

0x00003c43 <L180>:
    3c43:	ec 06       	ldd   6,x

0x00003c45 <LBE24>:
    3c45:	84 04       	anda  #0x4
    3c47:	c7          	clrb  
    3c48:	8c 00 00    	tstd  
    3c4b:	27 0d       	beq   0x3c5a <L150>
    3c4d:	19 f0 13    	leay  19,sp
    3c50:	18 00 80 40 	movw  #0x40ef <LC5>,0,sp
    3c54:	ef 

0x00003c55 <L183>:
    3c55:	b7 64       	tfr   y,d
    3c57:	16 3d 3a    	jsr   0x3d3a <_strcpy__FPcPCc>

0x00003c5a <L150>:
    3c5a:	ed 8f       	ldy   15,sp
    3c5c:	6d 80       	sty   0,sp
    3c5e:	1a f0 13    	leax  19,sp
    3c61:	6e 82       	stx   2,sp
    3c63:	ec f0 11    	ldd   17,sp
    3c66:	16 36 04    	jsr   0x3604 <_puts__7ostreamPCcT1>

0x00003c69 <LBE2>:
    3c69:	1b f0 21    	leas  33,sp
    3c6c:	3d          	rts   

0x00003c6d <_sync__9streambuf>:
    3c6d:	87 c7       	clrd  

0x00003c6f <LBE2>:
    3c6f:	3d          	rts   

0x00003c70 <_overflow__9streambufi>:
    3c70:	cc ff ff    	ldd   #0xffff <.stab+0x7b>

0x00003c73 <LBE2>:
    3c73:	3d          	rts   

0x00003c74 <_underflow__9streambuf>:
    3c74:	cc ff ff    	ldd   #0xffff <.stab+0x7b>

0x00003c77 <LBE2>:
    3c77:	3d          	rts   

0x00003c78 <_memcpy>:
    3c78:	1b 9e       	leas  -2,sp
    3c7a:	6c 80       	std   0,sp
    3c7c:	ec 86       	ldd   6,sp

0x00003c7e <LBB2>:
    3c7e:	ee 80       	ldx   0,sp
    3c80:	ed 84       	ldy   4,sp
    3c82:	20 04       	bra   0x3c88 <L6>

0x00003c84 <L4>:
    3c84:	18 0a 70 30 	movb  1,y+,1,x+

0x00003c88 <L6>:
    3c88:	c3 ff ff    	addd  #0xffff <.stab+0x7b>
    3c8b:	8c ff ff    	cpd   #0xffff <.stab+0x7b>
    3c8e:	26 f4       	bne   0x3c84 <L4>
    3c90:	ec 80       	ldd   0,sp

0x00003c92 <LBE2>:
    3c92:	1b 82       	leas  2,sp
    3c94:	3d          	rts   

0x00003c95 <_stossc__9streambuf>:
    3c95:	b7 46       	tfr   d,y

0x00003c97 <LBB2>:
    3c97:	ec 4e       	ldd   14,y
    3c99:	ac e8 10    	cpd   16,y
    3c9c:	25 0b       	bcs   0x3ca9 <L136>
    3c9e:	ee e8 12    	ldx   18,y
    3ca1:	b7 64       	tfr   y,d
    3ca3:	15 e3 00 12 	jsr   [18,x]
    3ca7:	20 05       	bra   0x3cae <L137>

0x00003ca9 <L136>:
    3ca9:	c3 00 01    	incd  
    3cac:	6c 4e       	std   14,y

0x00003cae <L137>:
    3cae:	3d          	rts   

0x00003caf <_init__3iosP9streambufP7ostream>:
    3caf:	b7 46       	tfr   d,y
    3cb1:	ec 82       	ldd   2,sp

0x00003cb3 <LBB2>:
    3cb3:	6c 40       	std   0,y
    3cb5:	18 02 84 42 	movw  4,sp,2,y
    3cb9:	8c 00 00    	tstd  
    3cbc:	26 07       	bne   0x3cc5 <L136>
    3cbe:	18 00 44 00 	movw  #0x4 <eot>,4,y
    3cc2:	04 
    3cc3:	20 05       	bra   0x3cca <L137>

0x00003cc5 <L136>:
    3cc5:	18 00 44 00 	movw  #0x0 <*ABS*>,4,y
    3cc9:	00 

0x00003cca <L137>:
    3cca:	18 00 46 00 	movw  #0x21 <_brkct1>,6,y
    3cce:	21 
    3ccf:	18 00 48 00 	movw  #0x0 <*ABS*>,8,y
    3cd3:	00 
    3cd4:	18 00 4a 00 	movw  #0x6 <aa_siz>,10,y
    3cd8:	06 
    3cd9:	18 00 4c 00 	movw  #0x20 <_brkct0>,12,y
    3cdd:	20 

0x00003cde <LBE2>:
    3cde:	3d          	rts   

0x00003cdf <_strlen__FPCc>:
    3cdf:	b7 46       	tfr   d,y

0x00003ce1 <LBB2>:
    3ce1:	b7 65       	tfr   y,x
    3ce3:	e7 40       	tst   0,y
    3ce5:	27 04       	beq   0x3ceb <L3>

0x00003ce7 <L4>:
    3ce7:	e7 60       	tst   1,+y
    3ce9:	26 fc       	bne   0x3ce7 <L4>

0x00003ceb <L3>:
    3ceb:	b7 64       	tfr   y,d
    3ced:	34          	pshx  
    3cee:	a3 b1       	subd  2,sp+
    3cf0:	b7 46       	tfr   d,y

0x00003cf2 <LBE2>:
    3cf2:	3d          	rts   

0x00003cf3 <___12strstreambufPciT1>:
    3cf3:	1b 98       	leas  -8,sp
    3cf5:	6c 86       	std   6,sp
    3cf7:	16 32 58    	jsr   0x3258 <___9streambuf>
    3cfa:	cc 40 f1    	ldd   #0x40f1 <___vt_12strstreambuf>
    3cfd:	ed 86       	ldy   6,sp
    3cff:	6c e8 12    	std   18,y

0x00003d02 <LBB2>:
    3d02:	ed 8a       	ldy   10,sp
    3d04:	6d 80       	sty   0,sp
    3d06:	ec 8c       	ldd   12,sp
    3d08:	6c 82       	std   2,sp
    3d0a:	ed 8e       	ldy   14,sp
    3d0c:	6d 84       	sty   4,sp
    3d0e:	ec 86       	ldd   6,sp
    3d10:	16 3d 4d    	jsr   0x3d4d <_init__12strstreambufPciT1>

0x00003d13 <LBE2>:
    3d13:	ec 86       	ldd   6,sp
    3d15:	1b 88       	leas  8,sp
    3d17:	3d          	rts   

0x00003d18 <__$_12strstreambuf>:
    3d18:	1b 9e       	leas  -2,sp
    3d1a:	b7 45       	tfr   d,x
    3d1c:	cd 40 f1    	ldy   #0x40f1 <___vt_12strstreambuf>
    3d1f:	6d e0 12    	sty   18,x

0x00003d22 <LBB2>:
    3d22:	18 02 84 80 	movw  4,sp,0,sp
    3d26:	16 32 ad    	jsr   0x32ad <__$_9streambuf>
    3d29:	1b 82       	leas  2,sp
    3d2b:	3d          	rts   

0x00003d2c <_tolower__Fi>:
    3d2c:	b7 46       	tfr   d,y
    3d2e:	1a e9 bf    	leax  -65,y
    3d31:	8e 00 19    	cpx   #0x19 <em>
    3d34:	22 03       	bhi   0x3d39 <L2>
    3d36:	c3 00 20    	addd  #0x20 <_brkct0>

0x00003d39 <L2>:
    3d39:	3d          	rts   

0x00003d3a <_strcpy__FPcPCc>:
    3d3a:	1b 9e       	leas  -2,sp
    3d3c:	b7 46       	tfr   d,y
    3d3e:	ee 84       	ldx   4,sp

0x00003d40 <LBB2>:
    3d40:	6d 80       	sty   0,sp

0x00003d42 <L2>:
    3d42:	e6 30       	ldab  1,x+
    3d44:	6b 70       	stab  1,y+
    3d46:	26 fa       	bne   0x3d42 <L2>
    3d48:	ec 80       	ldd   0,sp

0x00003d4a <LBE2>:
    3d4a:	1b 82       	leas  2,sp
    3d4c:	3d          	rts   

0x00003d4d <_init__12strstreambufPciT1>:
    3d4d:	1b 98       	leas  -8,sp
    3d4f:	6c 86       	std   6,sp
    3d51:	ec 8c       	ldd   12,sp

0x00003d53 <LBB2>:
    3d53:	26 05       	bne   0x3d5a <L162>
    3d55:	ec 8a       	ldd   10,sp
    3d57:	16 3c df    	jsr   0x3cdf <_strlen__FPCc>

0x00003d5a <L162>:
    3d5a:	ed 8a       	ldy   10,sp
    3d5c:	6d 80       	sty   0,sp
    3d5e:	1a ee       	leax  d,y
    3d60:	6e 82       	stx   2,sp
    3d62:	18 00 84 00 	movw  #0x0 <*ABS*>,4,sp
    3d66:	00 
    3d67:	ec 86       	ldd   6,sp
    3d69:	16 3e 53    	jsr   0x3e53 <_setb__9streambufPcT1i>

0x00003d6c <LBB3>:
    3d6c:	ed 8e       	ldy   14,sp
    3d6e:	27 1e       	beq   0x3d8e <L163>

0x00003d70 <LBB4>:
    3d70:	ed 86       	ldy   6,sp
    3d72:	ec 44       	ldd   4,y

0x00003d74 <LBE5>:
    3d74:	ed 8e       	ldy   14,sp
    3d76:	6d 80       	sty   0,sp
    3d78:	6c 82       	std   2,sp
    3d7a:	ec 86       	ldd   6,sp
    3d7c:	16 32 a0    	jsr   0x32a0 <_setp__9streambufPcT1>

0x00003d7f <LBB7>:
    3d7f:	ed 86       	ldy   6,sp
    3d81:	ee 44       	ldx   4,y

0x00003d83 <LBE7>:
    3d83:	ec 8e       	ldd   14,sp
    3d85:	34          	pshx  
    3d86:	ac b1       	cpd   2,sp+
    3d88:	23 08       	bls   0x3d92 <L169>
    3d8a:	b7 54       	tfr   x,d

0x00003d8c <LBE4>:
    3d8c:	20 04       	bra   0x3d92 <L169>

0x00003d8e <L163>:
    3d8e:	ed 86       	ldy   6,sp
    3d90:	ec 44       	ldd   4,y

0x00003d92 <L169>:
    3d92:	ed 8a       	ldy   10,sp
    3d94:	6d 80       	sty   0,sp
    3d96:	6d 82       	sty   2,sp
    3d98:	6c 84       	std   4,sp
    3d9a:	ec 86       	ldd   6,sp
    3d9c:	16 32 90    	jsr   0x3290 <_setg__9streambufPcN21>

0x00003d9f <LBE2>:
    3d9f:	1b 88       	leas  8,sp
    3da1:	3d          	rts   

0x00003da2 <_overflow__12strstreambufi>:
    3da2:	cc ff ff    	ldd   #0xffff <.stab+0x7b>

0x00003da5 <LBE2>:
    3da5:	3d          	rts   

0x00003da6 <_underflow__12strstreambuf>:
    3da6:	1b 91       	leas  -15,sp
    3da8:	6c 8d       	std   13,sp

0x00003daa <LBB2>:
    3daa:	b7 46       	tfr   d,y
    3dac:	ed e8 10    	ldy   16,y
    3daf:	6d 86       	sty   6,sp

0x00003db1 <LBB6>:
    3db1:	b7 46       	tfr   d,y
    3db3:	ee 4e       	ldx   14,y

0x00003db5 <LBE6>:
    3db5:	c7          	clrb  
    3db6:	6b 8a       	stab  10,sp
    3db8:	ed 86       	ldy   6,sp
    3dba:	34          	pshx  
    3dbb:	ad b1       	cpy   2,sp+
    3dbd:	23 04       	bls   0x3dc3 <L165>
    3dbf:	c6 01       	ldab  #0x1
    3dc1:	6b 8a       	stab  10,sp

0x00003dc3 <L165>:
    3dc3:	e7 8a       	tst   10,sp
    3dc5:	27 06       	beq   0x3dcd <L162>

0x00003dc7 <LBB10>:
    3dc7:	e6 00       	ldab  0,x
    3dc9:	87          	clra  
    3dca:	06 3e 50    	jmp   0x3e50 <L190>

0x00003dcd <L162>:
    3dcd:	c7          	clrb  
    3dce:	6b 8c       	stab  12,sp

0x00003dd0 <LBB12>:
    3dd0:	ed 8d       	ldy   13,sp
    3dd2:	ee 42       	ldx   2,y

0x00003dd4 <LBE12>:
    3dd4:	27 0a       	beq   0x3de0 <L168>

0x00003dd6 <LBB14>:
    3dd6:	ec 48       	ldd   8,y

0x00003dd8 <LBB16>:
    3dd8:	ac 46       	cpd   6,y
    3dda:	23 04       	bls   0x3de0 <L168>
    3ddc:	c6 01       	ldab  #0x1
    3dde:	6b 8c       	stab  12,sp

0x00003de0 <L168>:
    3de0:	e7 8c       	tst   12,sp
    3de2:	18 27 00 67 	lbeq  0x3e4d <L167>

0x00003de6 <LBB18>:
    3de6:	c7          	clrb  
    3de7:	6b 8b       	stab  11,sp

0x00003de9 <LBB20>:
    3de9:	ed 8d       	ldy   13,sp
    3deb:	ee 4e       	ldx   14,y

0x00003ded <LBE20>:
    3ded:	27 04       	beq   0x3df3 <L174>

0x00003def <LBB22>:
    3def:	ae 46       	cpx   6,y
    3df1:	24 04       	bcc   0x3df7 <L173>

0x00003df3 <L174>:
    3df3:	c6 01       	ldab  #0x1
    3df5:	6b 8b       	stab  11,sp

0x00003df7 <L173>:
    3df7:	e7 8b       	tst   11,sp
    3df9:	27 1c       	beq   0x3e17 <L172>

0x00003dfb <LBB26>:
    3dfb:	ed 8d       	ldy   13,sp
    3dfd:	ed 46       	ldy   6,y
    3dff:	6d 88       	sty   8,sp

0x00003e01 <LBB31>:
    3e01:	ed 8d       	ldy   13,sp
    3e03:	ed 48       	ldy   8,y
    3e05:	6d 86       	sty   6,sp

0x00003e07 <LBE31>:
    3e07:	ed 8d       	ldy   13,sp
    3e09:	ed 42       	ldy   2,y
    3e0b:	6d 80       	sty   0,sp
    3e0d:	ec 88       	ldd   8,sp
    3e0f:	6c 82       	std   2,sp
    3e11:	ed 86       	ldy   6,sp
    3e13:	6d 84       	sty   4,sp

0x00003e15 <LBE26>:
    3e15:	20 28       	bra   0x3e3f <L191>

0x00003e17 <L172>:
    3e17:	ed 8d       	ldy   13,sp
    3e19:	ed 4e       	ldy   14,y
    3e1b:	6d 86       	sty   6,sp

0x00003e1d <LBB37>:
    3e1d:	ed 8d       	ldy   13,sp
    3e1f:	ee 48       	ldx   8,y

0x00003e21 <LBE37>:
    3e21:	c7          	clrb  
    3e22:	6b 88       	stab  8,sp
    3e24:	ed 86       	ldy   6,sp
    3e26:	34          	pshx  
    3e27:	ad b1       	cpy   2,sp+
    3e29:	24 04       	bcc   0x3e2f <L185>
    3e2b:	c6 01       	ldab  #0x1
    3e2d:	6b 88       	stab  8,sp

0x00003e2f <L185>:
    3e2f:	e7 88       	tst   8,sp
    3e31:	27 11       	beq   0x3e44 <L181>

0x00003e33 <LBB39>:
    3e33:	ed 8d       	ldy   13,sp
    3e35:	ed 4c       	ldy   12,y
    3e37:	6d 80       	sty   0,sp
    3e39:	ec 86       	ldd   6,sp
    3e3b:	6c 82       	std   2,sp
    3e3d:	6e 84       	stx   4,sp

0x00003e3f <L191>:
    3e3f:	ec 8d       	ldd   13,sp
    3e41:	16 32 90    	jsr   0x3290 <_setg__9streambufPcN21>

0x00003e44 <L181>:
    3e44:	ed 8d       	ldy   13,sp
    3e46:	e6 eb 00 0e 	ldab  [14,y]
    3e4a:	87          	clra  
    3e4b:	20 03       	bra   0x3e50 <L190>

0x00003e4d <L167>:
    3e4d:	cc ff ff    	ldd   #0xffff <.stab+0x7b>

0x00003e50 <L190>:
    3e50:	1b 8f       	leas  15,sp
    3e52:	3d          	rts   

0x00003e53 <_setb__9streambufPcT1i>:
    3e53:	1b 9e       	leas  -2,sp
    3e55:	6c 80       	std   0,sp

0x00003e57 <LBB2>:
    3e57:	ee f3 00 00 	ldx   [0,sp]
    3e5b:	27 0b       	beq   0x3e68 <L136>
    3e5d:	b7 46       	tfr   d,y
    3e5f:	ee 42       	ldx   2,y
    3e61:	27 05       	beq   0x3e68 <L136>
    3e63:	b7 54       	tfr   x,d
    3e65:	16 25 c6    	jsr   0x25c6 <___builtin_vec_delete>

0x00003e68 <L136>:
    3e68:	ec 84       	ldd   4,sp
    3e6a:	ed 80       	ldy   0,sp
    3e6c:	6c 42       	std   2,y
    3e6e:	ec 86       	ldd   6,sp
    3e70:	6c 44       	std   4,y
    3e72:	ed 88       	ldy   8,sp
    3e74:	6d f3 00 00 	sty   [0,sp]

0x00003e78 <LBE2>:
    3e78:	1b 82       	leas  2,sp
    3e7a:	3d          	rts   

0x00003e7b <LC0>:
    3e7b:	49          	lsrd  
    3e7c:	8b 49       	adda  #0x49

0x00003e7d <LC1>:
    3e7d:	49          	lsrd  
    3e7e:	8d 00 00    	tsty  

0x00003e7f <___vt_5Ictlr>:
    3e7f:	00          	bgnd  
    3e80:	00          	bgnd  
    3e81:	00          	bgnd  
    3e82:	00          	bgnd  
    3e83:	11          	ediv  
    3e84:	20 00       	bra   0x3e86 <___vt_3Isr+0x1>

0x00003e85 <___vt_3Isr>:
    3e85:	00          	bgnd  
    3e86:	00          	bgnd  
    3e87:	00          	bgnd  
    3e88:	00          	bgnd  
    3e89:	10 b0       	andcc #0xb0
    3e8b:	10 da       	andcc #0xda

0x00003e8d <___vt_16PriorityTaskList>:
    3e8d:	00          	bgnd  
    3e8e:	00          	bgnd  
    3e8f:	00          	bgnd  
    3e90:	00          	bgnd  
    3e91:	12          	mul   
    3e92:	78 11 93    	asl   0x1193 <_insert__16PriorityTaskListPQ28TaskList4Node>

0x00003e95 <LC0>:
    3e95:	00          	bgnd  
    3e96:	00          	bgnd  
	...

0x00003e99 <___vt_9PwmDriver>:
    3e99:	00          	bgnd  
    3e9a:	00          	bgnd  
    3e9b:	00          	bgnd  
    3e9c:	00          	bgnd  
    3e9d:	17 16       	jsr   0x16 <syn>
    3e9f:	16 91 00    	jsr   0x9100 <.stab+0x508>

0x00003ea1 <___vt_9HC12Ictlr>:
    3ea1:	00          	bgnd  
    3ea2:	00          	bgnd  
    3ea3:	00          	bgnd  
    3ea4:	00          	bgnd  
    3ea5:	17 45       	jsr   0x45 <_pwscnt0>

0x00003ea7 <___vt_5Mutex>:
    3ea7:	00          	bgnd  
    3ea8:	00          	bgnd  
    3ea9:	00          	bgnd  
    3eaa:	00          	bgnd  
    3eab:	1a 08       	leax  8,x
    3ead:	28 e7       	bvc   0x3e96 <LC0+0x1>

0x00003eaf <___vt_3Spi>:
    3eaf:	00          	bgnd  
    3eb0:	00          	bgnd  
    3eb1:	00          	bgnd  
    3eb2:	00          	bgnd  
    3eb3:	1a 29       	leax  7,-x
    3eb5:	1a 5b       	leax  -5,y
    3eb7:	1a 5a       	leax  -6,y

0x00003eb9 <LC0>:
    3eb9:	08          	inx   
    3eba:	20 08       	bra   0x3ec4 <LC1+0x7>
	...

0x00003ebd <LC1>:
    3ebd:	75 6e 6b    	rol   0x6e6b <.stab+0x20b>
    3ec0:	6e 6f       	stx   1,-y
    3ec2:	77 6e 20    	asr   0x6e20 <.stab+0x1c0>
    3ec5:	63 6f       	dec   1,-y
    3ec7:	6d 6d       	sty   3,-y
    3ec9:	61 6e       	com   2,-y
    3ecb:	64 00       	lsr   0,x

0x00003ecd <LC2>:
    3ecd:	45          	rola  
    3ece:	72 72 6f    	inc   0x726f <.stab+0x60f>
    3ed1:	72 3a 20    	inc   0x3a20 <L172+0x9>
	...

0x00003ed5 <___vt_3Cmd>:
    3ed5:	00          	bgnd  
    3ed6:	00          	bgnd  
    3ed7:	00          	bgnd  
    3ed8:	00          	bgnd  
    3ed9:	1a 68       	leax  8,-y

0x00003edb <LC0>:
    3edb:	48          	asla  
    3edc:	65 6c       	rol   4,-y
    3ede:	6c 6f       	std   1,-y
    3ee0:	2c 20       	bge   0x3f02 <___vt_9TimerTask$3Isr+0x7>
    3ee2:	77 6f 72    	asr   0x6f72 <.stab+0x312>
    3ee5:	6c 64       	std   5,+y
    3ee7:	21 00       	brn   0x3ee9 <___vt_7HC12Spi>

0x00003ee9 <___vt_7HC12Spi>:
    3ee9:	00          	bgnd  
    3eea:	00          	bgnd  
    3eeb:	00          	bgnd  
    3eec:	00          	bgnd  
    3eed:	1f 9c 1e fd 	brclr 0x9c1e <.stab+0x89a>,#0xfd,0x3f11 <___vt_7Ltc1404+0x6>
    3ef1:	1f 
    3ef2:	50          	negb  

0x00003ef3 <___vt_8TestTask>:
    3ef3:	00          	bgnd  
    3ef4:	00          	bgnd  
    3ef5:	00          	bgnd  
    3ef6:	00          	bgnd  
    3ef7:	20 05       	bra   0x3efe <___vt_9TimerTask$3Isr+0x3>
    3ef9:	1f b5 ff f8 	brclr 0xb5ff <.stab+0x13b7>,#0xf8,0x3efe <___vt_9TimerTask$3Isr+0x3>
    3efd:	00 

0x00003efb <___vt_9TimerTask$3Isr>:
    3efb:	ff f8 00    	lds   0xf800 <.stab+0x134>
    3efe:	00          	bgnd  
    3eff:	21 4e       	brn   0x3f4f <LC7+0x1>
    3f01:	21 54       	brn   0x3f57 <LC7+0x9>

0x00003f03 <___vt_9TimerTask>:
    3f03:	00          	bgnd  
    3f04:	00          	bgnd  
    3f05:	00          	bgnd  
    3f06:	00          	bgnd  
    3f07:	20 99       	bra   0x3ea2 <___vt_9HC12Ictlr+0x1>
    3f09:	20 f8       	bra   0x3f03 <___vt_9TimerTask>

0x00003f0b <___vt_7Ltc1404>:
    3f0b:	00          	bgnd  
    3f0c:	00          	bgnd  
    3f0d:	00          	bgnd  
    3f0e:	00          	bgnd  
    3f0f:	21 c9       	brn   0x3eda <___vt_3Cmd+0x5>
    3f11:	21 5a       	brn   0x3f6d <LC9+0x9>

0x00003f13 <LC0>:
    3f13:	48          	asla  
    3f14:	65 6c       	rol   4,-y
    3f16:	6c 6f       	std   1,-y
    3f18:	2c 20       	bge   0x3f3a <LC3+0xc>
    3f1a:	77 6f 72    	asr   0x6f72 <.stab+0x312>
    3f1d:	6c 64       	std   5,+y
    3f1f:	21 00       	brn   0x3f21 <LC1>

0x00003f21 <LC1>:
    3f21:	6e 65       	stx   6,+y
    3f23:	65 64       	rol   5,+y
    3f25:	20 73       	bra   0x3f9a <___vt_13HC12TimerTask$3Isr>
    3f27:	74 61 72    	lsr   0x6172 <.stab+0xb86>
    3f2a:	74 00 20    	lsr   0x20 <_brkct0>

0x00003f2c <LC2>:
    3f2c:	20 00       	bra   0x3f2e <LC3>

0x00003f2e <LC3>:
    3f2e:	6e 65       	stx   6,+y
    3f30:	65 64       	rol   5,+y
    3f32:	20 64       	bra   0x3f98 <___vt_10AppCmdProc+0x6>
    3f34:	75 74 79    	rol   0x7479 <.stab+0x819>
    3f37:	20 63       	bra   0x3f9c <___vt_13HC12TimerTask$3Isr+0x2>
    3f39:	79 63 6c    	clr   0x636c <.stab+0xd80>
    3f3c:	65 00       	rol   0,x

0x00003f3e <LC4>:
    3f3e:	54          	lsrb  
    3f3f:	45          	rola  
    3f40:	43          	deca  
    3f41:	3e          	wai   
	...

0x00003f43 <LC5>:
    3f43:	68 65       	asl   6,+y
    3f45:	6c 6c       	std   4,-y
    3f47:	6f 00       	sts   0,x

0x00003f49 <LC6>:
    3f49:	64 75       	lsr   6,y+
    3f4b:	6d 70       	sty   1,y+
	...

0x00003f4e <LC7>:
    3f4e:	73 65 74    	dec   0x6574 <.stab+0x16c>
    3f51:	74 65 63    	lsr   0x6563 <.stab+0x15b>
    3f54:	64 75       	lsr   6,y+
    3f56:	74 79 00    	lsr   0x7900 <.stab+0xca0>

0x00003f59 <LC8>:
    3f59:	73 65 74    	dec   0x6574 <.stab+0x16c>
    3f5c:	6c 73       	std   4,y+
    3f5e:	72 64 75    	inc   0x6475 <.stab+0x6d>
    3f61:	74 79 00    	lsr   0x7900 <.stab+0xca0>

0x00003f64 <LC9>:
    3f64:	67 65       	asr   6,+y
    3f66:	74 74 65    	lsr   0x7465 <.stab+0x805>
    3f69:	63 64       	dec   5,+y
    3f6b:	75 74 79    	rol   0x7479 <.stab+0x819>
	...

0x00003f6f <LC10>:
    3f6f:	67 65       	asr   6,+y
    3f71:	74 6c 73    	lsr   0x6c73 <.stab+0x13>
    3f74:	72 64 75    	inc   0x6475 <.stab+0x6d>
    3f77:	74 79 00    	lsr   0x7900 <.stab+0xca0>

0x00003f7a <___vt_10GetDutyCmd>:
    3f7a:	00          	bgnd  
    3f7b:	00          	bgnd  
    3f7c:	00          	bgnd  
    3f7d:	00          	bgnd  
    3f7e:	23 c3       	bls   0x3f43 <LC5>

0x00003f80 <___vt_10SetDutyCmd>:
    3f80:	00          	bgnd  
    3f81:	00          	bgnd  
    3f82:	00          	bgnd  
    3f83:	00          	bgnd  
    3f84:	23 f7       	bls   0x3f7d <___vt_10GetDutyCmd+0x3>

0x00003f86 <___vt_10DumpMemCmd>:
    3f86:	00          	bgnd  
    3f87:	00          	bgnd  
    3f88:	00          	bgnd  
    3f89:	00          	bgnd  
    3f8a:	24 3e       	bcc   0x3fca <___vt_8TaskList>

0x00003f8c <___vt_8HelloCmd>:
    3f8c:	00          	bgnd  
    3f8d:	00          	bgnd  
    3f8e:	00          	bgnd  
    3f8f:	00          	bgnd  
    3f90:	24 cb       	bcc   0x3f5d <LC8+0x4>

0x00003f92 <___vt_10AppCmdProc>:
    3f92:	ff fc 00    	lds   0xfc00 <.stab+0xd8>
    3f95:	00          	bgnd  
    3f96:	23 b7       	bls   0x3f4f <LC7+0x1>
    3f98:	23 bd       	bls   0x3f57 <LC7+0x9>

0x00003f9a <___vt_13HC12TimerTask$3Isr>:
    3f9a:	ff f8 00    	lds   0xf800 <.stab+0x134>
    3f9d:	00          	bgnd  
    3f9e:	25 88       	bcs   0x3f28 <LC1+0x7>
    3fa0:	25 8e       	bcs   0x3f30 <LC3+0x2>

0x00003fa2 <___vt_13HC12TimerTask>:
    3fa2:	00          	bgnd  
    3fa3:	00          	bgnd  
    3fa4:	00          	bgnd  
    3fa5:	00          	bgnd  
    3fa6:	25 56       	bcs   0x3ffe <Lhalves.90+0xe>
    3fa8:	20 f8       	bra   0x3fa2 <___vt_13HC12TimerTask>

0x00003faa <___vt_6SciBuf>:
    3faa:	00          	bgnd  
    3fab:	00          	bgnd  
    3fac:	00          	bgnd  
    3fad:	00          	bgnd  
    3fae:	26 3f       	bne   0x3fef <LC1+0x1>
    3fb0:	33          	pulb  
    3fb1:	03          	dey   
    3fb2:	33          	pulb  
    3fb3:	0f 33 13 26 	brclr 4,x+,#0x13,0x3fdd <___vt_10istrstream$3ios+0x3>
    3fb7:	d3 26       	addd  0x26 <_rsvd26>
    3fb9:	ba 33 2e    	oraa  0x332e <_xsputn__9streambufPCci>
    3fbc:	26 72       	bne   0x4030 <Lhalves.90+0x40>
    3fbe:	33          	pulb  
    3fbf:	b5 34 1d    	bita  0x341d <_pbackfail__9streambufi>

0x00003fc2 <___vt_13DeltaTaskList>:
    3fc2:	00          	bgnd  
    3fc3:	00          	bgnd  
    3fc4:	00          	bgnd  
    3fc5:	00          	bgnd  
    3fc6:	28 82       	bvc   0x3f4a <LC6+0x1>
    3fc8:	27 7a       	beq   0x4044 <Lhalves.90+0x54>

0x00003fca <___vt_8TaskList>:
    3fca:	00          	bgnd  
    3fcb:	00          	bgnd  
    3fcc:	00          	bgnd  
    3fcd:	00          	bgnd  
    3fce:	28 d0       	bvc   0x3fa0 <___vt_13HC12TimerTask$3Isr+0x6>
    3fd0:	28 e7       	bvc   0x3fb9 <___vt_6SciBuf+0xf>

0x00003fd2 <___vt_4Task>:
    3fd2:	00          	bgnd  
    3fd3:	00          	bgnd  
    3fd4:	00          	bgnd  
    3fd5:	00          	bgnd  
    3fd6:	2a 1b       	bpl   0x3ff3 <Lhalves.90+0x3>
    3fd8:	29 8d       	bvs   0x3f67 <LC9+0x3>

0x00003fda <___vt_10istrstream$3ios>:
    3fda:	ff e6 00    	lds   0xe600 <.stab+0xdb8>
    3fdd:	00          	bgnd  
    3fde:	2d e5       	blt   0x3fc5 <___vt_13DeltaTaskList+0x3>

0x00003fe0 <___vt_7ostream$3ios>:
    3fe0:	ff fe 00    	lds   0xfe00 <.stab+0x2d8>
    3fe3:	00          	bgnd  
    3fe4:	2e 23       	bgt   0x4009 <Lhalves.90+0x19>

0x00003fe6 <___vt_7istream$3ios>:
    3fe6:	ff fc 00    	lds   0xfc00 <.stab+0xd8>
    3fe9:	00          	bgnd  
    3fea:	2e 5e       	bgt   0x404a <Lhalves.90+0x5a>

0x00003fec <LC0>:
    3fec:	2b 00       	bmi   0x3fee <LC1>

0x00003fee <LC1>:
    3fee:	2d 00       	blt   0x3ff0 <Lhalves.90>

0x00003ff0 <Lhalves.90>:
    3ff0:	3f          	swi   
    3ff1:	00          	bgnd  
    3ff2:	00          	bgnd  
    3ff3:	00          	bgnd  
    3ff4:	3d          	rts   
    3ff5:	4c cc cd    	bset  0xcc <_rsvdC8+0x4>,#0xcd
    3ff8:	3b          	pshd  
    3ff9:	a3 d7       	subd  0x3ff2 <Lhalves.90+0x2>,pc
    3ffb:	0a          	rtc   
    3ffc:	3a          	puld  
    3ffd:	03          	dey   
    3ffe:	12          	mul   
    3fff:	6f 38       	sts   8,x-
    4001:	51          	comb  
    4002:	b7 17       	tfr   b,sp
    4004:	36          	psha  
    4005:	a7          	nop   
    4006:	c5 ac       	bitb  #0xac
    4008:	35          	pshy  
    4009:	06 37 bd    	jmp   0x37bd <LBB54>
    400c:	33          	pulb  
    400d:	56          	rorb  
    400e:	bf 95 31    	cps   0x9531 <.stab+0x1ad>
    4011:	ab cc       	adda  0x401f <Lhalves.90+0x2f>,pc
    4013:	77 30 09    	asr   0x3009 <LBE5+0xb>
    4016:	70 5f 2e    	neg   0x5f2e <.stab+0x942>
    4019:	5b e6       	stab  0xe6 <_rsvdE0+0x6>
    401b:	ff 2c af    	lds   0x2caf <_isprint__Fi+0x6>
    401e:	eb ff       	addb  [d,pc]
    4020:	2b 0c       	bmi   0x402e <Lhalves.90+0x3e>
    4022:	bc cc 29    	cpd   0xcc29 <.stab+0x971>
    4025:	61 2e       	com   2,-x
    4027:	13          	emul  
    4028:	27 b4       	beq   0x3fde <___vt_10istrstream$3ios+0x4>
    402a:	24 dc       	bcc   0x4008 <Lhalves.90+0x18>
    402c:	26 10       	bne   0x403e <Lhalves.90+0x4e>
    402e:	1d 7d 24 66 	bclr  0x7d24 <_heap_top+0x124>,#0x66
    4032:	95 95       	bita  0x95 <_tc2+0x1>
    4034:	22 b8       	bhi   0x3fee <LC1>
    4036:	77 aa 21    	asr   0xaa21 <.stab+0x7d9>
    4039:	13          	emul  
    403a:	92 ef       	sbca  0xef <_rsvdE0+0xf>
    403c:	1f 6c 1e 4a 	brclr 0x6c1e <.stab+0x816>,#0x4a,0x405e <Lhalves.90+0x6e>
    4040:	1d 
    4041:	bc e5 08    	cpd   0xe508 <.stab+0xcc0>
    4044:	1c 17 1d a0 	bset  0x171d <LBB30+0x5>,#0xa0
    4048:	1a 71       	leax  2,y+
    404a:	c9 01       	adcb  #0x1
    404c:	18 c1       	trap  0xc1
    404e:	6d 9a       	sty   -6,sp
    4050:	17 1a       	jsr   0x1a <sub>
    4052:	be 15 15    	cpx   0x1515 <L101+0xb>
    4055:	77 96 88    	asr   0x9688 <.stab+0x304>
    4058:	13          	emul  
    4059:	c6 12       	ldab  #0x12
    405b:	06 12 1e    	jmp   0x121e <L47+0xd>
    405e:	74 d2 10    	lsr   0xd210 <.stab+0x454>
    4061:	7d 87 b6    	sty   0x87b6 <_stack_top+0x7b6>
    4064:	0e ca d2 f8 	brset 0x4070 <Lhalves.90+0x80>,pc,#0xd2,0x4060 <Lhalves.90+0x70>
    4068:	0d 22 42    	bclr  3,+x,#0x42
    406b:	60 0b       	neg   11,x
    406d:	81 ce       	cmpa  #0xce
    406f:	b3 09 cf    	subd  0x9cf <_ddrdlc+0x8d0>
    4072:	b1 1f 08    	cmpa  0x1f08 <L555+0x3>
    4075:	26 27       	bne   0x409e <LC2+0x2>
    4077:	4c 06 84    	bset  0x6 <aa_siz>,#0x84
    407a:	ec 3d       	ldd   3,x-
    407c:	04          	04
    407d:	d4 ad       	andb  0xad <_timtst>
    407f:	2e 03       	bgt   0x4084 <Lhalves.90+0x94>
    4081:	2a 24       	bpl   0x40a7 <___vt_9streambuf+0x7>
    4083:	25 01       	bcs   0x4086 <Lhalves.90+0x96>
    4085:	88 1c       	eora  #0x1c
    4087:	ea 00       	orab  0,x
    4089:	36          	psha  
    408a:	71 f7 00    	com   0xf700 <.stab+0x34>
    408d:	05 71       	jmp   2,y+
    408f:	cc 41 20    	ldd   #0x4120 <___hc12_tstsf+0xd>

0x00004090 <LC2>:
    4090:	41          	coma  
    4091:	20 00       	bra   0x4093 <LC2+0x3>
	...

0x00004094 <LC0>:
    4094:	00          	bgnd  
    4095:	00          	bgnd  
	...

0x00004098 <LC1>:
    4098:	41          	coma  
    4099:	20 00       	bra   0x409b <LC1+0x3>
	...

0x0000409c <LC2>:
    409c:	3f          	swi   
    409d:	80 00       	suba  #0x0
	...

0x000040a0 <___vt_9streambuf>:
    40a0:	00          	bgnd  
    40a1:	00          	bgnd  
    40a2:	00          	bgnd  
    40a3:	00          	bgnd  
    40a4:	32          	pula  
    40a5:	ad 33       	cpy   4,x+
    40a7:	03          	dey   
    40a8:	33          	pulb  
    40a9:	0f 33 13 3c 	brclr 4,x+,#0x13,0x40e9 <LC3+0xf>
    40ad:	6d 3c       	sty   4,x-
    40af:	70 33 2e    	neg   0x332e <_xsputn__9streambufPCci>
    40b2:	3c          	3c
    40b3:	74 33 b5    	lsr   0x33b5 <_xsgetn__9streambufPci>
    40b6:	34          	pshx  
    40b7:	1d ff ea 00 	bclr  0xffea <.stab+0x66>,#0x0

0x000040b8 <___vt_13strstreambase$3ios>:
    40b8:	ff ea 00    	lds   0xea00 <.stab+0x324>
    40bb:	00          	bgnd  
    40bc:	39          	pshc  
    40bd:	21 00       	brn   0x40bf <___vt_3ios+0x1>

0x000040be <___vt_3ios>:
    40be:	00          	bgnd  
    40bf:	00          	bgnd  
    40c0:	00          	bgnd  
    40c1:	00          	bgnd  
    40c2:	39          	pshc  
    40c3:	27 00       	beq   0x40c5 <LC1>

0x000040c4 <LC0>:
	...

0x000040c5 <LC1>:
    40c5:	30          	pulx  
	...

0x000040c7 <LC2>:
    40c7:	30          	pulx  
    40c8:	31          	puly  
    40c9:	32          	pula  
    40ca:	33          	pulb  
    40cb:	34          	pshx  
    40cc:	35          	pshy  
    40cd:	36          	psha  
    40ce:	37          	pshb  
    40cf:	38          	pulc  
    40d0:	39          	pshc  
    40d1:	41          	coma  
    40d2:	42          	inca  
    40d3:	43          	deca  
    40d4:	44          	lsra  
    40d5:	45          	rola  
    40d6:	46          	rora  
    40d7:	30          	pulx  
    40d8:	58          	aslb  
	...

0x000040da <LC3>:
    40da:	30          	pulx  
    40db:	31          	puly  
    40dc:	32          	pula  
    40dd:	33          	pulb  
    40de:	34          	pshx  
    40df:	35          	pshy  
    40e0:	36          	psha  
    40e1:	37          	pshb  
    40e2:	38          	pulc  
    40e3:	39          	pshc  
    40e4:	61 62       	com   3,+y
    40e6:	63 64       	dec   5,+y
    40e8:	65 66       	rol   7,+y
    40ea:	30          	pulx  
    40eb:	78 00 2d    	asl   0x2d <_rsvd26+0x7>

0x000040ed <LC4>:
    40ed:	2d 00       	blt   0x40ef <LC5>

0x000040ef <LC5>:
    40ef:	2b 00       	bmi   0x40f1 <___vt_12strstreambuf>

0x000040f1 <___vt_12strstreambuf>:
    40f1:	00          	bgnd  
    40f2:	00          	bgnd  
    40f3:	00          	bgnd  
    40f4:	00          	bgnd  
    40f5:	3d          	rts   
    40f6:	18 33       	trap  0x33
    40f8:	03          	dey   
    40f9:	33          	pulb  
    40fa:	0f 33 13 3c 	brclr 4,x+,#0x13,0x413a <___hc12_tstsf+0x27>
    40fe:	6d 3d       	sty   3,x-
    4100:	a2 33       	sbca  4,x+
    4102:	2e 3d       	bgt   0x4141 <___hc12_tstsf+0x2e>
    4104:	a6 33       	ldaa  4,x+
    4106:	b5 34 1d    	bita  0x341d <_pbackfail__9streambufi>

0x00004109 <___hc12_ashlhi>:
    4109:	8e 00 00    	tstx  
    410c:	27 04       	beq   0x4112 <ashlhi2>
    410e:	59          	asld  
    410f:	09          	dex   
    4110:	20 f7       	bra   0x4109 <___hc12_ashlhi>

0x00004112 <ashlhi2>:
    4112:	3d          	rts   

0x00004113 <___hc12_tstsf>:
    4113:	3b          	pshd  
    4114:	34          	pshx  
    4115:	35          	pshy  
    4116:	b7 75       	tsx   
    4118:	34          	pshx  
    4119:	b7 75       	tsx   
    411b:	b7 c5       	xgdx  
    411d:	83 00 0a    	subd  #0xa <lf>
    4120:	b7 c5       	xgdx  
    4122:	b7 57       	txs   
    4124:	ee 0a       	ldx   10,x
    4126:	19 f0 14    	leay  20,sp
    4129:	b7 64       	tfr   y,d
    412b:	ed f0 12    	ldy   18,sp
    412e:	eb 40       	addb  0,y
    4130:	89 00       	adca  #0x0
    4132:	16 43 1b    	jsr   0x431b <fp_push_float>
    4135:	16 44 ac    	jsr   0x44ac <fp_tst>
    4138:	b7 20       	tpa   
    413a:	b7 c6       	xgdy  
    413c:	b7 75       	tsx   
    413e:	ec e0 12    	ldd   18,x
    4141:	c3 00 01    	incd  
    4144:	6c e0 12    	std   18,x
    4147:	b7 c6       	xgdy  
    4149:	34          	pshx  
    414a:	b7 75       	tsx   
    414c:	6c 0a       	std   10,x
    414e:	ec 00       	ldd   0,x
    4150:	6c 0c       	std   12,x
    4152:	b7 20       	tpa   
    4154:	b7 c5       	xgdx  
    4156:	c3 00 0a    	addd  #0xa <lf>
    4159:	b7 c5       	xgdx  
    415b:	b7 57       	txs   
    415d:	b7 02       	tap   
    415f:	3a          	puld  
    4160:	30          	pulx  
    4161:	b7 02       	tap   
    4163:	31          	puly  
    4164:	30          	pulx  
    4165:	3a          	puld  
    4166:	3d          	rts   

0x00004167 <___hc12_floatunshisf>:
    4167:	3b          	pshd  
    4168:	34          	pshx  
    4169:	35          	pshy  
    416a:	b7 75       	tsx   
    416c:	34          	pshx  
    416d:	b7 75       	tsx   
    416f:	b7 c5       	xgdx  
    4171:	83 00 04    	subd  #0x4 <eot>
    4174:	b7 c5       	xgdx  
    4176:	b7 57       	txs   
    4178:	ee 04       	ldx   4,x
    417a:	16 43 63    	jsr   0x4363 <fp_push_uint>
    417d:	19 8e       	leay  14,sp
    417f:	b7 64       	tfr   y,d
    4181:	ed 8c       	ldy   12,sp
    4183:	eb 40       	addb  0,y
    4185:	89 00       	adca  #0x0
    4187:	16 43 40    	jsr   0x4340 <fp_pop_float>
    418a:	b7 76       	tsy   
    418c:	ec 4c       	ldd   12,y
    418e:	c3 00 01    	incd  
    4191:	6c 4c       	std   12,y
    4193:	34          	pshx  
    4194:	b7 75       	tsx   
    4196:	6c 04       	std   4,x
    4198:	ec 00       	ldd   0,x
    419a:	6c 06       	std   6,x
    419c:	b7 20       	tpa   
    419e:	b7 c5       	xgdx  
    41a0:	c3 00 04    	addd  #0x4 <eot>
    41a3:	b7 c5       	xgdx  
    41a5:	b7 57       	txs   
    41a7:	b7 02       	tap   
    41a9:	3a          	puld  
    41aa:	30          	pulx  
    41ab:	31          	puly  
    41ac:	30          	pulx  
    41ad:	3a          	puld  
    41ae:	3d          	rts   

0x000041af <___hc12_mulsf>:
    41af:	3b          	pshd  
    41b0:	cc 45 9a    	ldd   #0x459a <fp_mul>
    41b3:	16 48 bf    	jsr   0x48bf <___hc12_sfsfsf>
    41b6:	3a          	puld  
    41b7:	3d          	rts   

0x000041b8 <___hc12_floathisf>:
    41b8:	3b          	pshd  
    41b9:	34          	pshx  
    41ba:	35          	pshy  
    41bb:	b7 75       	tsx   
    41bd:	34          	pshx  
    41be:	b7 75       	tsx   
    41c0:	b7 c5       	xgdx  
    41c2:	83 00 04    	subd  #0x4 <eot>
    41c5:	b7 c5       	xgdx  
    41c7:	b7 57       	txs   
    41c9:	ee 04       	ldx   4,x
    41cb:	16 43 74    	jsr   0x4374 <fp_push_int>
    41ce:	19 8e       	leay  14,sp
    41d0:	b7 64       	tfr   y,d
    41d2:	ed 8c       	ldy   12,sp
    41d4:	eb 40       	addb  0,y
    41d6:	89 00       	adca  #0x0
    41d8:	16 43 40    	jsr   0x4340 <fp_pop_float>
    41db:	b7 76       	tsy   
    41dd:	ec 4c       	ldd   12,y
    41df:	c3 00 01    	incd  
    41e2:	6c 4c       	std   12,y
    41e4:	34          	pshx  
    41e5:	b7 75       	tsx   
    41e7:	6c 04       	std   4,x
    41e9:	ec 00       	ldd   0,x
    41eb:	6c 06       	std   6,x
    41ed:	b7 20       	tpa   
    41ef:	b7 c5       	xgdx  
    41f1:	c3 00 04    	addd  #0x4 <eot>
    41f4:	b7 c5       	xgdx  
    41f6:	b7 57       	txs   
    41f8:	b7 02       	tap   
    41fa:	3a          	puld  
    41fb:	30          	pulx  
    41fc:	31          	puly  
    41fd:	30          	pulx  
    41fe:	3a          	puld  
    41ff:	3d          	rts   

0x00004200 <___hc12_fixuns_truncsfhi>:
    4200:	3b          	pshd  
    4201:	34          	pshx  
    4202:	35          	pshy  
    4203:	b7 75       	tsx   
    4205:	34          	pshx  
    4206:	b7 75       	tsx   
    4208:	b7 c5       	xgdx  
    420a:	83 00 04    	subd  #0x4 <eot>
    420d:	b7 c5       	xgdx  
    420f:	b7 57       	txs   
    4211:	ee 04       	ldx   4,x
    4213:	19 8e       	leay  14,sp
    4215:	b7 64       	tfr   y,d
    4217:	ed 8c       	ldy   12,sp
    4219:	eb 40       	addb  0,y
    421b:	89 00       	adca  #0x0
    421d:	16 43 1b    	jsr   0x431b <fp_push_float>
    4220:	16 43 c1    	jsr   0x43c1 <fp_pop_uint>
    4223:	b7 76       	tsy   
    4225:	6c 4a       	std   10,y
    4227:	ec 4c       	ldd   12,y
    4229:	c3 00 01    	incd  
    422c:	6c 4c       	std   12,y
    422e:	34          	pshx  
    422f:	b7 75       	tsx   
    4231:	6c 04       	std   4,x
    4233:	ec 00       	ldd   0,x
    4235:	6c 06       	std   6,x
    4237:	b7 20       	tpa   
    4239:	b7 c5       	xgdx  
    423b:	c3 00 04    	addd  #0x4 <eot>
    423e:	b7 c5       	xgdx  
    4240:	b7 57       	txs   
    4242:	b7 02       	tap   
    4244:	3a          	puld  
    4245:	30          	pulx  
    4246:	31          	puly  
    4247:	30          	pulx  
    4248:	3a          	puld  
    4249:	3d          	rts   

0x0000424a <___hc12_negsf>:
    424a:	3b          	pshd  
    424b:	cc 45 1e    	ldd   #0x451e <fp_neg>
    424e:	16 49 2d    	jsr   0x492d <___hc12_sfsf>
    4251:	3a          	puld  
    4252:	3d          	rts   

0x00004253 <___hc12_addsf>:
    4253:	3b          	pshd  
    4254:	cc 45 32    	ldd   #0x4532 <fp_add>
    4257:	16 48 bf    	jsr   0x48bf <___hc12_sfsfsf>
    425a:	3a          	puld  
    425b:	3d          	rts   

0x0000425c <___hc12_divsf>:
    425c:	3b          	pshd  
    425d:	cc 45 e8    	ldd   #0x45e8 <fp_div>
    4260:	16 48 bf    	jsr   0x48bf <___hc12_sfsfsf>
    4263:	3a          	puld  
    4264:	3d          	rts   

0x00004265 <___hc12_cmpsf>:
    4265:	3b          	pshd  
    4266:	34          	pshx  
    4267:	35          	pshy  
    4268:	b7 75       	tsx   
    426a:	34          	pshx  
    426b:	b7 75       	tsx   
    426d:	b7 c5       	xgdx  
    426f:	83 00 0a    	subd  #0xa <lf>
    4272:	b7 c5       	xgdx  
    4274:	b7 57       	txs   
    4276:	ee 0a       	ldx   10,x
    4278:	19 f0 14    	leay  20,sp
    427b:	b7 64       	tfr   y,d
    427d:	ed f0 12    	ldy   18,sp
    4280:	eb 40       	addb  0,y
    4282:	89 00       	adca  #0x0
    4284:	16 43 1b    	jsr   0x431b <fp_push_float>
    4287:	19 f0 14    	leay  20,sp
    428a:	b7 64       	tfr   y,d
    428c:	ed f0 12    	ldy   18,sp
    428f:	eb 41       	addb  1,y
    4291:	89 00       	adca  #0x0
    4293:	16 43 1b    	jsr   0x431b <fp_push_float>
    4296:	16 44 dc    	jsr   0x44dc <fp_cmp>
    4299:	b7 20       	tpa   
    429b:	b7 c6       	xgdy  
    429d:	b7 75       	tsx   
    429f:	ec e0 12    	ldd   18,x
    42a2:	c3 00 02    	addd  #0x2 <err_under>
    42a5:	6c e0 12    	std   18,x
    42a8:	b7 c6       	xgdy  
    42aa:	34          	pshx  
    42ab:	b7 75       	tsx   
    42ad:	6c 0a       	std   10,x
    42af:	ec 00       	ldd   0,x
    42b1:	6c 0c       	std   12,x
    42b3:	b7 20       	tpa   
    42b5:	b7 c5       	xgdx  
    42b7:	c3 00 0a    	addd  #0xa <lf>
    42ba:	b7 c5       	xgdx  
    42bc:	b7 57       	txs   
    42be:	b7 02       	tap   
    42c0:	3a          	puld  
    42c1:	30          	pulx  
    42c2:	b7 02       	tap   
    42c4:	31          	puly  
    42c5:	30          	pulx  
    42c6:	3a          	puld  
    42c7:	3d          	rts   

0x000042c8 <___hc12_fix_truncsfhi>:
    42c8:	3b          	pshd  
    42c9:	34          	pshx  
    42ca:	35          	pshy  
    42cb:	b7 75       	tsx   
    42cd:	34          	pshx  
    42ce:	b7 75       	tsx   
    42d0:	b7 c5       	xgdx  
    42d2:	83 00 04    	subd  #0x4 <eot>
    42d5:	b7 c5       	xgdx  
    42d7:	b7 57       	txs   
    42d9:	ee 04       	ldx   4,x
    42db:	19 8e       	leay  14,sp
    42dd:	b7 64       	tfr   y,d
    42df:	ed 8c       	ldy   12,sp
    42e1:	eb 40       	addb  0,y
    42e3:	89 00       	adca  #0x0
    42e5:	16 43 1b    	jsr   0x431b <fp_push_float>
    42e8:	16 43 de    	jsr   0x43de <fp_pop_int>
    42eb:	b7 76       	tsy   
    42ed:	6c 4a       	std   10,y
    42ef:	ec 4c       	ldd   12,y
    42f1:	c3 00 01    	incd  
    42f4:	6c 4c       	std   12,y
    42f6:	34          	pshx  
    42f7:	b7 75       	tsx   
    42f9:	6c 04       	std   4,x
    42fb:	ec 00       	ldd   0,x
    42fd:	6c 06       	std   6,x
    42ff:	b7 20       	tpa   
    4301:	b7 c5       	xgdx  
    4303:	c3 00 04    	addd  #0x4 <eot>
    4306:	b7 c5       	xgdx  
    4308:	b7 57       	txs   
    430a:	b7 02       	tap   
    430c:	3a          	puld  
    430d:	30          	pulx  
    430e:	31          	puly  
    430f:	30          	pulx  
    4310:	3a          	puld  
    4311:	3d          	rts   

0x00004312 <___hc12_subsf>:
    4312:	3b          	pshd  
    4313:	cc 45 2a    	ldd   #0x452a <fp_sub>
    4316:	16 48 bf    	jsr   0x48bf <___hc12_sfsfsf>
    4319:	3a          	puld  
    431a:	3d          	rts   

0x0000431b <fp_push_float>:
    431b:	3b          	pshd  
    431c:	35          	pshy  
    431d:	b7 c6       	xgdy  
    431f:	b7 c5       	xgdx  
    4321:	83 00 06    	subd  #0x6 <aa_siz>
    4324:	b7 c5       	xgdx  
    4326:	69 00       	clr   0,x
    4328:	ec 40       	ldd   0,y
    432a:	27 09       	beq   0x4335 <push_f2>
    432c:	2a 03       	bpl   0x4331 <push_f1>
    432e:	0c 00 80    	bset  0,x,#0x80

0x00004331 <push_f1>:
    4331:	59          	asld  
    4332:	54          	lsrb  
    4333:	ca 80       	orab  #0x80

0x00004335 <push_f2>:
    4335:	6c 01       	std   1,x
    4337:	ec 42       	ldd   2,y
    4339:	6c 03       	std   3,x
    433b:	69 05       	clr   5,x
    433d:	31          	puly  
    433e:	3a          	puld  
    433f:	3d          	rts   

0x00004340 <fp_pop_float>:
    4340:	3b          	pshd  
    4341:	35          	pshy  
    4342:	b7 c6       	xgdy  
    4344:	ec 01       	ldd   1,x
    4346:	27 0b       	beq   0x4353 <pop_f1>
    4348:	0c 04 01    	bset  4,x,#0x1
    434b:	58          	aslb  
    434c:	49          	lsrd  
    434d:	e7 00       	tst   0,x
    434f:	2a 02       	bpl   0x4353 <pop_f1>
    4351:	8a 80       	oraa  #0x80

0x00004353 <pop_f1>:
    4353:	6c 40       	std   0,y
    4355:	ec 03       	ldd   3,x
    4357:	6c 42       	std   2,y
    4359:	b7 c5       	xgdx  
    435b:	c3 00 06    	addd  #0x6 <aa_siz>
    435e:	b7 c5       	xgdx  
    4360:	31          	puly  
    4361:	3a          	puld  
    4362:	3d          	rts   

0x00004363 <fp_push_uint>:
    4363:	b7 c5       	xgdx  
    4365:	83 00 06    	subd  #0x6 <aa_siz>
    4368:	b7 c5       	xgdx  
    436a:	6c 04       	std   4,x
    436c:	69 02       	clr   2,x
    436e:	69 03       	clr   3,x
    4370:	16 43 a4    	jsr   0x43a4 <long_float>
    4373:	3d          	rts   

0x00004374 <fp_push_int>:
    4374:	3b          	pshd  
    4375:	b7 c5       	xgdx  
    4377:	83 00 06    	subd  #0x6 <aa_siz>
    437a:	b7 c5       	xgdx  
    437c:	6b 05       	stab  5,x
    437e:	18 0e       	tab   
    4380:	b7 14       	sxtb  
    4382:	6c 03       	std   3,x
    4384:	6a 02       	staa  2,x
    4386:	16 43 a4    	jsr   0x43a4 <long_float>
    4389:	3a          	puld  
    438a:	3d          	rts   

0x0000438b <fp_push_long>:
    438b:	3b          	pshd  
    438c:	35          	pshy  
    438d:	b7 c6       	xgdy  
    438f:	b7 c5       	xgdx  
    4391:	83 00 06    	subd  #0x6 <aa_siz>
    4394:	b7 c5       	xgdx  
    4396:	ec 40       	ldd   0,y
    4398:	6c 02       	std   2,x
    439a:	ec 42       	ldd   2,y
    439c:	6c 04       	std   4,x
    439e:	16 43 a4    	jsr   0x43a4 <long_float>
    43a1:	31          	puly  
    43a2:	3a          	puld  
    43a3:	3d          	rts   

0x000043a4 <long_float>:
    43a4:	3b          	pshd  
    43a5:	69 00       	clr   0,x
    43a7:	e7 02       	tst   2,x
    43a9:	2a 06       	bpl   0x43b1 <long_f1>
    43ab:	16 48 26    	jsr   0x4826 <neg_top>
    43ae:	0d 00 7f    	bclr  0,x,#0x7f

0x000043b1 <long_f1>:
    43b1:	69 01       	clr   1,x
    43b3:	16 47 f6    	jsr   0x47f6 <test_top>
    43b6:	27 07       	beq   0x43bf <long_f2>
    43b8:	86 9e       	ldaa  #0x9e
    43ba:	6a 01       	staa  1,x
    43bc:	16 47 ad    	jsr   0x47ad <norm_top>

0x000043bf <long_f2>:
    43bf:	3a          	puld  
    43c0:	3d          	rts   

0x000043c1 <fp_pop_uint>:
    43c1:	16 44 1f    	jsr   0x441f <float_long>
    43c4:	ec 04       	ldd   4,x
    43c6:	3b          	pshd  
    43c7:	ec 02       	ldd   2,x
    43c9:	3a          	puld  
    43ca:	27 0a       	beq   0x43d6 <pop_u1>
    43cc:	cc 00 00    	ldd   #0x0 <*ABS*>
    43cf:	e7 02       	tst   2,x
    43d1:	2b 03       	bmi   0x43d6 <pop_u1>
    43d3:	cc ff ff    	ldd   #0xffff <.stab+0x7b>

0x000043d6 <pop_u1>:
    43d6:	b7 c5       	xgdx  
    43d8:	c3 00 06    	addd  #0x6 <aa_siz>
    43db:	b7 c5       	xgdx  
    43dd:	3d          	rts   

0x000043de <fp_pop_int>:
    43de:	16 44 1f    	jsr   0x441f <float_long>
    43e1:	ec 02       	ldd   2,x
    43e3:	67 04       	asr   4,x
    43e5:	65 04       	rol   4,x
    43e7:	c9 00       	adcb  #0x0
    43e9:	89 00       	adca  #0x0
    43eb:	8c 00 00    	tstd  
    43ee:	26 04       	bne   0x43f4 <pop_i1>
    43f0:	ec 04       	ldd   4,x
    43f2:	20 0a       	bra   0x43fe <pop_i2>

0x000043f4 <pop_i1>:
    43f4:	cc 7f ff    	ldd   #0x7fff <_heap_top+0x3ff>
    43f7:	e7 02       	tst   2,x
    43f9:	2a 03       	bpl   0x43fe <pop_i2>
    43fb:	cc 80 01    	ldd   #0x8001 <_stack_top+0x1>

0x000043fe <pop_i2>:
    43fe:	b7 c5       	xgdx  
    4400:	c3 00 06    	addd  #0x6 <aa_siz>
    4403:	b7 c5       	xgdx  
    4405:	3d          	rts   

0x00004406 <fp_pop_long>:
    4406:	3b          	pshd  
    4407:	35          	pshy  
    4408:	b7 c6       	xgdy  
    440a:	16 44 1f    	jsr   0x441f <float_long>
    440d:	ec 02       	ldd   2,x
    440f:	6c 40       	std   0,y
    4411:	ec 04       	ldd   4,x
    4413:	6c 42       	std   2,y
    4415:	b7 c5       	xgdx  
    4417:	c3 00 06    	addd  #0x6 <aa_siz>
    441a:	b7 c5       	xgdx  
    441c:	31          	puly  
    441d:	3a          	puld  
    441e:	3d          	rts   

0x0000441f <float_long>:
    441f:	3b          	pshd  
    4420:	e6 01       	ldab  1,x
    4422:	c0 7f       	subb  #0x7f
    4424:	24 09       	bcc   0x442f <flt_l1>
    4426:	cc 00 00    	ldd   #0x0 <*ABS*>
    4429:	6c 02       	std   2,x
    442b:	6c 04       	std   4,x
    442d:	20 18       	bra   0x4447 <flt_l3>

0x0000442f <flt_l1>:
    442f:	c0 1f       	subb  #0x1f
    4431:	25 09       	bcs   0x443c <flt_l2>
    4433:	cc ff ff    	ldd   #0xffff <.stab+0x7b>
    4436:	6c 02       	std   2,x
    4438:	6c 04       	std   4,x
    443a:	c6 ff       	ldab  #0xff

0x0000443c <flt_l2>:
    443c:	50          	negb  
    443d:	16 47 e0    	jsr   0x47e0 <denorm_top>
    4440:	e7 00       	tst   0,x
    4442:	2a 03       	bpl   0x4447 <flt_l3>
    4444:	16 48 26    	jsr   0x4826 <neg_top>

0x00004447 <flt_l3>:
    4447:	3a          	puld  
    4448:	3d          	rts   

0x00004449 <fp_int>:
    4449:	16 44 1f    	jsr   0x441f <float_long>
    444c:	16 43 a4    	jsr   0x43a4 <long_float>
    444f:	3d          	rts   

0x00004450 <fp_frac>:
    4450:	16 44 77    	jsr   0x4477 <fp_dup>
    4453:	16 44 49    	jsr   0x4449 <fp_int>
    4456:	16 45 2a    	jsr   0x452a <fp_sub>
    4459:	3d          	rts   

0x0000445a <fp_swap>:
    445a:	3b          	pshd  
    445b:	35          	pshy  
    445c:	ec 00       	ldd   0,x
    445e:	ed 06       	ldy   6,x
    4460:	6d 00       	sty   0,x
    4462:	6c 06       	std   6,x
    4464:	ec 02       	ldd   2,x
    4466:	ed 08       	ldy   8,x
    4468:	6d 02       	sty   2,x
    446a:	6c 08       	std   8,x
    446c:	ec 04       	ldd   4,x
    446e:	ed 0a       	ldy   10,x
    4470:	6d 04       	sty   4,x
    4472:	6c 0a       	std   10,x
    4474:	31          	puly  
    4475:	3a          	puld  
    4476:	3d          	rts   

0x00004477 <fp_dup>:
    4477:	3b          	pshd  
    4478:	b7 c5       	xgdx  
    447a:	83 00 06    	subd  #0x6 <aa_siz>
    447d:	b7 c5       	xgdx  
    447f:	ec 06       	ldd   6,x
    4481:	6c 00       	std   0,x
    4483:	ec 08       	ldd   8,x
    4485:	6c 02       	std   2,x
    4487:	ec 0a       	ldd   10,x
    4489:	6c 04       	std   4,x
    448b:	3a          	puld  
    448c:	3d          	rts   

0x0000448d <fp_over>:
    448d:	3b          	pshd  
    448e:	b7 c5       	xgdx  
    4490:	83 00 06    	subd  #0x6 <aa_siz>
    4493:	b7 c5       	xgdx  
    4495:	ec 0c       	ldd   12,x
    4497:	6c 00       	std   0,x
    4499:	ec 0e       	ldd   14,x
    449b:	6c 02       	std   2,x
    449d:	ec e0 10    	ldd   16,x
    44a0:	6c 04       	std   4,x
    44a2:	3a          	puld  
    44a3:	3d          	rts   

0x000044a4 <fp_drop>:
    44a4:	b7 c5       	xgdx  
    44a6:	c3 00 06    	addd  #0x6 <aa_siz>
    44a9:	b7 c5       	xgdx  
    44ab:	3d          	rts   

0x000044ac <fp_tst>:
    44ac:	3b          	pshd  
    44ad:	cc 00 00    	ldd   #0x0 <*ABS*>
    44b0:	16 43 74    	jsr   0x4374 <fp_push_int>
    44b3:	16 44 dc    	jsr   0x44dc <fp_cmp>
    44b6:	3a          	puld  
    44b7:	3d          	rts   

0x000044b8 <fp_min>:
    44b8:	16 44 8d    	jsr   0x448d <fp_over>
    44bb:	16 44 8d    	jsr   0x448d <fp_over>
    44be:	16 44 dc    	jsr   0x44dc <fp_cmp>
    44c1:	23 03       	bls   0x44c6 <fp_min1>
    44c3:	16 44 5a    	jsr   0x445a <fp_swap>

0x000044c6 <fp_min1>:
    44c6:	16 44 a4    	jsr   0x44a4 <fp_drop>
    44c9:	3d          	rts   

0x000044ca <fp_max>:
    44ca:	16 44 8d    	jsr   0x448d <fp_over>
    44cd:	16 44 8d    	jsr   0x448d <fp_over>
    44d0:	16 44 dc    	jsr   0x44dc <fp_cmp>
    44d3:	24 03       	bcc   0x44d8 <fp_max1>
    44d5:	16 44 5a    	jsr   0x445a <fp_swap>

0x000044d8 <fp_max1>:
    44d8:	16 44 a4    	jsr   0x44a4 <fp_drop>
    44db:	3d          	rts   

0x000044dc <fp_cmp>:
    44dc:	3b          	pshd  
    44dd:	34 3a       	txd   
    44df:	c3 00 0c    	addd  #0xc <aa_siz>
    44e2:	3b          	pshd  
    44e3:	a6 06       	ldaa  6,x
    44e5:	aa 00       	oraa  0,x
    44e7:	2b 12       	bmi   0x44fb <fp_cmp1>
    44e9:	e6 07       	ldab  7,x
    44eb:	e1 01       	cmpb  1,x
    44ed:	26 22       	bne   0x4511 <fp_cmp2>
    44ef:	ec 08       	ldd   8,x
    44f1:	ac 02       	cpd   2,x
    44f3:	26 1c       	bne   0x4511 <fp_cmp2>
    44f5:	ec 0a       	ldd   10,x
    44f7:	ac 04       	cpd   4,x
    44f9:	20 16       	bra   0x4511 <fp_cmp2>

0x000044fb <fp_cmp1>:
    44fb:	a6 00       	ldaa  0,x
    44fd:	a1 06       	cmpa  6,x
    44ff:	26 10       	bne   0x4511 <fp_cmp2>
    4501:	e6 01       	ldab  1,x
    4503:	e1 07       	cmpb  7,x
    4505:	26 0a       	bne   0x4511 <fp_cmp2>
    4507:	ec 02       	ldd   2,x
    4509:	ac 08       	cpd   8,x
    450b:	26 04       	bne   0x4511 <fp_cmp2>
    450d:	ec 04       	ldd   4,x
    450f:	ac 0a       	cpd   10,x

0x00004511 <fp_cmp2>:
    4511:	b7 20       	tpa   
    4513:	84 f5       	anda  #0xf5
    4515:	24 02       	bcc   0x4519 <fp_cmp3>
    4517:	8a 08       	oraa  #0x8

0x00004519 <fp_cmp3>:
    4519:	b7 02       	tap   
    451b:	30          	pulx  
    451c:	3a          	puld  
    451d:	3d          	rts   

0x0000451e <fp_neg>:
    451e:	37          	pshb  
    451f:	e6 00       	ldab  0,x
    4521:	c8 80       	eorb  #0x80
    4523:	6b 00       	stab  0,x
    4525:	33          	pulb  
    4526:	3d          	rts   

0x00004527 <fp_abs>:
    4527:	69 00       	clr   0,x
    4529:	3d          	rts   

0x0000452a <fp_sub>:
    452a:	61 00       	com   0,x
    452c:	0d 00 7f    	bclr  0,x,#0x7f
    452f:	07 01       	bsr   0x4532 <fp_add>
    4531:	3d          	rts   

0x00004532 <fp_add>:
    4532:	3b          	pshd  
    4533:	16 47 f6    	jsr   0x47f6 <test_top>
    4536:	26 03       	bne   0x453b <fp_a1>
    4538:	87          	clra  
    4539:	20 57       	bra   0x4592 <fp_a8>

0x0000453b <fp_a1>:
    453b:	16 48 08    	jsr   0x4808 <test_nxt>
    453e:	26 06       	bne   0x4546 <fp_a2>
    4540:	16 44 5a    	jsr   0x445a <fp_swap>
    4543:	87          	clra  
    4544:	20 4c       	bra   0x4592 <fp_a8>

0x00004546 <fp_a2>:
    4546:	e6 07       	ldab  7,x
    4548:	e0 01       	subb  1,x
    454a:	24 04       	bcc   0x4550 <fp_a3>
    454c:	50          	negb  
    454d:	16 44 5a    	jsr   0x445a <fp_swap>

0x00004550 <fp_a3>:
    4550:	c1 1f       	cmpb  #0x1f
    4552:	23 03       	bls   0x4557 <fp_a4>
    4554:	87          	clra  
    4555:	20 3b       	bra   0x4592 <fp_a8>

0x00004557 <fp_a4>:
    4557:	16 47 e0    	jsr   0x47e0 <denorm_top>
    455a:	e7 00       	tst   0,x
    455c:	2a 03       	bpl   0x4561 <fp_a5>
    455e:	16 48 26    	jsr   0x4826 <neg_top>

0x00004561 <fp_a5>:
    4561:	e7 06       	tst   6,x
    4563:	2a 03       	bpl   0x4568 <fp_a6>
    4565:	16 48 1a    	jsr   0x481a <neg_nxt>

0x00004568 <fp_a6>:
    4568:	ec 04       	ldd   4,x
    456a:	e3 0a       	addd  10,x
    456c:	6c 0a       	std   10,x
    456e:	ec 02       	ldd   2,x
    4570:	e9 09       	adcb  9,x
    4572:	a9 08       	adca  8,x
    4574:	6c 08       	std   8,x
    4576:	e6 00       	ldab  0,x
    4578:	e9 06       	adcb  6,x
    457a:	6b 06       	stab  6,x
    457c:	2a 06       	bpl   0x4584 <fp_a7>
    457e:	16 48 1a    	jsr   0x481a <neg_nxt>
    4581:	0c 06 80    	bset  6,x,#0x80

0x00004584 <fp_a7>:
    4584:	87          	clra  
    4585:	16 47 a1    	jsr   0x47a1 <norm_nxt>
    4588:	24 08       	bcc   0x4592 <fp_a8>
    458a:	86 02       	ldaa  #0x2
    458c:	e7 07       	tst   7,x
    458e:	27 02       	beq   0x4592 <fp_a8>
    4590:	86 01       	ldaa  #0x1

0x00004592 <fp_a8>:
    4592:	16 44 a4    	jsr   0x44a4 <fp_drop>
    4595:	16 48 48    	jsr   0x4848 <fix_errors>
    4598:	3a          	puld  
    4599:	3d          	rts   

0x0000459a <fp_mul>:
    459a:	3b          	pshd  
    459b:	16 47 f6    	jsr   0x47f6 <test_top>
    459e:	26 07       	bne   0x45a7 <fp_m1>
    45a0:	16 44 5a    	jsr   0x445a <fp_swap>
    45a3:	87          	clra  
    45a4:	06 45 e0    	jmp   0x45e0 <fp_m5>

0x000045a7 <fp_m1>:
    45a7:	16 48 08    	jsr   0x4808 <test_nxt>
    45aa:	26 04       	bne   0x45b0 <fp_m2>
    45ac:	87          	clra  
    45ad:	06 45 e0    	jmp   0x45e0 <fp_m5>

0x000045b0 <fp_m2>:
    45b0:	a6 00       	ldaa  0,x
    45b2:	a8 06       	eora  6,x
    45b4:	6a 06       	staa  6,x
    45b6:	16 46 7f    	jsr   0x467f <umul_ll>
    45b9:	16 47 a1    	jsr   0x47a1 <norm_nxt>
    45bc:	e6 01       	ldab  1,x
    45be:	87          	clra  
    45bf:	eb 07       	addb  7,x
    45c1:	89 00       	adca  #0x0
    45c3:	c3 00 01    	incd  
    45c6:	8c 00 7f    	cpd   #0x7f <exp_bias>
    45c9:	2e 04       	bgt   0x45cf <fp_m3>
    45cb:	86 02       	ldaa  #0x2
    45cd:	20 11       	bra   0x45e0 <fp_m5>

0x000045cf <fp_m3>:
    45cf:	8c 01 7d    	cpd   #0x17d <_ddrdlc+0x7e>
    45d2:	2f 04       	ble   0x45d8 <fp_m4>
    45d4:	86 01       	ldaa  #0x1
    45d6:	20 08       	bra   0x45e0 <fp_m5>

0x000045d8 <fp_m4>:
    45d8:	83 00 7f    	subd  #0x7f <exp_bias>
    45db:	6b 07       	stab  7,x
    45dd:	0c 0b 01    	bset  11,x,#0x1

0x000045e0 <fp_m5>:
    45e0:	16 44 a4    	jsr   0x44a4 <fp_drop>
    45e3:	16 48 48    	jsr   0x4848 <fix_errors>
    45e6:	3a          	puld  
    45e7:	3d          	rts   

0x000045e8 <fp_div>:
    45e8:	3b          	pshd  
    45e9:	35          	pshy  
    45ea:	16 47 f6    	jsr   0x47f6 <test_top>
    45ed:	26 05       	bne   0x45f4 <fp_d1>
    45ef:	86 03       	ldaa  #0x3
    45f1:	06 46 66    	jmp   0x4666 <fp_d6>

0x000045f4 <fp_d1>:
    45f4:	16 48 08    	jsr   0x4808 <test_nxt>
    45f7:	26 04       	bne   0x45fd <fp_d2>
    45f9:	87          	clra  
    45fa:	06 46 66    	jmp   0x4666 <fp_d6>

0x000045fd <fp_d2>:
    45fd:	a6 00       	ldaa  0,x
    45ff:	a8 06       	eora  6,x
    4601:	6a 06       	staa  6,x
    4603:	ec 02       	ldd   2,x
    4605:	3b          	pshd  
    4606:	34 31       	txy   
    4608:	b7 c6       	xgdy  
    460a:	c3 00 06    	addd  #0x6 <aa_siz>
    460d:	b7 c6       	xgdy  
    460f:	16 47 5e    	jsr   0x475e <udiv_lw>
    4612:	16 47 a1    	jsr   0x47a1 <norm_nxt>
    4615:	ec 04       	ldd   4,x
    4617:	27 10       	beq   0x4629 <fp_d3>
    4619:	41 51 c3 00 	negd  
    461d:	01 
    461e:	6c 04       	std   4,x
    4620:	3b          	pshd  
    4621:	ec 02       	ldd   2,x
    4623:	83 00 01    	decd  
    4626:	6c 02       	std   2,x
    4628:	3a          	puld  

0x00004629 <fp_d3>:
    4629:	3a          	puld  
    462a:	34 31       	txy   
    462c:	16 47 5e    	jsr   0x475e <udiv_lw>
    462f:	e6 01       	ldab  1,x
    4631:	16 47 ad    	jsr   0x47ad <norm_top>
    4634:	e0 01       	subb  1,x
    4636:	58          	aslb  
    4637:	eb 01       	addb  1,x
    4639:	6b 01       	stab  1,x
    463b:	16 46 7f    	jsr   0x467f <umul_ll>
    463e:	16 47 a1    	jsr   0x47a1 <norm_nxt>
    4641:	e6 07       	ldab  7,x
    4643:	87          	clra  
    4644:	e0 01       	subb  1,x
    4646:	82 00       	sbca  #0x0
    4648:	83 00 01    	decd  
    464b:	8c ff 81    	cpd   #0xff81 <.stab+0x459>
    464e:	2e 04       	bgt   0x4654 <fp_d4>
    4650:	86 02       	ldaa  #0x2
    4652:	20 12       	bra   0x4666 <fp_d6>

0x00004654 <fp_d4>:
    4654:	8c 00 7f    	cpd   #0x7f <exp_bias>
    4657:	2f 04       	ble   0x465d <fp_d5>
    4659:	86 01       	ldaa  #0x1
    465b:	20 09       	bra   0x4666 <fp_d6>

0x0000465d <fp_d5>:
    465d:	c3 00 7f    	addd  #0x7f <exp_bias>
    4660:	6b 07       	stab  7,x
    4662:	0c 0b 01    	bset  11,x,#0x1
    4665:	87          	clra  

0x00004666 <fp_d6>:
    4666:	16 44 a4    	jsr   0x44a4 <fp_drop>
    4669:	16 48 48    	jsr   0x4848 <fix_errors>
    466c:	31          	puly  
    466d:	3a          	puld  
    466e:	3d          	rts   

0x0000466f <fp_mod>:
    466f:	16 44 5a    	jsr   0x445a <fp_swap>
    4672:	16 44 8d    	jsr   0x448d <fp_over>
    4675:	16 45 e8    	jsr   0x45e8 <fp_div>
    4678:	16 44 50    	jsr   0x4450 <fp_frac>
    467b:	16 45 9a    	jsr   0x459a <fp_mul>
    467e:	3d          	rts   

0x0000467f <umul_ll>:
    467f:	3b          	pshd  
    4680:	35          	pshy  
    4681:	cd 00 00    	clry  
    4684:	35          	pshy  
    4685:	35          	pshy  
    4686:	35          	pshy  
    4687:	35          	pshy  
    4688:	b7 76       	tsy   
    468a:	a6 05       	ldaa  5,x
    468c:	e6 0b       	ldab  11,x
    468e:	12          	mul   
    468f:	6c 46       	std   6,y
    4691:	a6 05       	ldaa  5,x
    4693:	e6 0a       	ldab  10,x
    4695:	12          	mul   
    4696:	e3 45       	addd  5,y
    4698:	6c 45       	std   5,y
    469a:	a6 04       	ldaa  4,x
    469c:	e6 0b       	ldab  11,x
    469e:	12          	mul   
    469f:	e3 45       	addd  5,y
    46a1:	6c 45       	std   5,y
    46a3:	24 02       	bcc   0x46a7 <um_ll1>
    46a5:	62 44       	inc   4,y

0x000046a7 <um_ll1>:
    46a7:	a6 05       	ldaa  5,x
    46a9:	e6 09       	ldab  9,x
    46ab:	12          	mul   
    46ac:	e3 44       	addd  4,y
    46ae:	6c 44       	std   4,y
    46b0:	a6 04       	ldaa  4,x
    46b2:	e6 0a       	ldab  10,x
    46b4:	12          	mul   
    46b5:	e3 44       	addd  4,y
    46b7:	6c 44       	std   4,y
    46b9:	24 02       	bcc   0x46bd <um_ll2>
    46bb:	62 43       	inc   3,y

0x000046bd <um_ll2>:
    46bd:	a6 03       	ldaa  3,x
    46bf:	e6 0b       	ldab  11,x
    46c1:	12          	mul   
    46c2:	e3 44       	addd  4,y
    46c4:	6c 44       	std   4,y
    46c6:	24 02       	bcc   0x46ca <um_ll3>
    46c8:	62 43       	inc   3,y

0x000046ca <um_ll3>:
    46ca:	a6 05       	ldaa  5,x
    46cc:	e6 08       	ldab  8,x
    46ce:	12          	mul   
    46cf:	e3 43       	addd  3,y
    46d1:	6c 43       	std   3,y
    46d3:	24 02       	bcc   0x46d7 <um_ll3a>
    46d5:	62 42       	inc   2,y

0x000046d7 <um_ll3a>:
    46d7:	a6 04       	ldaa  4,x
    46d9:	e6 09       	ldab  9,x
    46db:	12          	mul   
    46dc:	e3 43       	addd  3,y
    46de:	6c 43       	std   3,y
    46e0:	24 02       	bcc   0x46e4 <um_ll4>
    46e2:	62 42       	inc   2,y

0x000046e4 <um_ll4>:
    46e4:	a6 03       	ldaa  3,x
    46e6:	e6 0a       	ldab  10,x
    46e8:	12          	mul   
    46e9:	e3 43       	addd  3,y
    46eb:	6c 43       	std   3,y
    46ed:	24 02       	bcc   0x46f1 <um_ll5>
    46ef:	62 42       	inc   2,y

0x000046f1 <um_ll5>:
    46f1:	a6 02       	ldaa  2,x
    46f3:	e6 0b       	ldab  11,x
    46f5:	12          	mul   
    46f6:	e3 43       	addd  3,y
    46f8:	6c 43       	std   3,y
    46fa:	24 02       	bcc   0x46fe <um_ll6>
    46fc:	62 42       	inc   2,y

0x000046fe <um_ll6>:
    46fe:	a6 04       	ldaa  4,x
    4700:	e6 08       	ldab  8,x
    4702:	12          	mul   
    4703:	e3 42       	addd  2,y
    4705:	6c 42       	std   2,y
    4707:	24 02       	bcc   0x470b <um_ll6a>
    4709:	62 41       	inc   1,y

0x0000470b <um_ll6a>:
    470b:	a6 03       	ldaa  3,x
    470d:	e6 09       	ldab  9,x
    470f:	12          	mul   
    4710:	e3 42       	addd  2,y
    4712:	6c 42       	std   2,y
    4714:	24 02       	bcc   0x4718 <um_ll7>
    4716:	62 41       	inc   1,y

0x00004718 <um_ll7>:
    4718:	a6 02       	ldaa  2,x
    471a:	e6 0a       	ldab  10,x
    471c:	12          	mul   
    471d:	e3 42       	addd  2,y
    471f:	6c 42       	std   2,y
    4721:	24 02       	bcc   0x4725 <um_ll8>
    4723:	62 41       	inc   1,y

0x00004725 <um_ll8>:
    4725:	a6 03       	ldaa  3,x
    4727:	e6 08       	ldab  8,x
    4729:	12          	mul   
    472a:	e3 41       	addd  1,y
    472c:	6c 41       	std   1,y
    472e:	24 02       	bcc   0x4732 <um_ll8a>
    4730:	62 40       	inc   0,y

0x00004732 <um_ll8a>:
    4732:	a6 02       	ldaa  2,x
    4734:	e6 09       	ldab  9,x
    4736:	12          	mul   
    4737:	e3 41       	addd  1,y
    4739:	6c 41       	std   1,y
    473b:	24 02       	bcc   0x473f <um_ll9>
    473d:	62 40       	inc   0,y

0x0000473f <um_ll9>:
    473f:	a6 02       	ldaa  2,x
    4741:	e6 08       	ldab  8,x
    4743:	12          	mul   
    4744:	e3 40       	addd  0,y
    4746:	6c 40       	std   0,y
    4748:	ec 40       	ldd   0,y
    474a:	6c 08       	std   8,x
    474c:	ec 42       	ldd   2,y
    474e:	6c 0a       	std   10,x
    4750:	b7 76       	tsy   
    4752:	b7 c6       	xgdy  
    4754:	c3 00 08    	addd  #0x8 <bs>
    4757:	b7 c6       	xgdy  
    4759:	b7 67       	tys   
    475b:	31          	puly  
    475c:	3a          	puld  
    475d:	3d          	rts   

0x0000475e <udiv_lw>:
    475e:	3b          	pshd  
    475f:	34          	pshx  
    4760:	b7 75       	tsx   
    4762:	ec 42       	ldd   2,y
    4764:	ac 02       	cpd   2,x
    4766:	25 04       	bcs   0x476c <ud_lw1>
    4768:	a3 02       	subd  2,x
    476a:	62 40       	inc   0,y

0x0000476c <ud_lw1>:
    476c:	ee 02       	ldx   2,x
    476e:	18 11       	fdiv  
    4770:	6e 42       	stx   2,y
    4772:	b7 75       	tsx   
    4774:	ee 02       	ldx   2,x
    4776:	18 11       	fdiv  
    4778:	34          	pshx  
    4779:	b7 75       	tsx   
    477b:	ec 44       	ldd   4,y
    477d:	ac 04       	cpd   4,x
    477f:	25 08       	bcs   0x4789 <ud_lw2>
    4781:	a3 04       	subd  4,x
    4783:	62 43       	inc   3,y
    4785:	26 02       	bne   0x4789 <ud_lw2>
    4787:	62 42       	inc   2,y

0x00004789 <ud_lw2>:
    4789:	ee 04       	ldx   4,x
    478b:	18 11       	fdiv  
    478d:	b7 c5       	xgdx  
    478f:	b7 75       	tsx   
    4791:	e3 00       	addd  0,x
    4793:	6c 44       	std   4,y
    4795:	ec 42       	ldd   2,y
    4797:	c9 00       	adcb  #0x0
    4799:	89 00       	adca  #0x0
    479b:	6c 42       	std   2,y
    479d:	30          	pulx  
    479e:	30          	pulx  
    479f:	3a          	puld  
    47a0:	3d          	rts   

0x000047a1 <norm_nxt>:
    47a1:	34          	pshx  
    47a2:	b7 c5       	xgdx  
    47a4:	c3 00 06    	addd  #0x6 <aa_siz>
    47a7:	b7 c5       	xgdx  
    47a9:	07 02       	bsr   0x47ad <norm_top>
    47ab:	30          	pulx  
    47ac:	3d          	rts   

0x000047ad <norm_top>:
    47ad:	3b          	pshd  
    47ae:	07 46       	bsr   0x47f6 <test_top>
    47b0:	10 fe       	clc   
    47b2:	27 2a       	beq   0x47de <norm_t5>
    47b4:	ec 02       	ldd   2,x

0x000047b6 <norm_t1>:
    47b6:	0f 00 7f 13 	brclr 0,x,#0x7f,0x47cd <norm_t2>
    47ba:	67 00       	asr   0,x
    47bc:	0d 00 40    	bclr  0,x,#0x40
    47bf:	46 56       	rord  
    47c1:	66 04       	ror   4,x
    47c3:	66 05       	ror   5,x
    47c5:	62 01       	inc   1,x
    47c7:	0e 01 ff 0f 	brset 1,x,#0xff,0x47da <norm_t3>
    47cb:	20 e9       	bra   0x47b6 <norm_t1>

0x000047cd <norm_t2>:
    47cd:	97          	tsta  
    47ce:	2b 0c       	bmi   0x47dc <norm_t4>
    47d0:	68 05       	asl   5,x
    47d2:	65 04       	rol   4,x
    47d4:	55 45       	rold  
    47d6:	63 01       	dec   1,x
    47d8:	26 f3       	bne   0x47cd <norm_t2>

0x000047da <norm_t3>:
    47da:	14 01       	sec   

0x000047dc <norm_t4>:
    47dc:	6c 02       	std   2,x

0x000047de <norm_t5>:
    47de:	3a          	puld  
    47df:	3d          	rts   

0x000047e0 <denorm_top>:
    47e0:	3b          	pshd  
    47e1:	18 0f       	tba   
    47e3:	27 0f       	beq   0x47f4 <de_t2>
    47e5:	ab 01       	adda  1,x
    47e7:	6a 01       	staa  1,x

0x000047e9 <de_t1>:
    47e9:	64 02       	lsr   2,x
    47eb:	66 03       	ror   3,x
    47ed:	66 04       	ror   4,x
    47ef:	66 05       	ror   5,x
    47f1:	53          	decb  
    47f2:	26 f5       	bne   0x47e9 <de_t1>

0x000047f4 <de_t2>:
    47f4:	3a          	puld  
    47f5:	3d          	rts   

0x000047f6 <test_top>:
    47f6:	3b          	pshd  
    47f7:	ec 00       	ldd   0,x
    47f9:	84 7f       	anda  #0x7f
    47fb:	8c 00 00    	tstd  
    47fe:	26 06       	bne   0x4806 <test_t1>
    4800:	ec 02       	ldd   2,x
    4802:	26 02       	bne   0x4806 <test_t1>
    4804:	ec 04       	ldd   4,x

0x00004806 <test_t1>:
    4806:	3a          	puld  
    4807:	3d          	rts   

0x00004808 <test_nxt>:
    4808:	3b          	pshd  
    4809:	ec 06       	ldd   6,x
    480b:	84 7f       	anda  #0x7f
    480d:	8c 00 00    	tstd  
    4810:	26 06       	bne   0x4818 <test_n1>
    4812:	ec 08       	ldd   8,x
    4814:	26 02       	bne   0x4818 <test_n1>
    4816:	ec 0a       	ldd   10,x

0x00004818 <test_n1>:
    4818:	3a          	puld  
    4819:	3d          	rts   

0x0000481a <neg_nxt>:
    481a:	34          	pshx  
    481b:	b7 c5       	xgdx  
    481d:	c3 00 06    	addd  #0x6 <aa_siz>
    4820:	b7 c5       	xgdx  
    4822:	07 02       	bsr   0x4826 <neg_top>
    4824:	30          	pulx  
    4825:	3d          	rts   

0x00004826 <neg_top>:
    4826:	3b          	pshd  
    4827:	ec 04       	ldd   4,x
    4829:	51          	comb  
    482a:	41          	coma  
    482b:	61 03       	com   3,x
    482d:	61 02       	com   2,x
    482f:	61 00       	com   0,x
    4831:	c3 00 01    	incd  
    4834:	6c 04       	std   4,x
    4836:	ec 02       	ldd   2,x
    4838:	c9 00       	adcb  #0x0
    483a:	89 00       	adca  #0x0
    483c:	6c 02       	std   2,x
    483e:	e6 00       	ldab  0,x
    4840:	c9 00       	adcb  #0x0
    4842:	58          	aslb  
    4843:	57          	asrb  
    4844:	6b 00       	stab  0,x
    4846:	3a          	puld  
    4847:	3d          	rts   

0x00004848 <fix_errors>:
    4848:	3b          	pshd  
    4849:	35          	pshy  
    484a:	97          	tsta  
    484b:	27 22       	beq   0x486f <fix_e3>
    484d:	e6 00       	ldab  0,x
    484f:	c4 80       	andb  #0x80
    4851:	18 06       	aba   
    4853:	cd 48 72    	ldy   #0x4872 <error_tbl>
    4856:	c6 0b       	ldab  #0xb

0x00004858 <fix_e1>:
    4858:	a1 40       	cmpa  0,y
    485a:	27 07       	beq   0x4863 <fix_e2>
    485c:	19 ed       	aby   
    485e:	8d 48 b4    	cpy   #0x48b4 <error_end>
    4861:	25 f5       	bcs   0x4858 <fix_e1>

0x00004863 <fix_e2>:
    4863:	ec 41       	ldd   1,y
    4865:	6c 00       	std   0,x
    4867:	ec 43       	ldd   3,y
    4869:	6c 02       	std   2,x
    486b:	ec 45       	ldd   5,y
    486d:	6c 04       	std   4,x

0x0000486f <fix_e3>:
    486f:	31          	puly  
    4870:	3a          	puld  
    4871:	3d          	rts   

0x00004872 <error_tbl>:
    4872:	02          	iny   
    4873:	00          	bgnd  
    4874:	00          	bgnd  
    4875:	00          	bgnd  
    4876:	00          	bgnd  
    4877:	00          	bgnd  
    4878:	00          	bgnd  
    4879:	20 50       	bra   0x48cb <___hc12_sfsfsf+0xc>
    487b:	55          	rolb  
    487c:	00          	bgnd  
    487d:	82 00       	sbca  #0x0
    487f:	00          	bgnd  
    4880:	00          	bgnd  
    4881:	00          	bgnd  
    4882:	00          	bgnd  
    4883:	00          	bgnd  
    4884:	20 4e       	bra   0x48d4 <___hc12_sfsfsf+0x15>
    4886:	55          	rolb  
    4887:	00          	bgnd  
    4888:	01          	mem   
    4889:	00          	bgnd  
    488a:	fe ff ff    	ldx   0xffff <.stab+0x7b>
    488d:	ff ff 20    	lds   0xff20 <.stab+0x3f8>
    4890:	50          	negb  
    4891:	4f 00 81 80 	brclr 0x0 <*ABS*>,#0x81,0x4815 <test_nxt+0xd>
    4895:	fe ff ff    	ldx   0xffff <.stab+0x7b>
    4898:	ff ff 20    	lds   0xff20 <.stab+0x3f8>
    489b:	4e 4f 00 03 	brset 0x4f <_pwper23+0x1>,#0x0,0x48a2 <error_tbl+0x30>
    489f:	00          	bgnd  
    48a0:	fe ff ff    	ldx   0xffff <.stab+0x7b>
    48a3:	ff ff 20    	lds   0xff20 <.stab+0x3f8>
    48a6:	50          	negb  
    48a7:	5a 00       	staa  0x0 <*ABS*>
    48a9:	83 80 fe    	subd  #0x80fe <_stack_top+0xfe>
    48ac:	ff ff ff    	lds   0xffff <.stab+0x7b>
    48af:	ff 20 4e    	lds   0x204e <___9TimerTaskUiUiR5Ictlrii+0x26>
    48b2:	5a 00       	staa  0x0 <*ABS*>

0x000048b4 <error_end>:
    48b4:	00          	bgnd  
    48b5:	00          	bgnd  
    48b6:	00          	bgnd  
    48b7:	00          	bgnd  
    48b8:	00          	bgnd  
    48b9:	00          	bgnd  
    48ba:	00          	bgnd  
    48bb:	20 3f       	bra   0x48fc <___hc12_sfsfsf+0x3d>
    48bd:	3f          	swi   
	...

0x000048bf <___hc12_sfsfsf>:
    48bf:	3b          	pshd  
    48c0:	34          	pshx  
    48c1:	35          	pshy  
    48c2:	b7 75       	tsx   
    48c4:	34          	pshx  
    48c5:	b7 75       	tsx   
    48c7:	b7 c5       	xgdx  
    48c9:	83 00 0a    	subd  #0xa <lf>
    48cc:	b7 c5       	xgdx  
    48ce:	b7 57       	txs   
    48d0:	ee 0a       	ldx   10,x
    48d2:	19 f0 18    	leay  24,sp
    48d5:	b7 64       	tfr   y,d
    48d7:	ed f0 16    	ldy   22,sp
    48da:	eb 41       	addb  1,y
    48dc:	89 00       	adca  #0x0
    48de:	16 43 1b    	jsr   0x431b <fp_push_float>
    48e1:	19 f0 18    	leay  24,sp
    48e4:	b7 64       	tfr   y,d
    48e6:	ed f0 16    	ldy   22,sp
    48e9:	eb 42       	addb  2,y
    48eb:	89 00       	adca  #0x0
    48ed:	16 43 1b    	jsr   0x431b <fp_push_float>
    48f0:	b7 76       	tsy   
    48f2:	ed e8 10    	ldy   16,y
    48f5:	15 40       	jsr   0,y
    48f7:	19 f0 18    	leay  24,sp
    48fa:	b7 64       	tfr   y,d
    48fc:	ed f0 16    	ldy   22,sp
    48ff:	eb 40       	addb  0,y
    4901:	89 00       	adca  #0x0
    4903:	16 43 40    	jsr   0x4340 <fp_pop_float>
    4906:	b7 75       	tsx   
    4908:	ec e0 16    	ldd   22,x
    490b:	c3 00 03    	addd  #0x3 <err_div0>
    490e:	6c e0 16    	std   22,x
    4911:	34          	pshx  
    4912:	b7 75       	tsx   
    4914:	6c 0a       	std   10,x
    4916:	ec 00       	ldd   0,x
    4918:	6c 0c       	std   12,x
    491a:	b7 20       	tpa   
    491c:	b7 c5       	xgdx  
    491e:	c3 00 0a    	addd  #0xa <lf>
    4921:	b7 c5       	xgdx  
    4923:	b7 57       	txs   
    4925:	b7 02       	tap   
    4927:	3a          	puld  
    4928:	30          	pulx  
    4929:	31          	puly  
    492a:	30          	pulx  
    492b:	3a          	puld  
    492c:	3d          	rts   

0x0000492d <___hc12_sfsf>:
    492d:	3b          	pshd  
    492e:	34          	pshx  
    492f:	35          	pshy  
    4930:	b7 75       	tsx   
    4932:	34          	pshx  
    4933:	b7 75       	tsx   
    4935:	b7 c5       	xgdx  
    4937:	83 00 04    	subd  #0x4 <eot>
    493a:	b7 c5       	xgdx  
    493c:	b7 57       	txs   
    493e:	ee 04       	ldx   4,x
    4940:	19 f0 12    	leay  18,sp
    4943:	b7 64       	tfr   y,d
    4945:	ed f0 10    	ldy   16,sp
    4948:	eb 41       	addb  1,y
    494a:	89 00       	adca  #0x0
    494c:	16 43 1b    	jsr   0x431b <fp_push_float>
    494f:	b7 76       	tsy   
    4951:	ed 4a       	ldy   10,y
    4953:	15 40       	jsr   0,y
    4955:	19 f0 12    	leay  18,sp
    4958:	b7 64       	tfr   y,d
    495a:	ed f0 10    	ldy   16,sp
    495d:	eb 40       	addb  0,y
    495f:	89 00       	adca  #0x0
    4961:	16 43 40    	jsr   0x4340 <fp_pop_float>
    4964:	b7 76       	tsy   
    4966:	ec e8 10    	ldd   16,y
    4969:	c3 00 02    	addd  #0x2 <err_under>
    496c:	6c e8 10    	std   16,y
    496f:	34          	pshx  
    4970:	b7 75       	tsx   
    4972:	6c 04       	std   4,x
    4974:	ec 00       	ldd   0,x
    4976:	6c 06       	std   6,x
    4978:	b7 20       	tpa   
    497a:	b7 c5       	xgdx  
    497c:	c3 00 04    	addd  #0x4 <eot>
    497f:	b7 c5       	xgdx  
    4981:	b7 57       	txs   
    4983:	b7 02       	tap   
    4985:	3a          	puld  
    4986:	30          	pulx  
    4987:	31          	puly  
    4988:	30          	pulx  
    4989:	3a          	puld  
    498a:	3d          	rts   

0x0000498b <_ctor_beg>:
    498b:	2a 7d       	bpl   0x4a0a <.data+0x65>

0x0000498d <_ctor_end>:
    498d:	2a 62       	bpl   0x49f1 <.data+0x4c>
Disassembly of section .vectors:

0x00000b00 <.vectors>:
	...
 b10:	17 5e       	jsr   0x5e <_rsvd58+0x6>
 b12:	17 80       	jsr   0x80 <_tios>
 b14:	00          	bgnd  
 b15:	00          	bgnd  
 b16:	17 a2       	jsr   0xa2 <_pacnt>
 b18:	17 c4       	jsr   0xc4 <_sci0+0x4>
 b1a:	17 e6       	jsr   0xe6 <_rsvdE0+0x6>
 b1c:	18 08 18 2a 	movb  #0x2a,-8,x
 b20:	18 4c       	trap  0x4c
 b22:	18 6e       	trap  0x6e
 b24:	18 91       	trap  0x91
 b26:	18 b4       	trap  0xb4
 b28:	18 d7       	trap  0xd7
 b2a:	18 fa       	trap  0xfa
 b2c:	19 1d       	leay  -3,x
 b2e:	19 40       	leay  0,y
 b30:	19 63       	leay  4,+y
 b32:	19 86       	leay  6,sp
	...
 b3c:	00          	bgnd  
 b3d:	00          	bgnd  
 b3e:	2a c1       	bpl   0xb01 <.vectors+0x1>

project.o:     file format coff-hc1x

Disassembly of section .text:

0x00001000 <___3IsrR5IctlrUi>:
    1000:	1b 9c       	leas  -4,sp
    1002:	6c 82       	std   2,sp
    1004:	cc 3e 81    	ldd   #0x3e81 <___vt_3Isr>
    1007:	ed 82       	ldy   2,sp
    1009:	6c 44       	std   4,y
    100b:	ed 86       	ldy   6,sp
    100d:	6d f3 00 02 	sty   [2,sp]
    1011:	ec 88       	ldd   8,sp
    1013:	ed 82       	ldy   2,sp
    1015:	6c 42       	std   2,y

0x00001017 <LBB2>:
    1017:	ee f3 00 02 	ldx   [2,sp]
    101b:	6d 80       	sty   0,sp
    101d:	b7 54       	tfr   x,d
    101f:	16 10 bd    	jsr   0x10bd <_attach__5IctlrP3Isr>

0x00001022 <LBE2>:
    1022:	ec 82       	ldd   2,sp
    1024:	1b 84       	leas  4,sp
    1026:	3d          	rts   

0x00001027 <__$_3Isr>:
    1027:	1b 9c       	leas  -4,sp
    1029:	6c 82       	std   2,sp
    102b:	cc 3e 81    	ldd   #0x3e81 <___vt_3Isr>
    102e:	ed 82       	ldy   2,sp
    1030:	6c 44       	std   4,y

0x00001032 <LBB3>:
    1032:	ee f3 00 02 	ldx   [2,sp]
    1036:	6d 80       	sty   0,sp
    1038:	b7 54       	tfr   x,d
    103a:	16 10 d7    	jsr   0x10d7 <_detach__5IctlrP3Isr>

0x0000103d <LBE3>:
    103d:	ec 86       	ldd   6,sp
    103f:	87          	clra  
    1040:	c4 01       	andb  #0x1
    1042:	b7 45       	tfr   d,x
    1044:	8e 00 00    	tstx  
    1047:	27 05       	beq   0x104e <L12>
    1049:	ec 82       	ldd   2,sp
    104b:	16 26 ce    	jsr   0x26ce <___builtin_delete>

0x0000104e <L12>:
    104e:	1b 84       	leas  4,sp
    1050:	3d          	rts   

0x00001051 <_handler__3Isr>:
    1051:	3d          	rts   

0x00001052 <___5IctlrUi>:
    1052:	1b 9c       	leas  -4,sp
    1054:	6c 82       	std   2,sp
    1056:	ee 86       	ldx   6,sp
    1058:	cc 3e 7b    	ldd   #0x3e7b <___vt_5Ictlr>
    105b:	ed 82       	ldy   2,sp
    105d:	6c 44       	std   4,y
    105f:	6e f3 00 02 	stx   [2,sp]
    1063:	b7 54       	tfr   x,d
    1065:	59          	asld  
    1066:	b7 45       	tfr   d,x
    1068:	16 26 b7    	jsr   0x26b7 <___builtin_vec_new>
    106b:	b7 45       	tfr   d,x
    106d:	ed 82       	ldy   2,sp
    106f:	6e 42       	stx   2,y

0x00001071 <LBB5>:
    1071:	87 c7       	clrd  
    1073:	20 15       	bra   0x108a <L21>

0x00001075 <L18>:
    1075:	ec 80       	ldd   0,sp
    1077:	59          	asld  
    1078:	b7 45       	tfr   d,x
    107a:	ed 82       	ldy   2,sp
    107c:	ec 42       	ldd   2,y
    107e:	1a e6       	leax  d,x
    1080:	18 00 00 00 	movw  #0x0 <*ABS*>,0,x
    1084:	00 
    1085:	ec 80       	ldd   0,sp
    1087:	c3 00 01    	incd  

0x0000108a <L21>:
    108a:	6c 80       	std   0,sp
    108c:	ac f3 00 02 	cpd   [2,sp]
    1090:	25 e3       	bcs   0x1075 <L18>

0x00001092 <LBE5>:
    1092:	ec 82       	ldd   2,sp
    1094:	1b 84       	leas  4,sp
    1096:	3d          	rts   

0x00001097 <__$_5Ictlr>:
    1097:	1b 9e       	leas  -2,sp
    1099:	6c 80       	std   0,sp
    109b:	cc 3e 7b    	ldd   #0x3e7b <___vt_5Ictlr>
    109e:	ed 80       	ldy   0,sp
    10a0:	6c 44       	std   4,y

0x000010a2 <LBB7>:
    10a2:	ee 42       	ldx   2,y
    10a4:	27 05       	beq   0x10ab <L25>
    10a6:	b7 54       	tfr   x,d
    10a8:	16 26 d2    	jsr   0x26d2 <___builtin_vec_delete>

0x000010ab <L25>:
    10ab:	ec 84       	ldd   4,sp
    10ad:	87          	clra  
    10ae:	c4 01       	andb  #0x1
    10b0:	8c 00 00    	tstd  
    10b3:	27 05       	beq   0x10ba <L27>
    10b5:	ec 80       	ldd   0,sp
    10b7:	16 26 ce    	jsr   0x26ce <___builtin_delete>

0x000010ba <L27>:
    10ba:	1b 82       	leas  2,sp
    10bc:	3d          	rts   

0x000010bd <_attach__5IctlrP3Isr>:
    10bd:	1b 9e       	leas  -2,sp
    10bf:	6c 80       	std   0,sp
    10c1:	ee 84       	ldx   4,sp

0x000010c3 <LBB8>:
    10c3:	ec 02       	ldd   2,x
    10c5:	ac f3 00 00 	cpd   [0,sp]
    10c9:	24 09       	bcc   0x10d4 <L29>
    10cb:	59          	asld  
    10cc:	ed 80       	ldy   0,sp
    10ce:	e3 42       	addd  2,y
    10d0:	b7 46       	tfr   d,y
    10d2:	6e 40       	stx   0,y

0x000010d4 <L29>:
    10d4:	1b 82       	leas  2,sp
    10d6:	3d          	rts   

0x000010d7 <_detach__5IctlrP3Isr>:
    10d7:	1b 9e       	leas  -2,sp
    10d9:	b7 45       	tfr   d,x
    10db:	ed 84       	ldy   4,sp

0x000010dd <LBB9>:
    10dd:	ed 42       	ldy   2,y
    10df:	6d 80       	sty   0,sp
    10e1:	ad 00       	cpy   0,x
    10e3:	24 0c       	bcc   0x10f1 <L31>
    10e5:	b7 64       	tfr   y,d
    10e7:	59          	asld  
    10e8:	e3 02       	addd  2,x
    10ea:	b7 45       	tfr   d,x
    10ec:	18 00 00 00 	movw  #0x0 <*ABS*>,0,x
    10f0:	00 

0x000010f1 <L31>:
    10f1:	1b 82       	leas  2,sp
    10f3:	3d          	rts   

0x000010f4 <_runHandler__5IctlrUi>:
    10f4:	b7 45       	tfr   d,x

0x000010f6 <LBB10>:
    10f6:	ec 82       	ldd   2,sp
    10f8:	59          	asld  
    10f9:	e3 02       	addd  2,x
    10fb:	b7 46       	tfr   d,y
    10fd:	ec 40       	ldd   0,y
    10ff:	27 08       	beq   0x1109 <L3>
    1101:	b7 46       	tfr   d,y
    1103:	ee 44       	ldx   4,y
    1105:	15 e3 00 06 	jsr   [6,x]

0x00001109 <L3>:
    1109:	3d          	rts   

0x0000110a <___10PwmChannelR9PwmDriveri>:
    110a:	1b f1 ef    	leas  -17,sp
    110d:	6c 8d       	std   13,sp
    110f:	87 c7       	clrd  
    1111:	6c f3 00 0d 	std   [13,sp]
    1115:	ec f0 13    	ldd   19,sp
    1118:	ed 8d       	ldy   13,sp
    111a:	6c 42       	std   2,y
    111c:	fc 3e 89    	ldd   0x3e89 <LC0>
    111f:	6c 44       	std   4,y
    1121:	fc 3e 8b    	ldd   0x3e8b <LC0+0x2>
    1124:	6c 46       	std   6,y
    1126:	87 c7       	clrd  
    1128:	6c 4a       	std   10,y
    112a:	6c 4c       	std   12,y

0x0000112c <Ltext1>:
    112c:	1a 4e       	leax  14,y
    112e:	ec f0 15    	ldd   21,sp
    1131:	59          	asld  
    1132:	59          	asld  
    1133:	6c 8b       	std   11,sp

0x00001135 <LBB2>:
    1135:	ec f0 15    	ldd   21,sp
    1138:	59          	asld  
    1139:	59          	asld  
    113a:	59          	asld  
    113b:	6c 84       	std   4,sp
    113d:	b7 46       	tfr   d,y
    113f:	19 ea 00 90 	leay  144,y
    1143:	6d 82       	sty   2,sp
    1145:	6d 00       	sty   0,x
    1147:	cc 00 01    	ldd   #0x1 <err_over>
    114a:	ed 8b       	ldy   11,sp
    114c:	34          	pshx  
    114d:	b7 65       	tfr   y,x
    114f:	16 41 09    	jsr   0x4109 <___hc12_ashlhi>
    1152:	30          	pulx  
    1153:	6c 02       	std   2,x
    1155:	cc 00 01    	ldd   #0x1 <err_over>
    1158:	ed 84       	ldy   4,sp
    115a:	34          	pshx  
    115b:	b7 65       	tfr   y,x
    115d:	16 41 09    	jsr   0x4109 <___hc12_ashlhi>
    1160:	30          	pulx  
    1161:	6c 04       	std   4,x
    1163:	cc 00 02    	ldd   #0x2 <err_under>
    1166:	34          	pshx  
    1167:	b7 65       	tfr   y,x
    1169:	16 41 09    	jsr   0x4109 <___hc12_ashlhi>
    116c:	30          	pulx  
    116d:	6c 06       	std   6,x

0x0000116f <LBB3>:
    116f:	f6 00 86    	ldab  0x86 <_tscr>
    1172:	ca 90       	orab  #0x90
    1174:	7b 00 86    	stab  0x86 <_tscr>
    1177:	ed 00       	ldy   0,x
    1179:	6d 82       	sty   2,sp
    117b:	fc 00 84    	ldd   0x84 <_tcnt>
    117e:	c3 ff ff    	addd  #0xffff <.stab+0x7cb>
    1181:	6c f3 00 02 	std   [2,sp]
    1185:	f6 00 80    	ldab  0x80 <_tios>
    1188:	ea 03       	orab  3,x
    118a:	7b 00 80    	stab  0x80 <_tios>

0x0000118d <LBE2>:
    118d:	ed 8d       	ldy   13,sp
    118f:	19 e8 16    	leay  22,y
    1192:	6d 89       	sty   9,sp
    1194:	ee 8b       	ldx   11,sp
    1196:	08          	inx   

0x00001197 <LBB4>:
    1197:	b7 54       	tfr   x,d
    1199:	59          	asld  
    119a:	6c 84       	std   4,sp
    119c:	b7 46       	tfr   d,y
    119e:	19 ea 00 90 	leay  144,y
    11a2:	6d 82       	sty   2,sp
    11a4:	6d f3 00 09 	sty   [9,sp]
    11a8:	cc 00 01    	ldd   #0x1 <err_over>
    11ab:	34          	pshx  
    11ac:	b7 55       	tfr   x,x
    11ae:	16 41 09    	jsr   0x4109 <___hc12_ashlhi>
    11b1:	30          	pulx  
    11b2:	b7 45       	tfr   d,x
    11b4:	ed 89       	ldy   9,sp
    11b6:	6e 42       	stx   2,y
    11b8:	cc 00 01    	ldd   #0x1 <err_over>
    11bb:	ed 84       	ldy   4,sp
    11bd:	34          	pshx  
    11be:	b7 65       	tfr   y,x
    11c0:	16 41 09    	jsr   0x4109 <___hc12_ashlhi>
    11c3:	30          	pulx  
    11c4:	b7 45       	tfr   d,x
    11c6:	ed 89       	ldy   9,sp
    11c8:	6e 44       	stx   4,y
    11ca:	cc 00 02    	ldd   #0x2 <err_under>
    11cd:	ed 84       	ldy   4,sp
    11cf:	34          	pshx  
    11d0:	b7 65       	tfr   y,x
    11d2:	16 41 09    	jsr   0x4109 <___hc12_ashlhi>
    11d5:	30          	pulx  
    11d6:	b7 45       	tfr   d,x
    11d8:	ed 89       	ldy   9,sp
    11da:	6e 46       	stx   6,y

0x000011dc <LBB5>:
    11dc:	f6 00 86    	ldab  0x86 <_tscr>
    11df:	ca 90       	orab  #0x90
    11e1:	7b 00 86    	stab  0x86 <_tscr>
    11e4:	ed f3 00 09 	ldy   [9,sp]
    11e8:	6d 82       	sty   2,sp
    11ea:	fe 00 84    	ldx   0x84 <_tcnt>
    11ed:	09          	dex   
    11ee:	6e f3 00 02 	stx   [2,sp]
    11f2:	f6 00 80    	ldab  0x80 <_tios>
    11f5:	ed 89       	ldy   9,sp
    11f7:	ea 43       	orab  3,y
    11f9:	7b 00 80    	stab  0x80 <_tios>

0x000011fc <LBE4>:
    11fc:	ed 8d       	ldy   13,sp
    11fe:	1a e8 1e    	leax  30,y
    1201:	ec 8b       	ldd   11,sp
    1203:	c3 00 02    	addd  #0x2 <err_under>
    1206:	6c 87       	std   7,sp

0x00001208 <LBB6>:
    1208:	59          	asld  
    1209:	6c 84       	std   4,sp
    120b:	b7 46       	tfr   d,y
    120d:	19 ea 00 90 	leay  144,y
    1211:	6d 82       	sty   2,sp
    1213:	6d 00       	sty   0,x
    1215:	cc 00 01    	ldd   #0x1 <err_over>
    1218:	ed 87       	ldy   7,sp
    121a:	34          	pshx  
    121b:	b7 65       	tfr   y,x
    121d:	16 41 09    	jsr   0x4109 <___hc12_ashlhi>
    1220:	30          	pulx  
    1221:	6c 02       	std   2,x
    1223:	cc 00 01    	ldd   #0x1 <err_over>
    1226:	ed 84       	ldy   4,sp
    1228:	34          	pshx  
    1229:	b7 65       	tfr   y,x
    122b:	16 41 09    	jsr   0x4109 <___hc12_ashlhi>
    122e:	30          	pulx  
    122f:	6c 04       	std   4,x
    1231:	cc 00 02    	ldd   #0x2 <err_under>
    1234:	34          	pshx  
    1235:	b7 65       	tfr   y,x
    1237:	16 41 09    	jsr   0x4109 <___hc12_ashlhi>
    123a:	30          	pulx  
    123b:	6c 06       	std   6,x

0x0000123d <LBB7>:
    123d:	f6 00 86    	ldab  0x86 <_tscr>
    1240:	ca 90       	orab  #0x90
    1242:	7b 00 86    	stab  0x86 <_tscr>
    1245:	ed 00       	ldy   0,x
    1247:	6d 82       	sty   2,sp
    1249:	fc 00 84    	ldd   0x84 <_tcnt>
    124c:	c3 ff ff    	addd  #0xffff <.stab+0x7cb>
    124f:	6c f3 00 02 	std   [2,sp]
    1253:	f6 00 80    	ldab  0x80 <_tios>
    1256:	ea 03       	orab  3,x
    1258:	7b 00 80    	stab  0x80 <_tios>

0x0000125b <LBB10>:
    125b:	b7 21       	tfr   ccr,b
    125d:	6c 8f       	std   15,sp
    125f:	14 10       	sei   

0x00001261 <LBB11>:
    1261:	ed 89       	ldy   9,sp
    1263:	e6 43       	ldab  3,y
    1265:	51          	comb  
    1266:	6b 86       	stab  6,sp
    1268:	f6 00 83    	ldab  0x83 <_oc7d>
    126b:	e4 86       	andb  6,sp
    126d:	7b 00 83    	stab  0x83 <_oc7d>
    1270:	f6 00 82    	ldab  0x82 <_oc7m>
    1273:	ea 43       	orab  3,y
    1275:	7b 00 82    	stab  0x82 <_oc7m>

0x00001278 <LBE11>:
    1278:	ed 8d       	ldy   13,sp
    127a:	ee 42       	ldx   2,y
    127c:	6d 80       	sty   0,sp
    127e:	b7 54       	tfr   x,d
    1280:	16 15 7c    	jsr   0x157c <_attach__9PwmDriverP10PwmChannel>
    1283:	b7 45       	tfr   d,x
    1285:	6e f3 00 0d 	stx   [13,sp]

0x00001289 <LBB13>:
    1289:	ec 8f       	ldd   15,sp
    128b:	b7 12       	tfr   b,ccr

0x0000128d <LBE13>:
    128d:	ec 8d       	ldd   13,sp
    128f:	1b f0 11    	leas  17,sp
    1292:	3d          	rts   

0x00001293 <_setDuty__10PwmChannelf>:
    1293:	1b f1 de    	leas  -34,sp
    1296:	b7 45       	tfr   d,x
    1298:	ec f0 24    	ldd   36,sp
    129b:	6c f0 1c    	std   28,sp
    129e:	ec f0 26    	ldd   38,sp
    12a1:	6c f0 1e    	std   30,sp

0x000012a4 <LBB15>:
    12a4:	ec f0 1c    	ldd   28,sp
    12a7:	6c 04       	std   4,x
    12a9:	ec f0 26    	ldd   38,sp
    12ac:	6c 06       	std   6,x
    12ae:	ec 04       	ldd   4,x
    12b0:	6c f0 16    	std   22,sp
    12b3:	ec f0 26    	ldd   38,sp
    12b6:	6c f0 18    	std   24,sp
    12b9:	cc ff ff    	ldd   #0xffff <.stab+0x7cb>
    12bc:	6c f0 1a    	std   26,sp
    12bf:	16 41 13    	jsr   0x4113 <___hc12_tstsf>
    12c2:	16 2d 06    	jsr   0x2d06 <LBE5+0x1>
    12c5:	cc 00 01    	ldd   #0x1 <err_over>
    12c8:	6c f0 1a    	std   26,sp

0x000012cb <L80>:
    12cb:	ed 02       	ldy   2,x

0x000012cd <LBB16>:
    12cd:	ed 48       	ldy   8,y
    12cf:	6d 80       	sty   0,sp

0x000012d1 <LBE16>:
    12d1:	b7 64       	tfr   y,d
    12d3:	16 41 67    	jsr   0x4167 <___hc12_floatunshisf>
    12d6:	12          	mul   
    12d7:	18 02 04 8e 	movw  4,x,14,sp
    12db:	ec f0 26    	ldd   38,sp
    12de:	6c f0 10    	std   16,sp
    12e1:	16 41 af    	jsr   0x41af <___hc12_mulsf>
    12e4:	0a          	rtc   
    12e5:	12          	mul   
    12e6:	0e ec f0 1a 	brset a,y,#0xf0,0x1304 <LBB18+0xa>
    12ea:	16 41 b8    	jsr   0x41b8 <___hc12_floathisf>
    12ed:	06 16 41    	jmp   0x1641 <L24>
    12f0:	af 02       	cps   2,x
    12f2:	0a          	rtc   
    12f3:	06 16 42    	jmp   0x1642 <L24+0x1>
    12f6:	00          	bgnd  
    12f7:	02          	iny   
    12f8:	b7 46       	tfr   d,y

0x000012fa <LBB18>:
    12fa:	ec 80       	ldd   0,sp
    12fc:	c3 ff e0    	addd  #0xffe0 <.stab+0x7ac>
    12ff:	6c 80       	std   0,sp
    1301:	ad 80       	cpy   0,sp
    1303:	23 02       	bls   0x1307 <L84>
    1305:	b7 46       	tfr   d,y

0x00001307 <L84>:
    1307:	b7 21       	tfr   ccr,b
    1309:	6c f0 20    	std   32,sp
    130c:	14 10       	sei   

0x0000130e <LBE20>:
    130e:	ec f0 1a    	ldd   26,sp
    1311:	6c 08       	std   8,x
    1313:	6d 0a       	sty   10,x

0x00001315 <LBB22>:
    1315:	ec f0 20    	ldd   32,sp
    1318:	b7 12       	tfr   b,ccr

0x0000131a <LBE15>:
    131a:	1b f0 22    	leas  34,sp
    131d:	3d          	rts   

0x0000131e <_getDuty__10PwmChannel>:
    131e:	1b 9e       	leas  -2,sp
    1320:	b7 45       	tfr   d,x
    1322:	ed 84       	ldy   4,sp

0x00001324 <LBB24>:
    1324:	b7 21       	tfr   ccr,b
    1326:	6c 80       	std   0,sp
    1328:	14 10       	sei   

0x0000132a <LBE25>:
    132a:	18 02 44 00 	movw  4,y,0,x
    132e:	18 02 46 02 	movw  6,y,2,x

0x00001332 <LBB27>:
    1332:	ec 80       	ldd   0,sp
    1334:	b7 12       	tfr   b,ccr

0x00001336 <LBE24>:
    1336:	b7 54       	tfr   x,d
    1338:	1b 82       	leas  2,sp
    133a:	3d          	rts   

0x0000133b <_handler__10PwmChanneliUi>:
    133b:	1b 96       	leas  -10,sp
    133d:	6c 88       	std   8,sp

0x0000133f <LBB30>:
    133f:	b7 46       	tfr   d,y
    1341:	ee 42       	ldx   2,y

0x00001343 <LBB31>:
    1343:	ec 08       	ldd   8,x
    1345:	6c 86       	std   6,sp
    1347:	b7 45       	tfr   d,x

0x00001349 <LBB33>:
    1349:	ed 8c       	ldy   12,sp
    134b:	18 26 00 54 	lbne  0x13a3 <L100>

0x0000134f <LBB34>:
    134f:	ed 88       	ldy   8,sp
    1351:	ec 4a       	ldd   10,y
    1353:	6c 4c       	std   12,y

0x00001355 <LBB35>:
    1355:	ec 86       	ldd   6,sp
    1357:	49          	lsrd  
    1358:	6c 80       	std   0,sp
    135a:	ee 4c       	ldx   12,y
    135c:	ae 80       	cpx   0,sp
    135e:	24 30       	bcc   0x1390 <L101>

0x00001360 <LBB36>:
    1360:	ec 8e       	ldd   14,sp
    1362:	34          	pshx  
    1363:	a3 b1       	subd  2,sp+
    1365:	b7 45       	tfr   d,x

0x00001367 <Ltext23>:
    1367:	19 e8 16    	leay  22,y
    136a:	6d 80       	sty   0,sp

0x0000136c <LBB37>:
    136c:	fc 00 88    	ldd   0x88 <_tctl1>
    136f:	aa 46       	oraa  6,y
    1371:	ea 47       	orab  7,y
    1373:	7c 00 88    	std   0x88 <_tctl1>
    1376:	fd 00 88    	ldy   0x88 <_tctl1>
    1379:	6d 82       	sty   2,sp
    137b:	b7 64       	tfr   y,d
    137d:	ed 80       	ldy   0,sp
    137f:	aa 44       	oraa  4,y
    1381:	ea 45       	orab  5,y
    1383:	7c 00 88    	std   0x88 <_tctl1>

0x00001386 <LBB39>:
    1386:	ed f3 00 00 	ldy   [0,sp]
    138a:	6d 80       	sty   0,sp
    138c:	6e f3 00 00 	stx   [0,sp]

0x00001390 <L101>:
    1390:	ed 88       	ldy   8,sp
    1392:	19 e8 1e    	leay  30,y
    1395:	6d 80       	sty   0,sp
    1397:	ed 8e       	ldy   14,sp
    1399:	ec 86       	ldd   6,sp
    139b:	1a ee       	leax  d,y
    139d:	1a e0 10    	leax  16,x

0x000013a0 <LBB41>:
    13a0:	06 13 f7    	jmp   0x13f7 <L116>

0x000013a3 <L100>:
    13a3:	b7 54       	tfr   x,d
    13a5:	49          	lsrd  
    13a6:	6c 82       	std   2,sp
    13a8:	ed 88       	ldy   8,sp
    13aa:	ed 4c       	ldy   12,y
    13ac:	6d 80       	sty   0,sp
    13ae:	ad 82       	cpy   2,sp
    13b0:	25 37       	bcs   0x13e9 <L107>

0x000013b2 <LBB47>:
    13b2:	ed 8e       	ldy   14,sp
    13b4:	b7 54       	tfr   x,d
    13b6:	1a ee       	leax  d,y
    13b8:	b7 c5       	xgdx  
    13ba:	a3 80       	subd  0,sp
    13bc:	b7 c5       	xgdx  

0x000013be <Ltext27>:
    13be:	ed 88       	ldy   8,sp
    13c0:	19 e8 16    	leay  22,y
    13c3:	6d 80       	sty   0,sp

0x000013c5 <LBB48>:
    13c5:	fc 00 88    	ldd   0x88 <_tctl1>
    13c8:	aa 46       	oraa  6,y
    13ca:	ea 47       	orab  7,y
    13cc:	7c 00 88    	std   0x88 <_tctl1>
    13cf:	fd 00 88    	ldy   0x88 <_tctl1>
    13d2:	6d 82       	sty   2,sp
    13d4:	b7 64       	tfr   y,d
    13d6:	ed 80       	ldy   0,sp
    13d8:	aa 44       	oraa  4,y
    13da:	ea 45       	orab  5,y
    13dc:	7c 00 88    	std   0x88 <_tctl1>

0x000013df <LBB50>:
    13df:	ed f3 00 00 	ldy   [0,sp]
    13e3:	6d 80       	sty   0,sp
    13e5:	6e f3 00 00 	stx   [0,sp]

0x000013e9 <L107>:
    13e9:	ed 88       	ldy   8,sp
    13eb:	ec 48       	ldd   8,y
    13ed:	2d 27       	blt   0x1416 <L110>

0x000013ef <LBB53>:
    13ef:	19 4e       	leay  14,y
    13f1:	6d 80       	sty   0,sp
    13f3:	ed 8e       	ldy   14,sp
    13f5:	1a 48       	leax  8,y

0x000013f7 <L116>:
    13f7:	fc 00 88    	ldd   0x88 <_tctl1>
    13fa:	ed 80       	ldy   0,sp
    13fc:	aa 46       	oraa  6,y
    13fe:	ea 47       	orab  7,y
    1400:	7c 00 88    	std   0x88 <_tctl1>
    1403:	aa 44       	oraa  4,y
    1405:	ea 45       	orab  5,y
    1407:	7c 00 88    	std   0x88 <_tctl1>

0x0000140a <LBB56>:
    140a:	ed f3 00 00 	ldy   [0,sp]
    140e:	6d 80       	sty   0,sp
    1410:	6e f3 00 00 	stx   [0,sp]

0x00001414 <LBE53>:
    1414:	20 39       	bra   0x144f <L106>

0x00001416 <L110>:
    1416:	ed 88       	ldy   8,sp
    1418:	19 4e       	leay  14,y
    141a:	6d 80       	sty   0,sp
    141c:	ed 8e       	ldy   14,sp
    141e:	19 48       	leay  8,y
    1420:	6d 84       	sty   4,sp

0x00001422 <LBB59>:
    1422:	fe 00 88    	ldx   0x88 <_tctl1>
    1425:	b7 54       	tfr   x,d
    1427:	ed 80       	ldy   0,sp
    1429:	aa 46       	oraa  6,y
    142b:	ea 47       	orab  7,y
    142d:	b7 45       	tfr   d,x
    142f:	7e 00 88    	stx   0x88 <_tctl1>
    1432:	ec 44       	ldd   4,y
    1434:	41 51       	comd  
    1436:	b7 45       	tfr   d,x
    1438:	fd 00 88    	ldy   0x88 <_tctl1>
    143b:	b7 64       	tfr   y,d
    143d:	34          	pshx  
    143e:	a4 b0       	anda  1,sp+
    1440:	e4 b0       	andb  1,sp+
    1442:	b7 45       	tfr   d,x
    1444:	7e 00 88    	stx   0x88 <_tctl1>

0x00001447 <LBB61>:
    1447:	ee f3 00 00 	ldx   [0,sp]
    144b:	ed 84       	ldy   4,sp
    144d:	6d 00       	sty   0,x

0x0000144f <L106>:
    144f:	ec f3 00 08 	ldd   [8,sp]

0x00001453 <LBE30>:
    1453:	1b 8a       	leas  10,sp
    1455:	3d          	rts   

0x00001456 <___9PwmDriverR5IctlrUi>:
    1456:	1b 93       	leas  -13,sp
    1458:	6c 8b       	std   11,sp
    145a:	ec 8f       	ldd   15,sp
    145c:	6c 80       	std   0,sp
    145e:	18 00 82 00 	movw  #0xb <error_siz>,2,sp
    1462:	0b 
    1463:	ec 8b       	ldd   11,sp
    1465:	16 10 00    	jsr   0x1000 <___3IsrR5IctlrUi>
    1468:	cc 3e 8d    	ldd   #0x3e8d <___vt_9PwmDriver>
    146b:	ed 8b       	ldy   11,sp
    146d:	6c 44       	std   4,y
    146f:	87 c7       	clrd  
    1471:	6c 46       	std   6,y
    1473:	ec f0 11    	ldd   17,sp
    1476:	6c 48       	std   8,y
    1478:	87 c7       	clrd  
    147a:	6c 4a       	std   10,y

0x0000147c <Ltext1>:
    147c:	1a 4c       	leax  12,y

0x0000147e <LBB2>:
    147e:	18 00 00 00 	movw  #0x96 <_tc3>,0,x
    1482:	96 
    1483:	18 00 02 00 	movw  #0x8 <bs>,2,x
    1487:	08 
    1488:	18 00 04 00 	movw  #0x40 <_pwmclk>,4,x
    148c:	40 
    148d:	18 00 06 00 	movw  #0x80 <_tios>,6,x
    1491:	80 

0x00001492 <LBB3>:
    1492:	f6 00 86    	ldab  0x86 <_tscr>
    1495:	ca 90       	orab  #0x90
    1497:	7b 00 86    	stab  0x86 <_tscr>
    149a:	ed 00       	ldy   0,x
    149c:	6d 84       	sty   4,sp
    149e:	fc 00 84    	ldd   0x84 <_tcnt>
    14a1:	c3 ff ff    	addd  #0xffff <.stab+0x7cb>
    14a4:	6c f3 00 04 	std   [4,sp]
    14a8:	f6 00 80    	ldab  0x80 <_tios>
    14ab:	ea 03       	orab  3,x
    14ad:	7b 00 80    	stab  0x80 <_tios>
    14b0:	f6 00 8e    	ldab  0x8e <_tflg1>
    14b3:	ea 03       	orab  3,x
    14b5:	7b 00 8e    	stab  0x8e <_tflg1>
    14b8:	f6 00 8c    	ldab  0x8c <_tmsk1>
    14bb:	ea 03       	orab  3,x
    14bd:	7b 00 8c    	stab  0x8c <_tmsk1>

0x000014c0 <LBE2>:
    14c0:	ed 8b       	ldy   11,sp
    14c2:	19 e8 14    	leay  20,y
    14c5:	6d 84       	sty   4,sp

0x000014c7 <LBB4>:
    14c7:	cc 00 9e    	ldd   #0x9e <_tc7>
    14ca:	6c f3 00 04 	std   [4,sp]
    14ce:	cc 00 80    	ldd   #0x80 <_tios>
    14d1:	6c 42       	std   2,y
    14d3:	cc 40 00    	ldd   #0x4000 <Lhalves.90+0x22>
    14d6:	6c 44       	std   4,y
    14d8:	cc 80 00    	ldd   #0x8000 <_stack_top>
    14db:	6c 46       	std   6,y

0x000014dd <LBB5>:
    14dd:	f6 00 86    	ldab  0x86 <_tscr>
    14e0:	ca 90       	orab  #0x90
    14e2:	7b 00 86    	stab  0x86 <_tscr>
    14e5:	ed f3 00 04 	ldy   [4,sp]
    14e9:	6d 89       	sty   9,sp
    14eb:	fc 00 84    	ldd   0x84 <_tcnt>
    14ee:	c3 ff ff    	addd  #0xffff <.stab+0x7cb>
    14f1:	6c f3 00 09 	std   [9,sp]
    14f5:	f6 00 80    	ldab  0x80 <_tios>
    14f8:	ed 84       	ldy   4,sp
    14fa:	ea 43       	orab  3,y
    14fc:	7b 00 80    	stab  0x80 <_tios>

0x000014ff <LBB6>:
    14ff:	ec f0 11    	ldd   17,sp
    1502:	49          	lsrd  
    1503:	6c 86       	std   6,sp

0x00001505 <Ltext5>:
    1505:	fd 00 84    	ldy   0x84 <_tcnt>
    1508:	b7 64       	tfr   y,d
    150a:	e3 86       	addd  6,sp

0x0000150c <LBB7>:
    150c:	ee 00       	ldx   0,x
    150e:	b7 46       	tfr   d,y
    1510:	6d 00       	sty   0,x

0x00001512 <LBE6>:
    1512:	ec 8b       	ldd   11,sp
    1514:	1b 8d       	leas  13,sp
    1516:	3d          	rts   

0x00001517 <_handler__9PwmDriver>:
    1517:	1b 96       	leas  -10,sp
    1519:	6c 88       	std   8,sp

0x0000151b <LBB9>:
    151b:	b7 46       	tfr   d,y
    151d:	19 4c       	leay  12,y
    151f:	6d 86       	sty   6,sp

0x00001521 <LBB10>:
    1521:	ee f3 00 06 	ldx   [6,sp]
    1525:	ed 00       	ldy   0,x
    1527:	6d 84       	sty   4,sp

0x00001529 <LBE10>:
    1529:	b7 46       	tfr   d,y
    152b:	ec 48       	ldd   8,y
    152d:	49          	lsrd  

0x0000152e <Ltext9>:
    152e:	ed 84       	ldy   4,sp
    1530:	19 ee       	leay  d,y
    1532:	b7 64       	tfr   y,d

0x00001534 <LBB12>:
    1534:	6c 00       	std   0,x

0x00001536 <LBE12>:
    1536:	ed 88       	ldy   8,sp
    1538:	ec 4a       	ldd   10,y
    153a:	c3 00 01    	incd  
    153d:	87          	clra  
    153e:	c4 01       	andb  #0x1
    1540:	6c 4a       	std   10,y

0x00001542 <LBB14>:
    1542:	26 12       	bne   0x1556 <L73>

0x00001544 <LBB15>:
    1544:	ee f3 00 06 	ldx   [6,sp]
    1548:	ee 00       	ldx   0,x

0x0000154a <LBE16>:
    154a:	ec 48       	ldd   8,y
    154c:	49          	lsrd  

0x0000154d <Ltext13>:
    154d:	1a e6       	leax  d,x

0x0000154f <LBB18>:
    154f:	ec e8 14    	ldd   20,y
    1552:	b7 46       	tfr   d,y
    1554:	6e 40       	stx   0,y

0x00001556 <L73>:
    1556:	ed 88       	ldy   8,sp
    1558:	ee 46       	ldx   6,y
    155a:	27 1d       	beq   0x1579 <L77>

0x0000155c <L78>:
    155c:	ed 88       	ldy   8,sp
    155e:	ec e8 14    	ldd   20,y
    1561:	b7 46       	tfr   d,y
    1563:	ec 40       	ldd   0,y

0x00001565 <LBE21>:
    1565:	ed 88       	ldy   8,sp
    1567:	ed 4a       	ldy   10,y
    1569:	6d 80       	sty   0,sp
    156b:	6c 82       	std   2,sp
    156d:	b7 54       	tfr   x,d
    156f:	16 13 3b    	jsr   0x133b <_handler__10PwmChanneliUi>
    1572:	b7 45       	tfr   d,x
    1574:	8e 00 00    	tstx  
    1577:	26 e3       	bne   0x155c <L78>

0x00001579 <L77>:
    1579:	1b 8a       	leas  10,sp
    157b:	3d          	rts   

0x0000157c <_attach__9PwmDriverP10PwmChannel>:
    157c:	1b 9c       	leas  -4,sp
    157e:	b7 45       	tfr   d,x

0x00001580 <LBB23>:
    1580:	b7 21       	tfr   ccr,b
    1582:	6c 82       	std   2,sp
    1584:	14 10       	sei   

0x00001586 <LBE24>:
    1586:	ed 06       	ldy   6,x
    1588:	6d 80       	sty   0,sp
    158a:	ed 86       	ldy   6,sp
    158c:	6d 06       	sty   6,x

0x0000158e <LBB26>:
    158e:	ec 82       	ldd   2,sp
    1590:	b7 12       	tfr   b,ccr

0x00001592 <LBE26>:
    1592:	ec 80       	ldd   0,sp

0x00001594 <LBE23>:
    1594:	1b 84       	leas  4,sp
    1596:	3d          	rts   

0x00001597 <_getPeriod__C9PwmDriver>:
    1597:	b7 46       	tfr   d,y

0x00001599 <LBB29>:
    1599:	ec 48       	ldd   8,y

0x0000159b <LBE29>:
    159b:	3d          	rts   

0x0000159c <__$_9PwmDriver>:
    159c:	1b 9e       	leas  -2,sp

0x0000159e <LBB30>:
    159e:	18 02 84 80 	movw  4,sp,0,sp
    15a2:	16 10 27    	jsr   0x1027 <__$_3Isr>
    15a5:	1b 82       	leas  2,sp
    15a7:	3d          	rts   

0x000015a8 <___9HC12Ictlr>:
    15a8:	1b 9b       	leas  -5,sp
    15aa:	6c 83       	std   3,sp
    15ac:	18 00 80 00 	movw  #0x11 <dc1>,0,sp
    15b0:	11 
    15b1:	16 10 52    	jsr   0x1052 <___5IctlrUi>
    15b4:	cc 3e 95    	ldd   #0x3e95 <___vt_9HC12Ictlr>
    15b7:	ed 83       	ldy   3,sp
    15b9:	6c 44       	std   4,y

0x000015bb <LBB2>:
    15bb:	7d 49 8f    	sty   0x498f <_dtor_end>
    15be:	f6 00 ff    	ldab  0xff <_ddrdlc>
    15c1:	ca 08       	orab  #0x8
    15c3:	7b 00 ff    	stab  0xff <_ddrdlc>

0x000015c6 <LBE2>:
    15c6:	b7 64       	tfr   y,d
    15c8:	1b 85       	leas  5,sp
    15ca:	3d          	rts   

0x000015cb <__$_9HC12Ictlr>:
    15cb:	1b 9e       	leas  -2,sp
    15cd:	b7 45       	tfr   d,x
    15cf:	18 00 04 3e 	movw  #0x3e95 <___vt_9HC12Ictlr>,4,x
    15d3:	95 

0x000015d4 <LBB3>:
    15d4:	18 03 00 00 	movw  #0x0 <*ABS*>,0x498f <_dtor_end>
    15d8:	49 8f 

0x000015da <LBE3>:
    15da:	18 02 84 80 	movw  4,sp,0,sp
    15de:	16 10 97    	jsr   0x1097 <__$_5Ictlr>
    15e1:	1b 82       	leas  2,sp
    15e3:	3d          	rts   

0x000015e4 <_handlerTable__9HC12Ictlr>:
    15e4:	f6 00 fe    	ldab  0xfe <_portdlc>
    15e7:	ca 08       	orab  #0x8
    15e9:	7b 00 fe    	stab  0xfe <_portdlc>

0x000015ec <Ltext1>:
    15ec:	fd 49 8f    	ldy   0x498f <_dtor_end>

0x000015ef <LBB5>:
    15ef:	ed eb 00 02 	ldy   [2,y]
    15f3:	27 08       	beq   0x15fd <L18>
    15f5:	ee 44       	ldx   4,y
    15f7:	b7 64       	tfr   y,d
    15f9:	15 e3 00 06 	jsr   [6,x]

0x000015fd <L18>:
    15fd:	f6 00 fe    	ldab  0xfe <_portdlc>
    1600:	c4 f7       	andb  #0xf7
    1602:	7b 00 fe    	stab  0xfe <_portdlc>
    1605:	0b          	rti   

0x00001606 <vsr1>:
    1606:	f6 00 fe    	ldab  0xfe <_portdlc>
    1609:	ca 08       	orab  #0x8
    160b:	7b 00 fe    	stab  0xfe <_portdlc>

0x0000160e <Ltext3>:
    160e:	fd 49 8f    	ldy   0x498f <_dtor_end>

0x00001611 <LBB7>:
    1611:	ed 42       	ldy   2,y
    1613:	ed 42       	ldy   2,y
    1615:	27 08       	beq   0x161f <L21>
    1617:	ee 44       	ldx   4,y
    1619:	b7 64       	tfr   y,d
    161b:	15 e3 00 06 	jsr   [6,x]

0x0000161f <L21>:
    161f:	f6 00 fe    	ldab  0xfe <_portdlc>
    1622:	c4 f7       	andb  #0xf7
    1624:	7b 00 fe    	stab  0xfe <_portdlc>
    1627:	0b          	rti   

0x00001628 <vsr2>:
    1628:	f6 00 fe    	ldab  0xfe <_portdlc>
    162b:	ca 08       	orab  #0x8
    162d:	7b 00 fe    	stab  0xfe <_portdlc>

0x00001630 <Ltext5>:
    1630:	fd 49 8f    	ldy   0x498f <_dtor_end>

0x00001633 <LBB10>:
    1633:	ed 42       	ldy   2,y
    1635:	ed 44       	ldy   4,y
    1637:	27 08       	beq   0x1641 <L24>
    1639:	ee 44       	ldx   4,y
    163b:	b7 64       	tfr   y,d
    163d:	15 e3 00 06 	jsr   [6,x]

0x00001641 <L24>:
    1641:	f6 00 fe    	ldab  0xfe <_portdlc>
    1644:	c4 f7       	andb  #0xf7
    1646:	7b 00 fe    	stab  0xfe <_portdlc>
    1649:	0b          	rti   

0x0000164a <vsr3>:
    164a:	f6 00 fe    	ldab  0xfe <_portdlc>
    164d:	ca 08       	orab  #0x8
    164f:	7b 00 fe    	stab  0xfe <_portdlc>

0x00001652 <Ltext7>:
    1652:	fd 49 8f    	ldy   0x498f <_dtor_end>

0x00001655 <LBB11>:
    1655:	ed 42       	ldy   2,y
    1657:	ed 46       	ldy   6,y
    1659:	27 08       	beq   0x1663 <L27>
    165b:	ee 44       	ldx   4,y
    165d:	b7 64       	tfr   y,d
    165f:	15 e3 00 06 	jsr   [6,x]

0x00001663 <L27>:
    1663:	f6 00 fe    	ldab  0xfe <_portdlc>
    1666:	c4 f7       	andb  #0xf7
    1668:	7b 00 fe    	stab  0xfe <_portdlc>
    166b:	0b          	rti   

0x0000166c <vsr4>:
    166c:	f6 00 fe    	ldab  0xfe <_portdlc>
    166f:	ca 08       	orab  #0x8
    1671:	7b 00 fe    	stab  0xfe <_portdlc>

0x00001674 <Ltext9>:
    1674:	fd 49 8f    	ldy   0x498f <_dtor_end>

0x00001677 <LBB13>:
    1677:	ed 42       	ldy   2,y
    1679:	ed 48       	ldy   8,y
    167b:	27 08       	beq   0x1685 <L30>
    167d:	ee 44       	ldx   4,y
    167f:	b7 64       	tfr   y,d
    1681:	15 e3 00 06 	jsr   [6,x]

0x00001685 <L30>:
    1685:	f6 00 fe    	ldab  0xfe <_portdlc>
    1688:	c4 f7       	andb  #0xf7
    168a:	7b 00 fe    	stab  0xfe <_portdlc>
    168d:	0b          	rti   

0x0000168e <vsr5>:
    168e:	f6 00 fe    	ldab  0xfe <_portdlc>
    1691:	ca 08       	orab  #0x8
    1693:	7b 00 fe    	stab  0xfe <_portdlc>

0x00001696 <Ltext11>:
    1696:	fd 49 8f    	ldy   0x498f <_dtor_end>

0x00001699 <LBB15>:
    1699:	ed 42       	ldy   2,y
    169b:	ed 4a       	ldy   10,y
    169d:	27 08       	beq   0x16a7 <L33>
    169f:	ee 44       	ldx   4,y
    16a1:	b7 64       	tfr   y,d
    16a3:	15 e3 00 06 	jsr   [6,x]

0x000016a7 <L33>:
    16a7:	f6 00 fe    	ldab  0xfe <_portdlc>
    16aa:	c4 f7       	andb  #0xf7
    16ac:	7b 00 fe    	stab  0xfe <_portdlc>
    16af:	0b          	rti   

0x000016b0 <vsr6>:
    16b0:	f6 00 fe    	ldab  0xfe <_portdlc>
    16b3:	ca 08       	orab  #0x8
    16b5:	7b 00 fe    	stab  0xfe <_portdlc>

0x000016b8 <Ltext13>:
    16b8:	fd 49 8f    	ldy   0x498f <_dtor_end>

0x000016bb <LBB17>:
    16bb:	ed 42       	ldy   2,y
    16bd:	ed 4c       	ldy   12,y
    16bf:	27 08       	beq   0x16c9 <L36>
    16c1:	ee 44       	ldx   4,y
    16c3:	b7 64       	tfr   y,d
    16c5:	15 e3 00 06 	jsr   [6,x]

0x000016c9 <L36>:
    16c9:	f6 00 fe    	ldab  0xfe <_portdlc>
    16cc:	c4 f7       	andb  #0xf7
    16ce:	7b 00 fe    	stab  0xfe <_portdlc>
    16d1:	0b          	rti   

0x000016d2 <vsr7>:
    16d2:	f6 00 fe    	ldab  0xfe <_portdlc>
    16d5:	ca 08       	orab  #0x8
    16d7:	7b 00 fe    	stab  0xfe <_portdlc>

0x000016da <Ltext15>:
    16da:	fd 49 8f    	ldy   0x498f <_dtor_end>

0x000016dd <LBB19>:
    16dd:	ed 42       	ldy   2,y
    16df:	ed 4e       	ldy   14,y
    16e1:	27 08       	beq   0x16eb <L39>
    16e3:	ee 44       	ldx   4,y
    16e5:	b7 64       	tfr   y,d
    16e7:	15 e3 00 06 	jsr   [6,x]

0x000016eb <L39>:
    16eb:	f6 00 fe    	ldab  0xfe <_portdlc>
    16ee:	c4 f7       	andb  #0xf7
    16f0:	7b 00 fe    	stab  0xfe <_portdlc>
    16f3:	0b          	rti   

0x000016f4 <vsr8>:
    16f4:	f6 00 fe    	ldab  0xfe <_portdlc>
    16f7:	ca 08       	orab  #0x8
    16f9:	7b 00 fe    	stab  0xfe <_portdlc>

0x000016fc <Ltext17>:
    16fc:	fd 49 8f    	ldy   0x498f <_dtor_end>

0x000016ff <LBB21>:
    16ff:	ed 42       	ldy   2,y
    1701:	ed e8 10    	ldy   16,y
    1704:	27 08       	beq   0x170e <L42>
    1706:	ee 44       	ldx   4,y
    1708:	b7 64       	tfr   y,d
    170a:	15 e3 00 06 	jsr   [6,x]

0x0000170e <L42>:
    170e:	f6 00 fe    	ldab  0xfe <_portdlc>
    1711:	c4 f7       	andb  #0xf7
    1713:	7b 00 fe    	stab  0xfe <_portdlc>
    1716:	0b          	rti   

0x00001717 <vsr9>:
    1717:	f6 00 fe    	ldab  0xfe <_portdlc>
    171a:	ca 08       	orab  #0x8
    171c:	7b 00 fe    	stab  0xfe <_portdlc>

0x0000171f <Ltext19>:
    171f:	fd 49 8f    	ldy   0x498f <_dtor_end>

0x00001722 <LBB23>:
    1722:	ed 42       	ldy   2,y
    1724:	ed e8 12    	ldy   18,y
    1727:	27 08       	beq   0x1731 <L45>
    1729:	ee 44       	ldx   4,y
    172b:	b7 64       	tfr   y,d
    172d:	15 e3 00 06 	jsr   [6,x]

0x00001731 <L45>:
    1731:	f6 00 fe    	ldab  0xfe <_portdlc>
    1734:	c4 f7       	andb  #0xf7
    1736:	7b 00 fe    	stab  0xfe <_portdlc>
    1739:	0b          	rti   

0x0000173a <vsr10>:
    173a:	f6 00 fe    	ldab  0xfe <_portdlc>
    173d:	ca 08       	orab  #0x8
    173f:	7b 00 fe    	stab  0xfe <_portdlc>

0x00001742 <Ltext21>:
    1742:	fd 49 8f    	ldy   0x498f <_dtor_end>

0x00001745 <LBB25>:
    1745:	ed 42       	ldy   2,y
    1747:	ed e8 14    	ldy   20,y
    174a:	27 08       	beq   0x1754 <L48>
    174c:	ee 44       	ldx   4,y
    174e:	b7 64       	tfr   y,d
    1750:	15 e3 00 06 	jsr   [6,x]

0x00001754 <L48>:
    1754:	f6 00 fe    	ldab  0xfe <_portdlc>
    1757:	c4 f7       	andb  #0xf7
    1759:	7b 00 fe    	stab  0xfe <_portdlc>
    175c:	0b          	rti   

0x0000175d <vsr11>:
    175d:	f6 00 fe    	ldab  0xfe <_portdlc>
    1760:	ca 08       	orab  #0x8
    1762:	7b 00 fe    	stab  0xfe <_portdlc>

0x00001765 <Ltext23>:
    1765:	fd 49 8f    	ldy   0x498f <_dtor_end>

0x00001768 <LBB27>:
    1768:	ed 42       	ldy   2,y
    176a:	ed e8 16    	ldy   22,y
    176d:	27 08       	beq   0x1777 <L51>
    176f:	ee 44       	ldx   4,y
    1771:	b7 64       	tfr   y,d
    1773:	15 e3 00 06 	jsr   [6,x]

0x00001777 <L51>:
    1777:	f6 00 fe    	ldab  0xfe <_portdlc>
    177a:	c4 f7       	andb  #0xf7
    177c:	7b 00 fe    	stab  0xfe <_portdlc>
    177f:	0b          	rti   

0x00001780 <vsr12>:
    1780:	f6 00 fe    	ldab  0xfe <_portdlc>
    1783:	ca 08       	orab  #0x8
    1785:	7b 00 fe    	stab  0xfe <_portdlc>

0x00001788 <Ltext25>:
    1788:	fd 49 8f    	ldy   0x498f <_dtor_end>

0x0000178b <LBB29>:
    178b:	ed 42       	ldy   2,y
    178d:	ed e8 18    	ldy   24,y
    1790:	27 08       	beq   0x179a <L54>
    1792:	ee 44       	ldx   4,y
    1794:	b7 64       	tfr   y,d
    1796:	15 e3 00 06 	jsr   [6,x]

0x0000179a <L54>:
    179a:	f6 00 fe    	ldab  0xfe <_portdlc>
    179d:	c4 f7       	andb  #0xf7
    179f:	7b 00 fe    	stab  0xfe <_portdlc>
    17a2:	0b          	rti   

0x000017a3 <vsr13>:
    17a3:	f6 00 fe    	ldab  0xfe <_portdlc>
    17a6:	ca 08       	orab  #0x8
    17a8:	7b 00 fe    	stab  0xfe <_portdlc>

0x000017ab <Ltext27>:
    17ab:	fd 49 8f    	ldy   0x498f <_dtor_end>

0x000017ae <LBB31>:
    17ae:	ed 42       	ldy   2,y
    17b0:	ed e8 1a    	ldy   26,y
    17b3:	27 08       	beq   0x17bd <L57>
    17b5:	ee 44       	ldx   4,y
    17b7:	b7 64       	tfr   y,d
    17b9:	15 e3 00 06 	jsr   [6,x]

0x000017bd <L57>:
    17bd:	f6 00 fe    	ldab  0xfe <_portdlc>
    17c0:	c4 f7       	andb  #0xf7
    17c2:	7b 00 fe    	stab  0xfe <_portdlc>
    17c5:	0b          	rti   

0x000017c6 <vsr14>:
    17c6:	f6 00 fe    	ldab  0xfe <_portdlc>
    17c9:	ca 08       	orab  #0x8
    17cb:	7b 00 fe    	stab  0xfe <_portdlc>

0x000017ce <Ltext29>:
    17ce:	fd 49 8f    	ldy   0x498f <_dtor_end>

0x000017d1 <LBB33>:
    17d1:	ed 42       	ldy   2,y
    17d3:	ed e8 1c    	ldy   28,y
    17d6:	27 08       	beq   0x17e0 <L60>
    17d8:	ee 44       	ldx   4,y
    17da:	b7 64       	tfr   y,d
    17dc:	15 e3 00 06 	jsr   [6,x]

0x000017e0 <L60>:
    17e0:	f6 00 fe    	ldab  0xfe <_portdlc>
    17e3:	c4 f7       	andb  #0xf7
    17e5:	7b 00 fe    	stab  0xfe <_portdlc>
    17e8:	0b          	rti   

0x000017e9 <vsr15>:
    17e9:	f6 00 fe    	ldab  0xfe <_portdlc>
    17ec:	ca 08       	orab  #0x8
    17ee:	7b 00 fe    	stab  0xfe <_portdlc>

0x000017f1 <Ltext31>:
    17f1:	fd 49 8f    	ldy   0x498f <_dtor_end>

0x000017f4 <LBB35>:
    17f4:	ed 42       	ldy   2,y
    17f6:	ed e8 1e    	ldy   30,y
    17f9:	27 08       	beq   0x1803 <L63>
    17fb:	ee 44       	ldx   4,y
    17fd:	b7 64       	tfr   y,d
    17ff:	15 e3 00 06 	jsr   [6,x]

0x00001803 <L63>:
    1803:	f6 00 fe    	ldab  0xfe <_portdlc>
    1806:	c4 f7       	andb  #0xf7
    1808:	7b 00 fe    	stab  0xfe <_portdlc>
    180b:	0b          	rti   

0x0000180c <vsr16>:
    180c:	f6 00 fe    	ldab  0xfe <_portdlc>
    180f:	ca 08       	orab  #0x8
    1811:	7b 00 fe    	stab  0xfe <_portdlc>

0x00001814 <Ltext33>:
    1814:	fd 49 8f    	ldy   0x498f <_dtor_end>

0x00001817 <LBB37>:
    1817:	ed 42       	ldy   2,y
    1819:	ed e8 20    	ldy   32,y
    181c:	27 08       	beq   0x1826 <L66>
    181e:	ee 44       	ldx   4,y
    1820:	b7 64       	tfr   y,d
    1822:	15 e3 00 06 	jsr   [6,x]

0x00001826 <L66>:
    1826:	f6 00 fe    	ldab  0xfe <_portdlc>
    1829:	c4 f7       	andb  #0xf7
    182b:	7b 00 fe    	stab  0xfe <_portdlc>
    182e:	0b          	rti   

0x0000182f <LBE4>:
    182f:	3d          	rts   

0x00001830 <_main>:
    1830:	1b f1 04    	leas  -252,sp

0x00001833 <LBB2>:
    1833:	cc 00 1e    	ldd   #0x1e <rs>
    1836:	16 26 a0    	jsr   0x26a0 <___builtin_new>
    1839:	6c 8a       	std   10,sp
    183b:	18 00 80 00 	movw  #0xc0 <_sci0>,0,sp
    183f:	c0 
    1840:	18 00 82 00 	movw  #0x50 <_pwdty01>,2,sp
    1844:	50 
    1845:	18 00 84 00 	movw  #0x10 <dle>,4,sp
    1849:	10 
    184a:	16 1e 88    	jsr   0x1e88 <___6SciBufRV7sciportUiUi>
    184d:	6c f0 24    	std   36,sp
    1850:	19 f0 f6    	leay  246,sp
    1853:	6d f0 22    	sty   34,sp
    1856:	b7 64       	tfr   y,d
    1858:	16 15 a8    	jsr   0x15a8 <___9HC12Ictlr>
    185b:	1a f0 da    	leax  218,sp
    185e:	6e f0 20    	stx   32,sp
    1861:	ed f0 22    	ldy   34,sp
    1864:	6d 80       	sty   0,sp
    1866:	18 00 82 0f 	movw  #0xfa0 <.stab+0x460>,2,sp
    186a:	a0 
    186b:	b7 54       	tfr   x,d
    186d:	16 14 56    	jsr   0x1456 <___9PwmDriverR5IctlrUi>
    1870:	1a f0 b4    	leax  180,sp
    1873:	6e f0 1e    	stx   30,sp
    1876:	ed f0 20    	ldy   32,sp
    1879:	6d 80       	sty   0,sp
    187b:	18 00 82 00 	movw  #0x0 <*ABS*>,2,sp
    187f:	00 
    1880:	b7 54       	tfr   x,d
    1882:	16 11 0a    	jsr   0x110a <___10PwmChannelR9PwmDriveri>
    1885:	1a f0 8e    	leax  142,sp
    1888:	6e f0 1c    	stx   28,sp
    188b:	ed f0 20    	ldy   32,sp
    188e:	6d 80       	sty   0,sp
    1890:	18 00 82 00 	movw  #0x1 <err_over>,2,sp
    1894:	01 
    1895:	b7 54       	tfr   x,d
    1897:	16 11 0a    	jsr   0x110a <___10PwmChannelR9PwmDriveri>
    189a:	1a f0 74    	leax  116,sp
    189d:	6e 8a       	stx   10,sp
    189f:	18 00 80 02 	movw  #0x200 <_ddrdlc+0x101>,0,sp
    18a3:	00 
    18a4:	18 00 82 00 	movw  #0x0 <*ABS*>,2,sp
    18a8:	00 
    18a9:	ed f0 22    	ldy   34,sp
    18ac:	6d 84       	sty   4,sp
    18ae:	b7 54       	tfr   x,d
    18b0:	16 26 d6    	jsr   0x26d6 <___13HC12TimerTaskUiUiR5Ictlr>

0x000018b3 <LBB3>:
    18b3:	b7 74       	tfr   sp,d
    18b5:	c3 00 6a    	addd  #0x6a <_rsvd6A>
    18b8:	16 21 98    	jsr   0x2198 <___3Spi>
    18bb:	ce 3e a9    	ldx   #0x3ea9 <___vt_7HC12Spi>
    18be:	6e f0 70    	stx   112,sp
    18c1:	cc 00 d0    	ldd   #0xd0 <_spi0>
    18c4:	6c f0 72    	std   114,sp

0x000018c7 <LBB4>:
    18c7:	f6 00 d7    	ldab  0xd7 <_ddrs>
    18ca:	ca e0       	orab  #0xe0
    18cc:	7b 00 d7    	stab  0xd7 <_ddrs>
    18cf:	18 0b 54 00 	movb  #0x54,0xd0 <_spi0>
    18d3:	d0 
    18d4:	18 0b 00 00 	movb  #0x0,0xd5 <_spi0+0x5>
    18d8:	d5 

0x000018d9 <LBE3>:
    18d9:	19 f0 5e    	leay  94,sp
    18dc:	6d f0 1a    	sty   26,sp
    18df:	1a f0 6a    	leax  106,sp
    18e2:	6e f0 18    	stx   24,sp

0x000018e5 <LBB5>:
    18e5:	18 00 80 02 	movw  #0x200 <_ddrdlc+0x101>,0,sp
    18e9:	00 
    18ea:	18 00 82 00 	movw  #0x4 <eot>,2,sp
    18ee:	04 
    18ef:	b7 64       	tfr   y,d
    18f1:	16 29 bd    	jsr   0x29bd <___4TaskUiUi>
    18f4:	cc 3f 9a    	ldd   #0x3f9a <___vt_7Ltc1404>
    18f7:	6c f0 64    	std   100,sp
    18fa:	ee f0 18    	ldx   24,sp
    18fd:	ed f0 1a    	ldy   26,sp
    1900:	6e 48       	stx   8,y
    1902:	cc 00 64    	ldd   #0x64 <_atdctl4>
    1905:	6c f0 68    	std   104,sp

0x00001908 <LBB6>:
    1908:	b7 21       	tfr   ccr,b
    190a:	6c f0 5c    	std   92,sp
    190d:	14 10       	sei   

0x0000190f <LBE7>:
    190f:	f6 00 d7    	ldab  0xd7 <_ddrs>
    1912:	ca c0       	orab  #0xc0
    1914:	7b 00 d7    	stab  0xd7 <_ddrs>
    1917:	f6 00 ff    	ldab  0xff <_ddrdlc>
    191a:	ca 40       	orab  #0x40
    191c:	7b 00 ff    	stab  0xff <_ddrdlc>
    191f:	f6 00 fe    	ldab  0xfe <_portdlc>
    1922:	c4 bf       	andb  #0xbf
    1924:	7b 00 fe    	stab  0xfe <_portdlc>
    1927:	ec f0 1a    	ldd   26,sp
    192a:	16 2a 43    	jsr   0x2a43 <_fork__4Task>

0x0000192d <LBB10>:
    192d:	ec f0 5c    	ldd   92,sp
    1930:	b7 12       	tfr   b,ccr

0x00001932 <LBE10>:
    1932:	19 f0 4a    	leay  74,sp
    1935:	6d f0 16    	sty   22,sp
    1938:	18 00 80 00 	movw  #0x1 <err_over>,0,sp
    193c:	01 
    193d:	ee f0 24    	ldx   36,sp
    1940:	6e 82       	stx   2,sp
    1942:	b7 64       	tfr   y,d
    1944:	16 2a d3    	jsr   0x2ad3 <___7ostreamiP9streambuf>
    1947:	19 f0 36    	leay  54,sp
    194a:	6d 8a       	sty   10,sp
    194c:	18 00 80 00 	movw  #0x1 <err_over>,0,sp
    1950:	01 
    1951:	ee f0 24    	ldx   36,sp
    1954:	6e 82       	stx   2,sp
    1956:	b7 64       	tfr   y,d
    1958:	16 2a fc    	jsr   0x2afc <___7istreamiP9streambuf>
    195b:	18 00 80 3e 	movw  #0x3e9b <LC0>,0,sp
    195f:	9b 
    1960:	ec f0 16    	ldd   22,sp
    1963:	16 2b 25    	jsr   0x2b25 <___ls__7ostreamPCc>
    1966:	6c 8a       	std   10,sp

0x00001968 <LBB11>:
    1968:	16 2b 49    	jsr   0x2b49 <_endl__FR7ostream>

0x0000196b <LBE11>:
    196b:	cc 00 0e    	ldd   #0xe <so>
    196e:	16 26 a0    	jsr   0x26a0 <___builtin_new>
    1971:	6c f0 14    	std   20,sp

0x00001974 <LBB13>:
    1974:	18 00 80 02 	movw  #0x200 <_ddrdlc+0x101>,0,sp
    1978:	00 
    1979:	18 00 82 00 	movw  #0x1 <err_over>,2,sp
    197d:	01 
    197e:	16 29 bd    	jsr   0x29bd <___4TaskUiUi>
    1981:	ce 3e b3    	ldx   #0x3eb3 <___vt_8TestTask>
    1984:	ed f0 14    	ldy   20,sp
    1987:	6e 46       	stx   6,y
    1989:	cc 00 04    	ldd   #0x4 <eot>
    198c:	6c 48       	std   8,y
    198e:	ce 00 05    	ldx   #0x5 <enq>
    1991:	6e 4a       	stx   10,y
    1993:	cc 00 02    	ldd   #0x2 <err_under>
    1996:	6c 4c       	std   12,y

0x00001998 <LBB14>:
    1998:	f6 00 ff    	ldab  0xff <_ddrdlc>
    199b:	ea 49       	orab  9,y
    199d:	7b 00 ff    	stab  0xff <_ddrdlc>
    19a0:	e6 49       	ldab  9,y
    19a2:	51          	comb  
    19a3:	6b f0 13    	stab  19,sp
    19a6:	f6 00 fe    	ldab  0xfe <_portdlc>
    19a9:	e4 f0 13    	andb  19,sp
    19ac:	7b 00 fe    	stab  0xfe <_portdlc>
    19af:	ec f0 14    	ldd   20,sp
    19b2:	16 2a 43    	jsr   0x2a43 <_fork__4Task>

0x000019b5 <LBE13>:
    19b5:	cc 00 0e    	ldd   #0xe <so>
    19b8:	16 26 a0    	jsr   0x26a0 <___builtin_new>
    19bb:	6c f0 11    	std   17,sp

0x000019be <LBB15>:
    19be:	18 00 80 02 	movw  #0x200 <_ddrdlc+0x101>,0,sp
    19c2:	00 
    19c3:	18 00 82 00 	movw  #0x2 <err_under>,2,sp
    19c7:	02 
    19c8:	16 29 bd    	jsr   0x29bd <___4TaskUiUi>
    19cb:	ce 3e b3    	ldx   #0x3eb3 <___vt_8TestTask>
    19ce:	ed f0 11    	ldy   17,sp
    19d1:	6e 46       	stx   6,y
    19d3:	cc 00 10    	ldd   #0x10 <dle>
    19d6:	6c 48       	std   8,y
    19d8:	ce 00 01    	ldx   #0x1 <err_over>
    19db:	6e 4a       	stx   10,y
    19dd:	cc 00 04    	ldd   #0x4 <eot>
    19e0:	6c 4c       	std   12,y

0x000019e2 <LBB16>:
    19e2:	f6 00 ff    	ldab  0xff <_ddrdlc>
    19e5:	ea 49       	orab  9,y
    19e7:	7b 00 ff    	stab  0xff <_ddrdlc>
    19ea:	e6 49       	ldab  9,y
    19ec:	51          	comb  
    19ed:	6b f0 10    	stab  16,sp
    19f0:	f6 00 fe    	ldab  0xfe <_portdlc>
    19f3:	e4 f0 10    	andb  16,sp
    19f6:	7b 00 fe    	stab  0xfe <_portdlc>
    19f9:	ec f0 11    	ldd   17,sp
    19fc:	16 2a 43    	jsr   0x2a43 <_fork__4Task>

0x000019ff <LBE15>:
    19ff:	cc 00 0e    	ldd   #0xe <so>
    1a02:	16 26 a0    	jsr   0x26a0 <___builtin_new>
    1a05:	6c 8e       	std   14,sp

0x00001a07 <LBB17>:
    1a07:	18 00 80 02 	movw  #0x200 <_ddrdlc+0x101>,0,sp
    1a0b:	00 
    1a0c:	18 00 82 00 	movw  #0x3 <err_div0>,2,sp
    1a10:	03 
    1a11:	16 29 bd    	jsr   0x29bd <___4TaskUiUi>
    1a14:	ce 3e b3    	ldx   #0x3eb3 <___vt_8TestTask>
    1a17:	ed 8e       	ldy   14,sp
    1a19:	6e 46       	stx   6,y
    1a1b:	cc 00 20    	ldd   #0x20 <_brkct0>
    1a1e:	6c 48       	std   8,y
    1a20:	ce 00 0f    	ldx   #0xf <si>
    1a23:	6e 4a       	stx   10,y
    1a25:	cc 00 08    	ldd   #0x8 <bs>
    1a28:	6c 4c       	std   12,y

0x00001a2a <LBB18>:
    1a2a:	f6 00 ff    	ldab  0xff <_ddrdlc>
    1a2d:	ea 49       	orab  9,y
    1a2f:	7b 00 ff    	stab  0xff <_ddrdlc>
    1a32:	e6 49       	ldab  9,y
    1a34:	51          	comb  
    1a35:	6b 8d       	stab  13,sp
    1a37:	f6 00 fe    	ldab  0xfe <_portdlc>
    1a3a:	e4 8d       	andb  13,sp
    1a3c:	7b 00 fe    	stab  0xfe <_portdlc>
    1a3f:	ec 8e       	ldd   14,sp
    1a41:	16 2a 43    	jsr   0x2a43 <_fork__4Task>

0x00001a44 <LBE17>:
    1a44:	19 f0 26    	leay  38,sp
    1a47:	6d 8a       	sty   10,sp
    1a49:	ee f0 24    	ldx   36,sp
    1a4c:	6e 80       	stx   0,sp
    1a4e:	18 00 82 02 	movw  #0x200 <_ddrdlc+0x101>,2,sp
    1a52:	00 
    1a53:	18 00 84 00 	movw  #0x5 <enq>,4,sp
    1a57:	05 
    1a58:	ed f0 1e    	ldy   30,sp
    1a5b:	6d 86       	sty   6,sp
    1a5d:	ee f0 1c    	ldx   28,sp
    1a60:	6e 88       	stx   8,sp
    1a62:	ec 8a       	ldd   10,sp
    1a64:	16 1b b9    	jsr   0x1bb9 <___10AppCmdProcP9streambufUiUiR10PwmChannelT4>
    1a67:	ed f0 14    	ldy   20,sp
    1a6a:	27 0d       	beq   0x1a79 <L490>
    1a6c:	ee 46       	ldx   6,y
    1a6e:	18 00 80 00 	movw  #0x3 <err_div0>,0,sp
    1a72:	03 
    1a73:	b7 64       	tfr   y,d
    1a75:	15 e3 00 04 	jsr   [4,x]

0x00001a79 <L490>:
    1a79:	ed f0 11    	ldy   17,sp
    1a7c:	27 0d       	beq   0x1a8b <L492>
    1a7e:	ee 46       	ldx   6,y
    1a80:	18 00 80 00 	movw  #0x3 <err_div0>,0,sp
    1a84:	03 
    1a85:	b7 64       	tfr   y,d
    1a87:	15 e3 00 04 	jsr   [4,x]

0x00001a8b <L492>:
    1a8b:	ed 8e       	ldy   14,sp
    1a8d:	27 0d       	beq   0x1a9c <L497>
    1a8f:	ee 46       	ldx   6,y
    1a91:	18 00 80 00 	movw  #0x3 <err_div0>,0,sp
    1a95:	03 
    1a96:	b7 64       	tfr   y,d
    1a98:	15 e3 00 04 	jsr   [4,x]

0x00001a9c <L497>:
    1a9c:	16 29 86    	jsr   0x2986 <_yield__4Task>
    1a9f:	20 fb       	bra   0x1a9c <L497>

0x00001aa1 <LBB19>:
    1aa1:	1b f0 fc    	leas  252,sp
    1aa4:	3d          	rts   

0x00001aa5 <Lscope0>:
    1aa5:	1b 99       	leas  -7,sp
    1aa7:	6c 85       	std   5,sp

0x00001aa9 <LBB48>:
    1aa9:	ee 89       	ldx   9,sp

0x00001aab <LBB49>:
    1aab:	87 c7       	clrd  

0x00001aad <L555>:
    1aad:	6c 83       	std   3,sp
    1aaf:	ed 8b       	ldy   11,sp
    1ab1:	6d 81       	sty   1,sp
    1ab3:	2c 07       	bge   0x1abc <L392>
    1ab5:	b7 64       	tfr   y,d
    1ab7:	c3 00 07    	addd  #0x7 <bel>
    1aba:	6c 81       	std   1,sp

0x00001abc <L392>:
    1abc:	ec 81       	ldd   1,sp
    1abe:	47 56       	asrd  
    1ac0:	47 56       	asrd  
    1ac2:	47 56       	asrd  
    1ac4:	6c 81       	std   1,sp
    1ac6:	ed 83       	ldy   3,sp
    1ac8:	ad 81       	cpy   1,sp
    1aca:	2c 29       	bge   0x1af5 <L389>
    1acc:	ed 85       	ldy   5,sp
    1ace:	ed 48       	ldy   8,y
    1ad0:	c7          	clrb  
    1ad1:	6b 45       	stab  5,y
    1ad3:	ed 85       	ldy   5,sp
    1ad5:	ed 48       	ldy   8,y
    1ad7:	6d 81       	sty   1,sp
    1ad9:	e6 43       	ldab  3,y
    1adb:	6b 80       	stab  0,sp
    1add:	2d 06       	blt   0x1ae5 <L394>

0x00001adf <L393>:
    1adf:	ed 81       	ldy   1,sp
    1ae1:	e6 43       	ldab  3,y
    1ae3:	2c fa       	bge   0x1adf <L393>

0x00001ae5 <L394>:
    1ae5:	ed 85       	ldy   5,sp
    1ae7:	ed 48       	ldy   8,y
    1ae9:	e6 45       	ldab  5,y
    1aeb:	6b 30       	stab  1,x+
    1aed:	ec 83       	ldd   3,sp
    1aef:	c3 00 01    	incd  
    1af2:	06 1a ad    	jmp   0x1aad <L555>

0x00001af5 <L389>:
    1af5:	1b 87       	leas  7,sp
    1af7:	3d          	rts   

0x00001af8 <Lscope1>:
    1af8:	1b 99       	leas  -7,sp
    1afa:	6c 85       	std   5,sp

0x00001afc <LBB50>:
    1afc:	ee 89       	ldx   9,sp

0x00001afe <LBB51>:
    1afe:	87 c7       	clrd  

0x00001b00 <L556>:
    1b00:	6c 83       	std   3,sp
    1b02:	ed 8b       	ldy   11,sp
    1b04:	6d 81       	sty   1,sp
    1b06:	2c 07       	bge   0x1b0f <L372>
    1b08:	b7 64       	tfr   y,d
    1b0a:	c3 00 07    	addd  #0x7 <bel>
    1b0d:	6c 81       	std   1,sp

0x00001b0f <L372>:
    1b0f:	ec 81       	ldd   1,sp
    1b11:	47 56       	asrd  
    1b13:	47 56       	asrd  
    1b15:	47 56       	asrd  
    1b17:	6c 81       	std   1,sp
    1b19:	ed 83       	ldy   3,sp
    1b1b:	ad 81       	cpy   1,sp
    1b1d:	2c 22       	bge   0x1b41 <L369>
    1b1f:	ed 85       	ldy   5,sp
    1b21:	ed 48       	ldy   8,y
    1b23:	e6 30       	ldab  1,x+
    1b25:	6b 45       	stab  5,y
    1b27:	ed 85       	ldy   5,sp
    1b29:	ed 48       	ldy   8,y
    1b2b:	6d 81       	sty   1,sp
    1b2d:	e6 43       	ldab  3,y
    1b2f:	6b 80       	stab  0,sp
    1b31:	2d 06       	blt   0x1b39 <L370>

0x00001b33 <L373>:
    1b33:	ed 81       	ldy   1,sp
    1b35:	e6 43       	ldab  3,y
    1b37:	2c fa       	bge   0x1b33 <L373>

0x00001b39 <L370>:
    1b39:	ec 83       	ldd   3,sp
    1b3b:	c3 00 01    	incd  
    1b3e:	06 1b 00    	jmp   0x1b00 <L556>

0x00001b41 <L369>:
    1b41:	1b 87       	leas  7,sp
    1b43:	3d          	rts   

0x00001b44 <Lscope2>:
    1b44:	1b 9e       	leas  -2,sp
    1b46:	b7 46       	tfr   d,y
    1b48:	18 00 46 3e 	movw  #0x3ea9 <___vt_7HC12Spi>,6,y
    1b4c:	a9 

0x00001b4d <LBB52>:
    1b4d:	ee 48       	ldx   8,y
    1b4f:	18 08 00 04 	movb  #0x4,0,x

0x00001b53 <LBE52>:
    1b53:	18 02 84 80 	movw  4,sp,0,sp
    1b57:	16 21 ad    	jsr   0x21ad <__$_3Spi>
    1b5a:	1b 82       	leas  2,sp
    1b5c:	3d          	rts   

0x00001b5d <Lscope3>:
    1b5d:	1b 9a       	leas  -6,sp
    1b5f:	6c 82       	std   2,sp

0x00001b61 <L206>:
    1b61:	ed 82       	ldy   2,sp
    1b63:	ee 4c       	ldx   12,y
    1b65:	b7 54       	tfr   x,d
    1b67:	16 26 2a    	jsr   0x262a <_delay__9TimerTaski>

0x00001b6a <LBB55>:
    1b6a:	b7 21       	tfr   ccr,b
    1b6c:	6c 84       	std   4,sp
    1b6e:	14 10       	sei   

0x00001b70 <LBE57>:
    1b70:	ed 82       	ldy   2,sp
    1b72:	e6 49       	ldab  9,y
    1b74:	51          	comb  
    1b75:	6b 81       	stab  1,sp
    1b77:	f6 00 fe    	ldab  0xfe <_portdlc>
    1b7a:	e4 81       	andb  1,sp
    1b7c:	7b 00 fe    	stab  0xfe <_portdlc>

0x00001b7f <LBB59>:
    1b7f:	ec 84       	ldd   4,sp
    1b81:	b7 12       	tfr   b,ccr

0x00001b83 <LBB61>:
    1b83:	ce 00 00    	clrx  

0x00001b86 <L216>:
    1b86:	ed 82       	ldy   2,sp
    1b88:	ae 4a       	cpx   10,y
    1b8a:	18 24 00 16 	lbcc  0x1ba4 <L217>

0x00001b8e <LBB63>:
    1b8e:	b7 21       	tfr   ccr,b
    1b90:	6c 84       	std   4,sp
    1b92:	14 10       	sei   

0x00001b94 <LBE63>:
    1b94:	f6 00 fe    	ldab  0xfe <_portdlc>
    1b97:	e8 49       	eorb  9,y
    1b99:	7b 00 fe    	stab  0xfe <_portdlc>

0x00001b9c <LBB65>:
    1b9c:	ec 84       	ldd   4,sp
    1b9e:	b7 12       	tfr   b,ccr

0x00001ba0 <LBE62>:
    1ba0:	08          	inx   
    1ba1:	06 1b 86    	jmp   0x1b86 <L216>

0x00001ba4 <L217>:
    1ba4:	16 29 86    	jsr   0x2986 <_yield__4Task>

0x00001ba7 <LBE54>:
    1ba7:	06 1b 61    	jmp   0x1b61 <L206>

0x00001baa <LBE53>:
    1baa:	1b 86       	leas  6,sp
    1bac:	3d          	rts   

0x00001bad <Lscope4>:
    1bad:	1b 9e       	leas  -2,sp
    1baf:	18 02 84 80 	movw  4,sp,0,sp
    1bb3:	16 2a 1b    	jsr   0x2a1b <__$_4Task>
    1bb6:	1b 82       	leas  2,sp
    1bb8:	3d          	rts   

0x00001bb9 <___10AppCmdProcP9streambufUiUiR10PwmChannelT4>:
    1bb9:	1b 98       	leas  -8,sp
    1bbb:	6c 86       	std   6,sp
    1bbd:	18 02 8a 80 	movw  10,sp,0,sp
    1bc1:	18 00 82 3e 	movw  #0x3ee6 <LC4>,2,sp
    1bc5:	e6 
    1bc6:	16 22 cf    	jsr   0x22cf <___7CmdProcP9streambufPCc>
    1bc9:	ed 86       	ldy   6,sp
    1bcb:	19 44       	leay  4,y
    1bcd:	6d 84       	sty   4,sp
    1bcf:	ec 8c       	ldd   12,sp
    1bd1:	6c 80       	std   0,sp
    1bd3:	ed 8e       	ldy   14,sp
    1bd5:	6d 82       	sty   2,sp
    1bd7:	ec 84       	ldd   4,sp
    1bd9:	16 29 bd    	jsr   0x29bd <___4TaskUiUi>
    1bdc:	cc 3f 3a    	ldd   #0x3f3a <___vt_10AppCmdProc>
    1bdf:	ed 86       	ldy   6,sp
    1be1:	6c 4a       	std   10,y
    1be3:	ec f0 10    	ldd   16,sp
    1be6:	6c 4c       	std   12,y
    1be8:	ec f0 12    	ldd   18,sp
    1beb:	6c 4e       	std   14,y
    1bed:	ce 00 00    	clrx  

0x00001bf0 <LBB2>:
    1bf0:	8d 00 00    	tsty  
    1bf3:	27 02       	beq   0x1bf7 <L283>
    1bf5:	ee 84       	ldx   4,sp

0x00001bf7 <L283>:
    1bf7:	b7 54       	tfr   x,d
    1bf9:	16 2a 43    	jsr   0x2a43 <_fork__4Task>

0x00001bfc <LBE2>:
    1bfc:	ec 86       	ldd   6,sp
    1bfe:	1b 88       	leas  8,sp
    1c00:	3d          	rts   

0x00001c01 <_main__10AppCmdProc>:
    1c01:	1b f1 c8    	leas  -56,sp
    1c04:	6c f0 1a    	std   26,sp

0x00001c07 <LBB3>:
    1c07:	cc 00 04    	ldd   #0x4 <eot>
    1c0a:	16 26 a0    	jsr   0x26a0 <___builtin_new>
    1c0d:	6c f0 18    	std   24,sp

0x00001c10 <LBB4>:
    1c10:	18 00 80 3e 	movw  #0x3eeb <LC5>,0,sp
    1c14:	eb 
    1c15:	16 22 4a    	jsr   0x224a <___3CmdPCc>
    1c18:	cc 3f 34    	ldd   #0x3f34 <___vt_8HelloCmd>
    1c1b:	ed f0 18    	ldy   24,sp
    1c1e:	6c 42       	std   2,y

0x00001c20 <LBB5>:
    1c20:	6d f0 1c    	sty   28,sp
    1c23:	cc 00 04    	ldd   #0x4 <eot>
    1c26:	16 26 a0    	jsr   0x26a0 <___builtin_new>
    1c29:	6c f0 16    	std   22,sp

0x00001c2c <LBB6>:
    1c2c:	18 00 80 3e 	movw  #0x3ef1 <LC6>,0,sp
    1c30:	f1 
    1c31:	16 22 4a    	jsr   0x224a <___3CmdPCc>
    1c34:	cc 3f 2e    	ldd   #0x3f2e <___vt_10DumpMemCmd>
    1c37:	ed f0 16    	ldy   22,sp
    1c3a:	6c 42       	std   2,y

0x00001c3c <LBB7>:
    1c3c:	6d f0 1e    	sty   30,sp
    1c3f:	cc 00 06    	ldd   #0x6 <aa_siz>
    1c42:	16 26 a0    	jsr   0x26a0 <___builtin_new>
    1c45:	6c f0 14    	std   20,sp

0x00001c48 <Ltext5>:
    1c48:	ed f0 1a    	ldy   26,sp
    1c4b:	ed 4c       	ldy   12,y
    1c4d:	6d f0 12    	sty   18,sp

0x00001c50 <LBB8>:
    1c50:	18 00 80 3e 	movw  #0x3ef6 <LC7>,0,sp
    1c54:	f6 
    1c55:	16 22 4a    	jsr   0x224a <___3CmdPCc>
    1c58:	cc 3f 28    	ldd   #0x3f28 <___vt_10SetDutyCmd>
    1c5b:	ed f0 14    	ldy   20,sp
    1c5e:	6c 42       	std   2,y
    1c60:	ec f0 12    	ldd   18,sp
    1c63:	6c 44       	std   4,y

0x00001c65 <LBB9>:
    1c65:	6d f0 20    	sty   32,sp
    1c68:	cc 00 06    	ldd   #0x6 <aa_siz>
    1c6b:	16 26 a0    	jsr   0x26a0 <___builtin_new>
    1c6e:	6c f0 10    	std   16,sp

0x00001c71 <Ltext7>:
    1c71:	ed f0 1a    	ldy   26,sp
    1c74:	ed 4e       	ldy   14,y
    1c76:	6d 8e       	sty   14,sp

0x00001c78 <LBB10>:
    1c78:	18 00 80 3f 	movw  #0x3f01 <LC8>,0,sp
    1c7c:	01 
    1c7d:	16 22 4a    	jsr   0x224a <___3CmdPCc>
    1c80:	cc 3f 28    	ldd   #0x3f28 <___vt_10SetDutyCmd>
    1c83:	ed f0 10    	ldy   16,sp
    1c86:	6c 42       	std   2,y
    1c88:	ec 8e       	ldd   14,sp
    1c8a:	6c 44       	std   4,y

0x00001c8c <LBB11>:
    1c8c:	6d f0 22    	sty   34,sp
    1c8f:	cc 00 06    	ldd   #0x6 <aa_siz>
    1c92:	16 26 a0    	jsr   0x26a0 <___builtin_new>
    1c95:	6c 8c       	std   12,sp

0x00001c97 <Ltext9>:
    1c97:	ed f0 1a    	ldy   26,sp
    1c9a:	ed 4c       	ldy   12,y
    1c9c:	6d 8a       	sty   10,sp

0x00001c9e <LBB12>:
    1c9e:	18 00 80 3f 	movw  #0x3f0c <LC9>,0,sp
    1ca2:	0c 
    1ca3:	16 22 4a    	jsr   0x224a <___3CmdPCc>
    1ca6:	cc 3f 22    	ldd   #0x3f22 <___vt_10GetDutyCmd>
    1ca9:	ed 8c       	ldy   12,sp
    1cab:	6c 42       	std   2,y
    1cad:	ec 8a       	ldd   10,sp
    1caf:	6c 44       	std   4,y

0x00001cb1 <LBB13>:
    1cb1:	6d f0 24    	sty   36,sp
    1cb4:	cc 00 06    	ldd   #0x6 <aa_siz>
    1cb7:	16 26 a0    	jsr   0x26a0 <___builtin_new>
    1cba:	6c 88       	std   8,sp

0x00001cbc <Ltext11>:
    1cbc:	ed f0 1a    	ldy   26,sp
    1cbf:	ed 4e       	ldy   14,y
    1cc1:	6d 86       	sty   6,sp

0x00001cc3 <LBB14>:
    1cc3:	18 00 80 3f 	movw  #0x3f17 <LC10>,0,sp
    1cc7:	17 
    1cc8:	16 22 4a    	jsr   0x224a <___3CmdPCc>
    1ccb:	cc 3f 22    	ldd   #0x3f22 <___vt_10GetDutyCmd>
    1cce:	ed 88       	ldy   8,sp
    1cd0:	6c 42       	std   2,y
    1cd2:	ec 86       	ldd   6,sp
    1cd4:	6c 44       	std   4,y

0x00001cd6 <LBB15>:
    1cd6:	6d f0 26    	sty   38,sp
    1cd9:	87 c7       	clrd  
    1cdb:	6c f0 28    	std   40,sp
    1cde:	ed f0 1c    	ldy   28,sp
    1ce1:	6d f0 2a    	sty   42,sp
    1ce4:	ec f0 1e    	ldd   30,sp
    1ce7:	6c f0 2c    	std   44,sp
    1cea:	ed f0 20    	ldy   32,sp
    1ced:	6d f0 2e    	sty   46,sp
    1cf0:	ec f0 22    	ldd   34,sp
    1cf3:	6c f0 30    	std   48,sp
    1cf6:	ed f0 24    	ldy   36,sp
    1cf9:	6d f0 32    	sty   50,sp
    1cfc:	ec f0 26    	ldd   38,sp
    1cff:	6c f0 34    	std   52,sp
    1d02:	ed f0 28    	ldy   40,sp
    1d05:	6d f0 36    	sty   54,sp
    1d08:	19 f0 2a    	leay  42,sp
    1d0b:	6d 84       	sty   4,sp
    1d0d:	6d 80       	sty   0,sp
    1d0f:	ec f0 1a    	ldd   26,sp
    1d12:	16 22 da    	jsr   0x22da <_present__7CmdProcPP3Cmd>

0x00001d15 <LBB16>:
    1d15:	ed 84       	ldy   4,sp
    1d17:	6d 82       	sty   2,sp
    1d19:	ee f3 00 02 	ldx   [2,sp]
    1d1d:	27 12       	beq   0x1d31 <L299>

0x00001d1f <L301>:
    1d1f:	ec f3 00 02 	ldd   [2,sp]
    1d23:	16 26 ce    	jsr   0x26ce <___builtin_delete>
    1d26:	ed 82       	ldy   2,sp
    1d28:	ec 61       	ldd   2,+y
    1d2a:	6d 82       	sty   2,sp
    1d2c:	8c 00 00    	tstd  
    1d2f:	26 ee       	bne   0x1d1f <L301>

0x00001d31 <L299>:
    1d31:	1b f0 38    	leas  56,sp
    1d34:	3d          	rts   

0x00001d35 <Lscope1>:
    1d35:	c3 ff fc    	addd  #0xfffc <.stab+0x7c8>
    1d38:	06 1e 5d    	jmp   0x1e5d <__$_10AppCmdProc>

0x00001d3b <___thunk_4_main__10AppCmdProc>:
    1d3b:	c3 ff fc    	addd  #0xfffc <.stab+0x7c8>
    1d3e:	06 1c 01    	jmp   0x1c01 <_main__10AppCmdProc>

0x00001d41 <Ltext13>:
    1d41:	1b 92       	leas  -14,sp
    1d43:	b7 45       	tfr   d,x

0x00001d45 <LBB17>:
    1d45:	19 8a       	leay  10,sp
    1d47:	6d 84       	sty   4,sp
    1d49:	18 02 04 80 	movw  4,x,0,sp
    1d4d:	b7 64       	tfr   y,d
    1d4f:	16 13 1e    	jsr   0x131e <_getDuty__10PwmChannel>
    1d52:	18 02 8a 86 	movw  10,sp,6,sp
    1d56:	ed 84       	ldy   4,sp
    1d58:	ed 42       	ldy   2,y
    1d5a:	6d 88       	sty   8,sp

0x00001d5c <LBB18>:
    1d5c:	ec f0 12    	ldd   18,sp
    1d5f:	16 2b 49    	jsr   0x2b49 <_endl__FR7ostream>

0x00001d62 <LBE18>:
    1d62:	18 02 86 80 	movw  6,sp,0,sp
    1d66:	18 02 88 82 	movw  8,sp,2,sp
    1d6a:	16 2b 5f    	jsr   0x2b5f <___ls__7ostreamf>

0x00001d6d <LBB20>:
    1d6d:	16 2c d6    	jsr   0x2cd6 <_flush__FR7ostream>

0x00001d70 <LBE20>:
    1d70:	87 c7       	clrd  

0x00001d72 <LBE17>:
    1d72:	1b 8e       	leas  14,sp
    1d74:	3d          	rts   

0x00001d75 <Lscope2>:
    1d75:	1b 94       	leas  -12,sp
    1d77:	6c 86       	std   6,sp
    1d79:	ec 8e       	ldd   14,sp

0x00001d7b <LBB22>:
    1d7b:	19 88       	leay  8,sp
    1d7d:	6d 84       	sty   4,sp
    1d7f:	6d 80       	sty   0,sp
    1d81:	16 2c e2    	jsr   0x2ce2 <___rs__7istreamRf>
    1d84:	b7 45       	tfr   d,x
    1d86:	87 c7       	clrd  
    1d88:	8e 00 00    	tstx  
    1d8b:	27 02       	beq   0x1d8f <L255>
    1d8d:	ec 00       	ldd   0,x

0x00001d8f <L255>:
    1d8f:	b7 46       	tfr   d,y
    1d91:	ec 44       	ldd   4,y
    1d93:	87          	clra  
    1d94:	c4 06       	andb  #0x6

0x00001d96 <LBE24>:
    1d96:	8c 00 00    	tstd  
    1d99:	26 1b       	bne   0x1db6 <L253>

0x00001d9b <Ltext21>:
    1d9b:	ec f0 10    	ldd   16,sp
    1d9e:	16 2c d6    	jsr   0x2cd6 <_flush__FR7ostream>

0x00001da1 <Ltext22>:
    1da1:	ed 86       	ldy   6,sp
    1da3:	ec 44       	ldd   4,y
    1da5:	18 02 88 80 	movw  8,sp,0,sp
    1da9:	ed 84       	ldy   4,sp
    1dab:	ed 42       	ldy   2,y
    1dad:	6d 82       	sty   2,sp
    1daf:	16 12 93    	jsr   0x1293 <_setDuty__10PwmChannelf>
    1db2:	87 c7       	clrd  
    1db4:	20 03       	bra   0x1db9 <L303>

0x00001db6 <L253>:
    1db6:	cc 3e d6    	ldd   #0x3ed6 <LC3>

0x00001db9 <L303>:
    1db9:	1b 8c       	leas  12,sp
    1dbb:	3d          	rts   

0x00001dbc <Lscope3>:
    1dbc:	1b 98       	leas  -8,sp

0x00001dbe <LBB30>:
    1dbe:	ec f3 00 0a 	ldd   [10,sp]
    1dc2:	16 2e ef    	jsr   0x2eef <_hex__FR3ios>

0x00001dc5 <LBE32>:
    1dc5:	1a 86       	leax  6,sp
    1dc7:	6e 80       	stx   0,sp
    1dc9:	ec 8a       	ldd   10,sp
    1dcb:	16 2e fc    	jsr   0x2efc <___rs__7istreamRUi>
    1dce:	b7 45       	tfr   d,x
    1dd0:	87 c7       	clrd  
    1dd2:	8e 00 00    	tstx  
    1dd5:	27 02       	beq   0x1dd9 <L202>
    1dd7:	ec 00       	ldd   0,x

0x00001dd9 <L202>:
    1dd9:	b7 46       	tfr   d,y
    1ddb:	ec 44       	ldd   4,y
    1ddd:	87          	clra  
    1dde:	c4 06       	andb  #0x6

0x00001de0 <LBE34>:
    1de0:	8c 00 00    	tstd  
    1de3:	27 06       	beq   0x1deb <L200>
    1de5:	cc 3e c9    	ldd   #0x3ec9 <LC1>
    1de8:	06 1e 46    	jmp   0x1e46 <L304>

0x00001deb <L200>:
    1deb:	ec f3 00 0a 	ldd   [10,sp]
    1def:	16 2e ef    	jsr   0x2eef <_hex__FR3ios>

0x00001df2 <LBE39>:
    1df2:	19 84       	leay  4,sp
    1df4:	6d 80       	sty   0,sp
    1df6:	ec 8a       	ldd   10,sp
    1df8:	16 2e fc    	jsr   0x2efc <___rs__7istreamRUi>
    1dfb:	b7 45       	tfr   d,x
    1dfd:	87 c7       	clrd  
    1dff:	8e 00 00    	tstx  
    1e02:	27 02       	beq   0x1e06 <L210>
    1e04:	ec 00       	ldd   0,x

0x00001e06 <L210>:
    1e06:	b7 46       	tfr   d,y
    1e08:	ec 44       	ldd   4,y
    1e0a:	87          	clra  
    1e0b:	c4 06       	andb  #0x6

0x00001e0d <LBE41>:
    1e0d:	8c 00 00    	tstd  
    1e10:	27 07       	beq   0x1e19 <L208>
    1e12:	ec 86       	ldd   6,sp
    1e14:	c3 00 40    	addd  #0x40 <_pwmclk>
    1e17:	6c 84       	std   4,sp

0x00001e19 <L208>:
    1e19:	ec 8c       	ldd   12,sp
    1e1b:	16 2b 49    	jsr   0x2b49 <_endl__FR7ostream>

0x00001e1e <LBB47>:
    1e1e:	16 2c d6    	jsr   0x2cd6 <_flush__FR7ostream>

0x00001e21 <LBB49>:
    1e21:	ed 86       	ldy   6,sp
    1e23:	6d 82       	sty   2,sp

0x00001e25 <L218>:
    1e25:	ed 82       	ldy   2,sp
    1e27:	ad 84       	cpy   4,sp
    1e29:	22 19       	bhi   0x1e44 <L219>
    1e2b:	e6 70       	ldab  1,y+
    1e2d:	87          	clra  
    1e2e:	6d 82       	sty   2,sp
    1e30:	6c 80       	std   0,sp
    1e32:	ec 8c       	ldd   12,sp
    1e34:	16 2f 12    	jsr   0x2f12 <___ls__7ostreami>
    1e37:	18 00 80 3e 	movw  #0x3ed4 <LC2>,0,sp
    1e3b:	d4 
    1e3c:	16 2b 25    	jsr   0x2b25 <___ls__7ostreamPCc>

0x00001e3f <LBB51>:
    1e3f:	16 2c d6    	jsr   0x2cd6 <_flush__FR7ostream>

0x00001e42 <LBE50>:
    1e42:	20 e1       	bra   0x1e25 <L218>

0x00001e44 <L219>:
    1e44:	87 c7       	clrd  

0x00001e46 <L304>:
    1e46:	1b 88       	leas  8,sp
    1e48:	3d          	rts   

0x00001e49 <Lscope4>:
    1e49:	1b 9e       	leas  -2,sp
    1e4b:	ec 86       	ldd   6,sp

0x00001e4d <LBB53>:
    1e4d:	16 2b 49    	jsr   0x2b49 <_endl__FR7ostream>

0x00001e50 <LBE54>:
    1e50:	18 00 80 3e 	movw  #0x3ebb <LC0>,0,sp
    1e54:	bb 
    1e55:	16 2b 25    	jsr   0x2b25 <___ls__7ostreamPCc>
    1e58:	87 c7       	clrd  

0x00001e5a <LBE53>:
    1e5a:	1b 82       	leas  2,sp
    1e5c:	3d          	rts   

0x00001e5d <__$_10AppCmdProc>:
    1e5d:	1b 9c       	leas  -4,sp
    1e5f:	6c 82       	std   2,sp
    1e61:	cc 3f 3a    	ldd   #0x3f3a <___vt_10AppCmdProc>
    1e64:	ed 82       	ldy   2,sp
    1e66:	6c 4a       	std   10,y
    1e68:	1a 44       	leax  4,y
    1e6a:	18 00 80 00 	movw  #0x0 <*ABS*>,0,sp
    1e6e:	00 
    1e6f:	b7 54       	tfr   x,d
    1e71:	16 2a 1b    	jsr   0x2a1b <__$_4Task>
    1e74:	ec 86       	ldd   6,sp
    1e76:	87          	clra  
    1e77:	c4 01       	andb  #0x1
    1e79:	b7 45       	tfr   d,x
    1e7b:	8e 00 00    	tstx  
    1e7e:	27 05       	beq   0x1e85 <L308>
    1e80:	ec 82       	ldd   2,sp
    1e82:	16 26 ce    	jsr   0x26ce <___builtin_delete>

0x00001e85 <L308>:
    1e85:	1b 84       	leas  4,sp
    1e87:	3d          	rts   

0x00001e88 <___6SciBufRV7sciportUiUi>:
    1e88:	1b 97       	leas  -9,sp
    1e8a:	6c 87       	std   7,sp
    1e8c:	16 2f 5f    	jsr   0x2f5f <___9streambuf>
    1e8f:	cc 3f 42    	ldd   #0x3f42 <___vt_6SciBuf>
    1e92:	ed 87       	ldy   7,sp
    1e94:	6c e8 12    	std   18,y
    1e97:	ec 8b       	ldd   11,sp
    1e99:	6c e8 14    	std   20,y
    1e9c:	ec 8d       	ldd   13,sp
    1e9e:	16 26 b7    	jsr   0x26b7 <___builtin_vec_new>
    1ea1:	b7 45       	tfr   d,x
    1ea3:	ed 87       	ldy   7,sp
    1ea5:	6e e8 16    	stx   22,y
    1ea8:	ec 8d       	ldd   13,sp
    1eaa:	1a e6       	leax  d,x
    1eac:	6e e8 18    	stx   24,y
    1eaf:	ec 8f       	ldd   15,sp
    1eb1:	16 26 b7    	jsr   0x26b7 <___builtin_vec_new>
    1eb4:	b7 45       	tfr   d,x
    1eb6:	ed 87       	ldy   7,sp
    1eb8:	6e e8 1a    	stx   26,y
    1ebb:	ec 8f       	ldd   15,sp
    1ebd:	1a e6       	leax  d,x
    1ebf:	6e e8 1c    	stx   28,y

0x00001ec2 <LBB2>:
    1ec2:	ed e8 16    	ldy   22,y
    1ec5:	6d 80       	sty   0,sp
    1ec7:	ed 87       	ldy   7,sp
    1ec9:	ed e8 18    	ldy   24,y
    1ecc:	6d 82       	sty   2,sp
    1ece:	ed 87       	ldy   7,sp
    1ed0:	ed e8 18    	ldy   24,y
    1ed3:	6d 84       	sty   4,sp
    1ed5:	ec 87       	ldd   7,sp
    1ed7:	16 2f 97    	jsr   0x2f97 <_setg__9streambufPcN21>
    1eda:	ed 87       	ldy   7,sp
    1edc:	ed e8 1a    	ldy   26,y
    1edf:	6d 80       	sty   0,sp
    1ee1:	ed 87       	ldy   7,sp
    1ee3:	ed e8 1c    	ldy   28,y
    1ee6:	6d 82       	sty   2,sp
    1ee8:	ec 87       	ldd   7,sp
    1eea:	16 2f a7    	jsr   0x2fa7 <_setp__9streambufPcT1>
    1eed:	ed 87       	ldy   7,sp
    1eef:	ee e8 14    	ldx   20,y
    1ef2:	e6 03       	ldab  3,x
    1ef4:	ca 0c       	orab  #0xc
    1ef6:	6b 03       	stab  3,x

0x00001ef8 <LBE2>:
    1ef8:	b7 64       	tfr   y,d
    1efa:	1b 89       	leas  9,sp
    1efc:	3d          	rts   

0x00001efd <__$_6SciBuf>:
    1efd:	1b 9b       	leas  -5,sp
    1eff:	6c 83       	std   3,sp
    1f01:	cc 3f 42    	ldd   #0x3f42 <___vt_6SciBuf>
    1f04:	ed 83       	ldy   3,sp
    1f06:	6c e8 12    	std   18,y

0x00001f09 <LBB3>:
    1f09:	ee e8 14    	ldx   20,y
    1f0c:	e6 03       	ldab  3,x
    1f0e:	c4 f3       	andb  #0xf3
    1f10:	6b 03       	stab  3,x
    1f12:	ee e8 1a    	ldx   26,y
    1f15:	b7 54       	tfr   x,d
    1f17:	16 26 ce    	jsr   0x26ce <___builtin_delete>
    1f1a:	ed 83       	ldy   3,sp
    1f1c:	ee e8 16    	ldx   22,y
    1f1f:	b7 54       	tfr   x,d
    1f21:	16 26 ce    	jsr   0x26ce <___builtin_delete>

0x00001f24 <LBE3>:
    1f24:	ec 87       	ldd   7,sp
    1f26:	6c 80       	std   0,sp
    1f28:	ec 83       	ldd   3,sp
    1f2a:	16 2f b4    	jsr   0x2fb4 <__$_9streambuf>
    1f2d:	1b 85       	leas  5,sp
    1f2f:	3d          	rts   

0x00001f30 <_underflow__6SciBuf>:
    1f30:	1b 96       	leas  -10,sp
    1f32:	6c 88       	std   8,sp

0x00001f34 <LBB4>:
    1f34:	b7 46       	tfr   d,y
    1f36:	ed e8 16    	ldy   22,y
    1f39:	6d 86       	sty   6,sp

0x00001f3b <L152>:
    1f3b:	ec 88       	ldd   8,sp
    1f3d:	16 1f d5    	jsr   0x1fd5 <_recv__6SciBuf>
    1f40:	ee 86       	ldx   6,sp
    1f42:	6b 30       	stab  1,x+
    1f44:	6e 86       	stx   6,sp
    1f46:	ed 88       	ldy   8,sp
    1f48:	ae e8 18    	cpx   24,y
    1f4b:	24 0a       	bcc   0x1f57 <L153>
    1f4d:	b7 64       	tfr   y,d
    1f4f:	16 1f ca    	jsr   0x1fca <_poll__6SciBuf>
    1f52:	8c 00 00    	tstd  
    1f55:	26 e4       	bne   0x1f3b <L152>

0x00001f57 <L153>:
    1f57:	ee 88       	ldx   8,sp
    1f59:	ee e0 16    	ldx   22,x
    1f5c:	6e 80       	stx   0,sp
    1f5e:	ed 88       	ldy   8,sp
    1f60:	ed e8 16    	ldy   22,y
    1f63:	6d 82       	sty   2,sp
    1f65:	ee 86       	ldx   6,sp
    1f67:	6e 84       	stx   4,sp
    1f69:	ec 88       	ldd   8,sp
    1f6b:	16 2f 97    	jsr   0x2f97 <_setg__9streambufPcN21>
    1f6e:	ed 88       	ldy   8,sp
    1f70:	e6 eb 00 16 	ldab  [22,y]
    1f74:	87          	clra  

0x00001f75 <LBE4>:
    1f75:	1b 8a       	leas  10,sp
    1f77:	3d          	rts   

0x00001f78 <_overflow__6SciBufi>:
    1f78:	1b 9c       	leas  -4,sp
    1f7a:	6c 82       	std   2,sp

0x00001f7c <LBB5>:
    1f7c:	b7 46       	tfr   d,y
    1f7e:	ee e8 12    	ldx   18,y
    1f81:	15 e3 00 0c 	jsr   [12,x]
    1f85:	ed 86       	ldy   6,sp
    1f87:	6d 80       	sty   0,sp
    1f89:	ec 82       	ldd   2,sp
    1f8b:	16 2f e1    	jsr   0x2fe1 <_sputc__9streambufi>

0x00001f8e <LBE5>:
    1f8e:	1b 84       	leas  4,sp
    1f90:	3d          	rts   

0x00001f91 <_sync__6SciBuf>:
    1f91:	1b 98       	leas  -8,sp
    1f93:	6c 86       	std   6,sp

0x00001f95 <LBB6>:
    1f95:	b7 46       	tfr   d,y
    1f97:	ed e8 1a    	ldy   26,y
    1f9a:	6d 84       	sty   4,sp

0x00001f9c <L159>:
    1f9c:	ed 84       	ldy   4,sp
    1f9e:	ee 86       	ldx   6,sp
    1fa0:	ad 08       	cpy   8,x
    1fa2:	24 0e       	bcc   0x1fb2 <L160>
    1fa4:	e6 70       	ldab  1,y+
    1fa6:	87          	clra  
    1fa7:	6d 84       	sty   4,sp
    1fa9:	6c 80       	std   0,sp
    1fab:	b7 54       	tfr   x,d
    1fad:	16 1f f3    	jsr   0x1ff3 <_send__6SciBufc>

0x00001fb0 <LBE8>:
    1fb0:	20 ea       	bra   0x1f9c <L159>

0x00001fb2 <L160>:
    1fb2:	ee 86       	ldx   6,sp
    1fb4:	ee e0 1a    	ldx   26,x
    1fb7:	6e 80       	stx   0,sp
    1fb9:	ed 86       	ldy   6,sp
    1fbb:	ed e8 1c    	ldy   28,y
    1fbe:	6d 82       	sty   2,sp
    1fc0:	ec 86       	ldd   6,sp
    1fc2:	16 2f a7    	jsr   0x2fa7 <_setp__9streambufPcT1>
    1fc5:	87 c7       	clrd  

0x00001fc7 <LBE6>:
    1fc7:	1b 88       	leas  8,sp
    1fc9:	3d          	rts   

0x00001fca <_poll__6SciBuf>:
    1fca:	b7 46       	tfr   d,y

0x00001fcc <LBB11>:
    1fcc:	ed e8 14    	ldy   20,y
    1fcf:	e6 44       	ldab  4,y
    1fd1:	87          	clra  
    1fd2:	c4 20       	andb  #0x20

0x00001fd4 <LBE11>:
    1fd4:	3d          	rts   

0x00001fd5 <_recv__6SciBuf>:
    1fd5:	1b 9e       	leas  -2,sp
    1fd7:	6c 80       	std   0,sp

0x00001fd9 <L166>:
    1fd9:	ec 80       	ldd   0,sp
    1fdb:	16 1f ca    	jsr   0x1fca <_poll__6SciBuf>
    1fde:	8c 00 00    	tstd  
    1fe1:	26 05       	bne   0x1fe8 <L167>
    1fe3:	16 29 86    	jsr   0x2986 <_yield__4Task>
    1fe6:	20 f1       	bra   0x1fd9 <L166>

0x00001fe8 <L167>:
    1fe8:	ed 80       	ldy   0,sp
    1fea:	ee e8 14    	ldx   20,y
    1fed:	e6 07       	ldab  7,x
    1fef:	87          	clra  

0x00001ff0 <LBE12>:
    1ff0:	1b 82       	leas  2,sp
    1ff2:	3d          	rts   

0x00001ff3 <_send__6SciBufc>:
    1ff3:	1b 9c       	leas  -4,sp
    1ff5:	6c 82       	std   2,sp
    1ff7:	e6 87       	ldab  7,sp
    1ff9:	6b 81       	stab  1,sp

0x00001ffb <LBB13>:
    1ffb:	ed 82       	ldy   2,sp
    1ffd:	ee e8 14    	ldx   20,y
    2000:	e6 04       	ldab  4,x
    2002:	6b 80       	stab  0,sp
    2004:	2d 0c       	blt   0x2012 <L171>

0x00002006 <L172>:
    2006:	16 29 86    	jsr   0x2986 <_yield__4Task>
    2009:	ed 82       	ldy   2,sp
    200b:	ee e8 14    	ldx   20,y
    200e:	e6 04       	ldab  4,x
    2010:	2c f4       	bge   0x2006 <L172>

0x00002012 <L171>:
    2012:	ed 82       	ldy   2,sp
    2014:	ee e8 14    	ldx   20,y
    2017:	e6 81       	ldab  1,sp
    2019:	6b 07       	stab  7,x

0x0000201b <LBE13>:
    201b:	1b 84       	leas  4,sp
    201d:	3d          	rts   

0x0000201e <_crt1__Fv>:
    201e:	1b 96       	leas  -10,sp

0x00002020 <LBB2>:
    2020:	ce 49 a5    	ldx   #0x49a5 <.data>
    2023:	8e 49 a5    	cpx   #0x49a5 <.data>
    2026:	24 09       	bcc   0x2031 <L3>

0x00002028 <L5>:
    2028:	18 08 30 00 	movb  #0x0,1,x+
    202c:	8e 49 a5    	cpx   #0x49a5 <.data>
    202f:	25 f7       	bcs   0x2028 <L5>

0x00002031 <L3>:
    2031:	87 c7       	clrd  
    2033:	6c 88       	std   8,sp
    2035:	ce 49 8d    	ldx   #0x498d <_ctor_end>
    2038:	b7 c5       	xgdx  
    203a:	b3 3f 5a    	subd  0x3f5a <LC0>
    203d:	b7 c5       	xgdx  
    203f:	b7 54       	tfr   x,d
    2041:	47 56       	asrd  
    2043:	b7 45       	tfr   d,x
    2045:	ed 88       	ldy   8,sp
    2047:	34          	pshx  
    2048:	ad b1       	cpy   2,sp+
    204a:	2c 1a       	bge   0x2066 <L8>
    204c:	6e 86       	stx   6,sp
    204e:	cd 49 8b    	ldy   #0x498b <_ctor_beg>
    2051:	6d 80       	sty   0,sp

0x00002053 <L10>:
    2053:	ed 80       	ldy   0,sp
    2055:	ee 71       	ldx   2,y+
    2057:	6d 80       	sty   0,sp
    2059:	15 00       	jsr   0,x
    205b:	ec 88       	ldd   8,sp
    205d:	c3 00 01    	incd  
    2060:	6c 88       	std   8,sp
    2062:	ac 86       	cpd   6,sp
    2064:	2d ed       	blt   0x2053 <L10>

0x00002066 <L8>:
    2066:	10 ef       	cli   
    2068:	16 18 30    	jsr   0x1830 <_main>
    206b:	14 10       	sei   
    206d:	87 c7       	clrd  
    206f:	6c 88       	std   8,sp
    2071:	ce 49 8f    	ldx   #0x498f <_dtor_end>
    2074:	b7 c5       	xgdx  
    2076:	b3 3f 5c    	subd  0x3f5c <LC1>
    2079:	b7 c5       	xgdx  
    207b:	b7 54       	tfr   x,d
    207d:	47 56       	asrd  
    207f:	b7 45       	tfr   d,x
    2081:	ed 88       	ldy   8,sp
    2083:	34          	pshx  
    2084:	ad b1       	cpy   2,sp+
    2086:	2c 1a       	bge   0x20a2 <L17>
    2088:	6e 84       	stx   4,sp
    208a:	cd 49 8d    	ldy   #0x498d <_ctor_end>
    208d:	6d 82       	sty   2,sp

0x0000208f <L15>:
    208f:	ed 82       	ldy   2,sp
    2091:	ee 71       	ldx   2,y+
    2093:	6d 82       	sty   2,sp
    2095:	15 00       	jsr   0,x
    2097:	ec 88       	ldd   8,sp
    2099:	c3 00 01    	incd  
    209c:	6c 88       	std   8,sp
    209e:	ac 84       	cpd   4,sp
    20a0:	2d ed       	blt   0x208f <L15>

0x000020a2 <L17>:
    20a2:	20 fe       	bra   0x20a2 <L17>

0x000020a4 <LBE2>:
    20a4:	1b 8a       	leas  10,sp
    20a6:	3d          	rts   

0x000020a7 <_insert__16PriorityTaskListPQ28TaskList4Node>:
    20a7:	1b f1 ee    	leas  -18,sp
    20aa:	6c 8e       	std   14,sp

0x000020ac <LBB2>:
    20ac:	b7 21       	tfr   ccr,b
    20ae:	6c f0 10    	std   16,sp
    20b1:	14 10       	sei   

0x000020b3 <LBB5>:
    20b3:	ed f0 14    	ldy   20,sp
    20b6:	18 27 00 b2 	lbeq  0x216c <L30>

0x000020ba <LBB6>:
    20ba:	ed 42       	ldy   2,y
    20bc:	6d 8c       	sty   12,sp

0x000020be <LBB7>:
    20be:	ee f3 00 0e 	ldx   [14,sp]
    20c2:	18 27 00 99 	lbeq  0x215f <L31>

0x000020c6 <LBB8>:
    20c6:	6e 80       	stx   0,sp
    20c8:	20 06       	bra   0x20d0 <L60>

0x000020ca <L34>:
    20ca:	ed f3 00 00 	ldy   [0,sp]
    20ce:	6d 80       	sty   0,sp

0x000020d0 <L60>:
    20d0:	ec f3 00 00 	ldd   [0,sp]
    20d4:	26 f4       	bne   0x20ca <L34>
    20d6:	ed 80       	ldy   0,sp
    20d8:	ee 42       	ldx   2,y

0x000020da <LBB10>:
    20da:	c7          	clrb  
    20db:	6b 84       	stab  4,sp
    20dd:	ed 8c       	ldy   12,sp
    20df:	ed 44       	ldy   4,y
    20e1:	6d 8a       	sty   10,sp
    20e3:	ad 04       	cpy   4,x
    20e5:	23 04       	bls   0x20eb <L38>
    20e7:	c6 01       	ldab  #0x1
    20e9:	6b 84       	stab  4,sp

0x000020eb <L38>:
    20eb:	e7 84       	tst   4,sp
    20ed:	27 0a       	beq   0x20f9 <L37>
    20ef:	ed f0 14    	ldy   20,sp
    20f2:	6d f3 00 00 	sty   [0,sp]
    20f6:	06 21 66    	jmp   0x2166 <L61>

0x000020f9 <L37>:
    20f9:	ee f3 00 0e 	ldx   [14,sp]
    20fd:	ed 02       	ldy   2,x
    20ff:	6d 80       	sty   0,sp

0x00002101 <LBB13>:
    2101:	c7          	clrb  
    2102:	6b 84       	stab  4,sp
    2104:	ec 8a       	ldd   10,sp
    2106:	ac 44       	cpd   4,y
    2108:	23 04       	bls   0x210e <L43>
    210a:	c6 01       	ldab  #0x1
    210c:	6b 84       	stab  4,sp

0x0000210e <L43>:
    210e:	e7 84       	tst   4,sp
    2110:	26 0e       	bne   0x2120 <L42>
    2112:	6e f3 00 14 	stx   [20,sp]
    2116:	ed f0 14    	ldy   20,sp
    2119:	6d f3 00 0e 	sty   [14,sp]
    211d:	06 21 6c    	jmp   0x216c <L30>

0x00002120 <L42>:
    2120:	cc 00 01    	ldd   #0x1 <err_over>

0x00002123 <L62>:
    2123:	6c 86       	std   6,sp

0x00002125 <L47>:
    2125:	ed 00       	ldy   0,x
    2127:	6d 80       	sty   0,sp
    2129:	27 41       	beq   0x216c <L30>
    212b:	ec 86       	ldd   6,sp
    212d:	27 3d       	beq   0x216c <L30>
    212f:	6e 88       	stx   8,sp
    2131:	b7 65       	tfr   y,x
    2133:	ed 02       	ldy   2,x
    2135:	6d 80       	sty   0,sp

0x00002137 <LBB18>:
    2137:	c7          	clrb  
    2138:	6b 85       	stab  5,sp
    213a:	ed 8c       	ldy   12,sp
    213c:	ed 44       	ldy   4,y
    213e:	6d 82       	sty   2,sp
    2140:	b7 64       	tfr   y,d
    2142:	ed 80       	ldy   0,sp
    2144:	ac 44       	cpd   4,y
    2146:	23 04       	bls   0x214c <L52>
    2148:	c6 01       	ldab  #0x1
    214a:	6b 85       	stab  5,sp

0x0000214c <L52>:
    214c:	e7 85       	tst   5,sp
    214e:	26 d5       	bne   0x2125 <L47>
    2150:	6e f3 00 14 	stx   [20,sp]
    2154:	ed f0 14    	ldy   20,sp
    2157:	6d f3 00 08 	sty   [8,sp]
    215b:	87 c7       	clrd  

0x0000215d <LBE17>:
    215d:	20 c4       	bra   0x2123 <L62>

0x0000215f <L31>:
    215f:	ed f0 14    	ldy   20,sp
    2162:	6d f3 00 0e 	sty   [14,sp]

0x00002166 <L61>:
    2166:	87 c7       	clrd  
    2168:	6c f3 00 14 	std   [20,sp]

0x0000216c <L30>:
    216c:	ec f0 10    	ldd   16,sp
    216f:	b7 12       	tfr   b,ccr

0x00002171 <LBE2>:
    2171:	1b f0 12    	leas  18,sp
    2174:	3d          	rts   

0x00002175 <___16PriorityTaskListP4Task>:
    2175:	1b 9c       	leas  -4,sp
    2177:	6c 82       	std   2,sp
    2179:	18 02 86 80 	movw  6,sp,0,sp
    217d:	16 28 9f    	jsr   0x289f <___8TaskListP4Task>
    2180:	cc 3f 5e    	ldd   #0x3f5e <___vt_16PriorityTaskList>
    2183:	ed 82       	ldy   2,sp
    2185:	6c 42       	std   2,y

0x00002187 <LBB23>:
    2187:	b7 64       	tfr   y,d
    2189:	1b 84       	leas  4,sp
    218b:	3d          	rts   

0x0000218c <__$_16PriorityTaskList>:
    218c:	1b 9e       	leas  -2,sp
    218e:	18 02 84 80 	movw  4,sp,0,sp
    2192:	16 28 d0    	jsr   0x28d0 <__$_8TaskList>
    2195:	1b 82       	leas  2,sp
    2197:	3d          	rts   

0x00002198 <___3Spi>:
    2198:	1b 9e       	leas  -2,sp
    219a:	6c 80       	std   0,sp
    219c:	cc 3f 66    	ldd   #0x3f66 <___vt_3Spi>
    219f:	ed 80       	ldy   0,sp
    21a1:	6c 46       	std   6,y
    21a3:	b7 64       	tfr   y,d
    21a5:	16 21 e0    	jsr   0x21e0 <___5Mutex>

0x000021a8 <LBB2>:
    21a8:	ec 80       	ldd   0,sp
    21aa:	1b 82       	leas  2,sp
    21ac:	3d          	rts   

0x000021ad <__$_3Spi>:
    21ad:	1b 9c       	leas  -4,sp
    21af:	6c 82       	std   2,sp
    21b1:	cc 3f 66    	ldd   #0x3f66 <___vt_3Spi>
    21b4:	ed 82       	ldy   2,sp
    21b6:	6c 46       	std   6,y

0x000021b8 <LBB3>:
    21b8:	18 00 80 00 	movw  #0x2 <err_under>,0,sp
    21bc:	02 
    21bd:	b7 64       	tfr   y,d
    21bf:	16 28 d0    	jsr   0x28d0 <__$_8TaskList>

0x000021c2 <LBE4>:
    21c2:	ec 86       	ldd   6,sp
    21c4:	87          	clra  
    21c5:	c4 01       	andb  #0x1
    21c7:	b7 45       	tfr   d,x
    21c9:	8e 00 00    	tstx  
    21cc:	27 05       	beq   0x21d3 <L50>
    21ce:	ec 82       	ldd   2,sp
    21d0:	16 26 ce    	jsr   0x26ce <___builtin_delete>

0x000021d3 <L50>:
    21d3:	1b 84       	leas  4,sp
    21d5:	3d          	rts   

0x000021d6 <_close__3Spi>:
    21d6:	16 22 23    	jsr   0x2223 <_release__5Mutex>

0x000021d9 <LBE5>:
    21d9:	3d          	rts   

0x000021da <_open__3Spi>:
    21da:	16 21 fc    	jsr   0x21fc <_acquire__5Mutex>

0x000021dd <LBE6>:
    21dd:	3d          	rts   

0x000021de <_put__3SpiPvi>:
    21de:	3d          	rts   

0x000021df <_get__3SpiPvi>:
    21df:	3d          	rts   

0x000021e0 <___5Mutex>:
    21e0:	1b 9c       	leas  -4,sp
    21e2:	6c 82       	std   2,sp
    21e4:	18 00 80 00 	movw  #0x0 <*ABS*>,0,sp
    21e8:	00 
    21e9:	16 28 9f    	jsr   0x289f <___8TaskListP4Task>
    21ec:	cc 3f 70    	ldd   #0x3f70 <___vt_5Mutex>
    21ef:	ed 82       	ldy   2,sp
    21f1:	6c 42       	std   2,y
    21f3:	87 c7       	clrd  
    21f5:	6c 44       	std   4,y

0x000021f7 <LBB2>:
    21f7:	b7 64       	tfr   y,d
    21f9:	1b 84       	leas  4,sp
    21fb:	3d          	rts   

0x000021fc <_acquire__5Mutex>:
    21fc:	1b 9c       	leas  -4,sp
    21fe:	6c 80       	std   0,sp

0x00002200 <LBB3>:
    2200:	b7 21       	tfr   ccr,b
    2202:	6c 82       	std   2,sp
    2204:	14 10       	sei   

0x00002206 <LBE4>:
    2206:	20 05       	bra   0x220d <L37>

0x00002208 <L30>:
    2208:	ec 80       	ldd   0,sp
    220a:	16 29 13    	jsr   0x2913 <_block__8TaskList>

0x0000220d <L37>:
    220d:	ed 80       	ldy   0,sp
    220f:	ec 44       	ldd   4,y
    2211:	26 f5       	bne   0x2208 <L30>
    2213:	ec 80       	ldd   0,sp
    2215:	16 29 6e    	jsr   0x296e <_getCurrent__8TaskList>
    2218:	ed 80       	ldy   0,sp
    221a:	6c 44       	std   4,y

0x0000221c <LBB6>:
    221c:	ec 82       	ldd   2,sp
    221e:	b7 12       	tfr   b,ccr

0x00002220 <LBE3>:
    2220:	1b 84       	leas  4,sp
    2222:	3d          	rts   

0x00002223 <_release__5Mutex>:
    2223:	1b 9e       	leas  -2,sp
    2225:	b7 46       	tfr   d,y

0x00002227 <LBB10>:
    2227:	b7 21       	tfr   ccr,b
    2229:	6c 80       	std   0,sp
    222b:	14 10       	sei   

0x0000222d <LBE10>:
    222d:	18 00 44 00 	movw  #0x0 <*ABS*>,4,y
    2231:	00 
    2232:	b7 64       	tfr   y,d
    2234:	16 29 40    	jsr   0x2940 <_unblock__8TaskList>

0x00002237 <LBB11>:
    2237:	ec 80       	ldd   0,sp
    2239:	b7 12       	tfr   b,ccr

0x0000223b <LBE11>:
    223b:	1b 82       	leas  2,sp
    223d:	3d          	rts   

0x0000223e <Lscope2>:
    223e:	1b 9e       	leas  -2,sp
    2240:	18 02 84 80 	movw  4,sp,0,sp
    2244:	16 28 d0    	jsr   0x28d0 <__$_8TaskList>
    2247:	1b 82       	leas  2,sp
    2249:	3d          	rts   

0x0000224a <___3CmdPCc>:
    224a:	b7 46       	tfr   d,y
    224c:	18 00 42 3f 	movw  #0x3f94 <___vt_3Cmd>,2,y
    2250:	94 
    2251:	18 02 82 40 	movw  2,sp,0,y

0x00002255 <LBB2>:
    2255:	3d          	rts   

0x00002256 <_parse__3CmdR7istreamR7ostream>:
    2256:	87 c7       	clrd  

0x00002258 <LBE3>:
    2258:	3d          	rts   

0x00002259 <_match__3CmdR7istream>:
    2259:	1b f1 dd    	leas  -35,sp
    225c:	6c 89       	std   9,sp

0x0000225e <LBB4>:
    225e:	c7          	clrb  
    225f:	6b 88       	stab  8,sp
    2261:	19 8b       	leay  11,sp
    2263:	6d 86       	sty   6,sp
    2265:	18 00 80 00 	movw  #0x14 <dc4>,0,sp
    2269:	14 
    226a:	b7 64       	tfr   y,d
    226c:	16 31 2f    	jsr   0x312f <_setw__Fi>

0x0000226f <LBB5>:
    226f:	ee f3 00 25 	ldx   [37,sp]
    2273:	ed 86       	ldy   6,sp
    2275:	ed 42       	ldy   2,y
    2277:	6d 80       	sty   0,sp
    2279:	b7 54       	tfr   x,d
    227b:	ed 86       	ldy   6,sp
    227d:	15 eb 00 00 	jsr   [0,y]

0x00002281 <LBE5>:
    2281:	19 8f       	leay  15,sp
    2283:	6d 84       	sty   4,sp
    2285:	6d 80       	sty   0,sp
    2287:	ec f0 25    	ldd   37,sp
    228a:	16 31 3b    	jsr   0x313b <___rs__7istreamPc>
    228d:	b7 45       	tfr   d,x
    228f:	cd 00 00    	clry  
    2292:	6d 82       	sty   2,sp
    2294:	8e 00 00    	tstx  
    2297:	27 04       	beq   0x229d <L175>
    2299:	ed 00       	ldy   0,x
    229b:	6d 82       	sty   2,sp

0x0000229d <L175>:
    229d:	ed 82       	ldy   2,sp
    229f:	ec 44       	ldd   4,y
    22a1:	87          	clra  
    22a2:	c4 06       	andb  #0x6

0x000022a4 <LBE10>:
    22a4:	ce 00 00    	clrx  
    22a7:	8c 00 00    	tstd  
    22aa:	26 02       	bne   0x22ae <L179>
    22ac:	b7 65       	tfr   y,x

0x000022ae <L179>:
    22ae:	8e 00 00    	tstx  
    22b1:	27 16       	beq   0x22c9 <L173>
    22b3:	ec f3 00 09 	ldd   [9,sp]
    22b7:	6c 80       	std   0,sp
    22b9:	ec 84       	ldd   4,sp
    22bb:	16 31 ef    	jsr   0x31ef <_strcmp__FPCcT0>
    22be:	b7 45       	tfr   d,x
    22c0:	8e 00 00    	tstx  
    22c3:	26 04       	bne   0x22c9 <L173>
    22c5:	c6 01       	ldab  #0x1
    22c7:	6b 88       	stab  8,sp

0x000022c9 <L173>:
    22c9:	e6 88       	ldab  8,sp

0x000022cb <LBE4>:
    22cb:	1b f0 23    	leas  35,sp
    22ce:	3d          	rts   

0x000022cf <___7CmdProcP9streambufPCc>:
    22cf:	b7 46       	tfr   d,y
    22d1:	18 02 82 40 	movw  2,sp,0,y
    22d5:	18 02 84 42 	movw  4,sp,2,y

0x000022d9 <LBB11>:
    22d9:	3d          	rts   

0x000022da <_present__7CmdProcPP3Cmd>:
    22da:	1b f1 44    	leas  -188,sp
    22dd:	6c f0 1a    	std   26,sp

0x000022e0 <LBB12>:
    22e0:	19 f0 96    	leay  150,sp
    22e3:	6d f0 18    	sty   24,sp

0x000022e6 <L186>:
    22e6:	18 00 80 00 	movw  #0x1 <err_over>,0,sp
    22ea:	01 
    22eb:	ec f3 00 1a 	ldd   [26,sp]
    22ef:	6c 82       	std   2,sp
    22f1:	b7 74       	tfr   sp,d
    22f3:	c3 00 a8    	addd  #0xa8 <_rsvdA4+0x4>
    22f6:	16 2a fc    	jsr   0x2afc <___7istreamiP9streambuf>
    22f9:	18 00 80 00 	movw  #0x1 <err_over>,0,sp
    22fd:	01 
    22fe:	ed f3 00 1a 	ldy   [26,sp]
    2302:	6d 82       	sty   2,sp
    2304:	ec f0 18    	ldd   24,sp
    2307:	16 2a d3    	jsr   0x2ad3 <___7ostreamiP9streambuf>

0x0000230a <LBB14>:
    230a:	ec f0 18    	ldd   24,sp
    230d:	16 2b 49    	jsr   0x2b49 <_endl__FR7ostream>
    2310:	b7 45       	tfr   d,x

0x00002312 <LBE14>:
    2312:	ed f0 1a    	ldy   26,sp
    2315:	ed 42       	ldy   2,y
    2317:	6d 80       	sty   0,sp
    2319:	16 2b 25    	jsr   0x2b25 <___ls__7ostreamPCc>
    231c:	b7 45       	tfr   d,x

0x0000231e <LBB16>:
    231e:	16 2c d6    	jsr   0x2cd6 <_flush__FR7ostream>

0x00002321 <LBE16>:
    2321:	19 f0 46    	leay  70,sp
    2324:	6d f0 16    	sty   22,sp
    2327:	19 f0 95    	leay  149,sp
    232a:	6d f0 14    	sty   20,sp
    232d:	87 c7       	clrd  
    232f:	6c f0 12    	std   18,sp

0x00002332 <L191>:
    2332:	ed f0 12    	ldy   18,sp
    2335:	18 26 00 83 	lbne  0x23bc <L192>
    2339:	b7 74       	tfr   sp,d
    233b:	c3 00 a8    	addd  #0xa8 <_rsvdA4+0x4>
    233e:	16 32 14    	jsr   0x3214 <_get__7istream>
    2341:	6c f0 10    	std   16,sp

0x00002344 <LBB19>:
    2344:	8c 00 0a    	cpd   #0xa <lf>
    2347:	27 11       	beq   0x235a <L196>
    2349:	2e 07       	bgt   0x2352 <L203>
    234b:	8c 00 08    	cpd   #0x8 <bs>
    234e:	27 11       	beq   0x2361 <L197>
    2350:	20 33       	bra   0x2385 <L200>

0x00002352 <L203>:
    2352:	ec f0 10    	ldd   16,sp
    2355:	8c 00 0d    	cpd   #0xd <cr>
    2358:	26 2b       	bne   0x2385 <L200>

0x0000235a <L196>:
    235a:	c7          	clrb  
    235b:	6b f3 00 16 	stab  [22,sp]

0x0000235f <LBB21>:
    235f:	20 5b       	bra   0x23bc <L192>

0x00002361 <L197>:
    2361:	1a f0 46    	leax  70,sp
    2364:	ed f0 16    	ldy   22,sp
    2367:	34          	pshx  
    2368:	ad b1       	cpy   2,sp+
    236a:	23 c6       	bls   0x2332 <L191>

0x0000236c <LBB23>:
    236c:	18 00 80 3f 	movw  #0x3f78 <LC0>,0,sp
    2370:	78 
    2371:	b7 74       	tfr   sp,d
    2373:	c3 00 96    	addd  #0x96 <_tc3>
    2376:	16 2b 25    	jsr   0x2b25 <___ls__7ostreamPCc>

0x00002379 <LBB24>:
    2379:	16 2c d6    	jsr   0x2cd6 <_flush__FR7ostream>

0x0000237c <LBE24>:
    237c:	ed f0 16    	ldy   22,sp
    237f:	03          	dey   
    2380:	6d f0 16    	sty   22,sp

0x00002383 <LBB26>:
    2383:	20 ad       	bra   0x2332 <L191>

0x00002385 <L200>:
    2385:	ec f0 10    	ldd   16,sp
    2388:	16 32 66    	jsr   0x3266 <_isprint__Fi>
    238b:	8c 00 00    	tstd  
    238e:	27 a2       	beq   0x2332 <L191>
    2390:	ed f0 16    	ldy   22,sp
    2393:	ad f0 14    	cpy   20,sp
    2396:	18 24 ff 98 	lbcc  0x2332 <L191>
    239a:	e6 f0 11    	ldab  17,sp
    239d:	87          	clra  
    239e:	b7 45       	tfr   d,x
    23a0:	6e 80       	stx   0,sp
    23a2:	ec f0 18    	ldd   24,sp
    23a5:	16 32 77    	jsr   0x3277 <_put__7ostreamc>
    23a8:	ec f0 18    	ldd   24,sp
    23ab:	16 32 c6    	jsr   0x32c6 <_flush__7ostream>
    23ae:	ed f0 16    	ldy   22,sp
    23b1:	e6 f0 11    	ldab  17,sp
    23b4:	6b 70       	stab  1,y+
    23b6:	6d f0 16    	sty   22,sp

0x000023b9 <LBB27>:
    23b9:	06 23 32    	jmp   0x2332 <L191>

0x000023bc <L192>:
    23bc:	e7 f0 46    	tst   70,sp
    23bf:	18 27 00 92 	lbeq  0x2455 <L204>

0x000023c3 <LBB29>:
    23c3:	cc 3f 7c    	ldd   #0x3f7c <LC1>
    23c6:	6c 8e       	std   14,sp

0x000023c8 <LBB30>:
    23c8:	ed f0 be    	ldy   190,sp
    23cb:	6d 8c       	sty   12,sp
    23cd:	19 f0 1c    	leay  28,sp
    23d0:	6d 8a       	sty   10,sp

0x000023d2 <L205>:
    23d2:	ec f3 00 0c 	ldd   [12,sp]
    23d6:	18 27 00 5a 	lbeq  0x2434 <L206>
    23da:	18 00 80 00 	movw  #0x1 <err_over>,0,sp
    23de:	01 
    23df:	1a f0 46    	leax  70,sp
    23e2:	6e 82       	stx   2,sp
    23e4:	ec 8a       	ldd   10,sp
    23e6:	16 32 fe    	jsr   0x32fe <___10istrstreamiPc>

0x000023e9 <LBB32>:
    23e9:	ec f3 00 0c 	ldd   [12,sp]
    23ed:	19 f0 32    	leay  50,sp
    23f0:	6d 88       	sty   8,sp
    23f2:	6d 80       	sty   0,sp
    23f4:	16 22 59    	jsr   0x2259 <_match__3CmdR7istream>
    23f7:	d7          	tstb  
    23f8:	26 12       	bne   0x240c <L209>

0x000023fa <LBB33>:
    23fa:	18 00 80 00 	movw  #0x2 <err_under>,0,sp
    23fe:	02 
    23ff:	ec 8a       	ldd   10,sp
    2401:	16 33 54    	jsr   0x3354 <__$_10istrstream>
    2404:	ed 8c       	ldy   12,sp
    2406:	19 42       	leay  2,y
    2408:	6d 8c       	sty   12,sp
    240a:	20 c6       	bra   0x23d2 <L205>

0x0000240c <L209>:
    240c:	ed f3 00 0c 	ldy   [12,sp]
    2410:	6d 84       	sty   4,sp
    2412:	ee 42       	ldx   2,y
    2414:	19 f0 1c    	leay  28,sp
    2417:	6d 86       	sty   6,sp
    2419:	ed 88       	ldy   8,sp
    241b:	6d 80       	sty   0,sp
    241d:	ec f0 18    	ldd   24,sp
    2420:	6c 82       	std   2,sp
    2422:	ec 84       	ldd   4,sp
    2424:	15 e3 00 04 	jsr   [4,x]
    2428:	6c 8e       	std   14,sp
    242a:	18 00 80 00 	movw  #0x2 <err_under>,0,sp
    242e:	02 
    242f:	ec 86       	ldd   6,sp
    2431:	16 33 54    	jsr   0x3354 <__$_10istrstream>

0x00002434 <L206>:
    2434:	ed 8e       	ldy   14,sp
    2436:	27 1d       	beq   0x2455 <L204>

0x00002438 <LBB36>:
    2438:	b7 74       	tfr   sp,d
    243a:	c3 00 96    	addd  #0x96 <_tc3>
    243d:	16 2b 49    	jsr   0x2b49 <_endl__FR7ostream>
    2440:	b7 45       	tfr   d,x

0x00002442 <LBE37>:
    2442:	18 00 80 3f 	movw  #0x3f8c <LC2>,0,sp
    2446:	8c 
    2447:	16 2b 25    	jsr   0x2b25 <___ls__7ostreamPCc>
    244a:	b7 45       	tfr   d,x
    244c:	ec 8e       	ldd   14,sp
    244e:	6c 80       	std   0,sp
    2450:	b7 54       	tfr   x,d
    2452:	16 2b 25    	jsr   0x2b25 <___ls__7ostreamPCc>

0x00002455 <L204>:
    2455:	18 00 80 00 	movw  #0x2 <err_under>,0,sp
    2459:	02 
    245a:	b7 74       	tfr   sp,d
    245c:	c3 00 96    	addd  #0x96 <_tc3>
    245f:	16 33 a8    	jsr   0x33a8 <__$_7ostream>
    2462:	18 00 80 00 	movw  #0x2 <err_under>,0,sp
    2466:	02 
    2467:	b7 74       	tfr   sp,d
    2469:	c3 00 a8    	addd  #0xa8 <_rsvdA4+0x4>
    246c:	16 33 e6    	jsr   0x33e6 <__$_7istream>

0x0000246f <LBE13>:
    246f:	06 22 e6    	jmp   0x22e6 <L186>

0x00002472 <LBE12>:
    2472:	1b f0 bc    	leas  188,sp
    2475:	3d          	rts   

0x00002476 <_main__7Ltc1404>:
    2476:	1b 90       	leas  -16,sp
    2478:	6c 88       	std   8,sp

0x0000247a <LBB2>:
    247a:	19 8c       	leay  12,sp
    247c:	6d 86       	sty   6,sp

0x0000247e <L144>:
    247e:	f6 00 fe    	ldab  0xfe <_portdlc>
    2481:	c8 40       	eorb  #0x40
    2483:	7b 00 fe    	stab  0xfe <_portdlc>

0x00002486 <Ltext1>:
    2486:	ed 88       	ldy   8,sp
    2488:	ec 48       	ldd   8,y

0x0000248a <LBB4>:
    248a:	6c f3 00 06 	std   [6,sp]

0x0000248e <LBB6>:
    248e:	16 21 fc    	jsr   0x21fc <_acquire__5Mutex>

0x00002491 <LBB10>:
    2491:	b7 21       	tfr   ccr,b
    2493:	6c 8e       	std   14,sp
    2495:	14 10       	sei   

0x00002497 <LBE10>:
    2497:	f6 00 d6    	ldab  0xd6 <_ports>
    249a:	ca c0       	orab  #0xc0
    249c:	7b 00 d6    	stab  0xd6 <_ports>

0x0000249f <LBB12>:
    249f:	ec 8e       	ldd   14,sp
    24a1:	b7 12       	tfr   b,ccr

0x000024a3 <LBB14>:
    24a3:	b7 74       	tfr   sp,d
    24a5:	c3 00 0a    	addd  #0xa <lf>

0x000024a8 <LBB16>:
    24a8:	ee f3 00 06 	ldx   [6,sp]
    24ac:	ed 06       	ldy   6,x
    24ae:	6c 80       	std   0,sp
    24b0:	18 00 82 00 	movw  #0x10 <dle>,2,sp
    24b4:	10 
    24b5:	b7 54       	tfr   x,d
    24b7:	15 eb 00 06 	jsr   [6,y]

0x000024bb <LBB18>:
    24bb:	b7 21       	tfr   ccr,b
    24bd:	6c 8e       	std   14,sp
    24bf:	14 10       	sei   

0x000024c1 <LBE20>:
    24c1:	f6 00 d6    	ldab  0xd6 <_ports>
    24c4:	c4 3f       	andb  #0x3f
    24c6:	7b 00 d6    	stab  0xd6 <_ports>

0x000024c9 <LBB22>:
    24c9:	ec 8e       	ldd   14,sp
    24cb:	b7 12       	tfr   b,ccr

0x000024cd <LBB24>:
    24cd:	ec f3 00 06 	ldd   [6,sp]

0x000024d1 <LBB26>:
    24d1:	16 22 23    	jsr   0x2223 <_release__5Mutex>

0x000024d4 <LBE18>:
    24d4:	ed 88       	ldy   8,sp
    24d6:	ec 4a       	ldd   10,y
    24d8:	16 26 2a    	jsr   0x262a <_delay__9TimerTaski>
    24db:	16 29 86    	jsr   0x2986 <_yield__4Task>

0x000024de <LBE3>:
    24de:	06 24 7e    	jmp   0x247e <L144>

0x000024e1 <LBE2>:
    24e1:	1b f0 10    	leas  16,sp
    24e4:	3d          	rts   

0x000024e5 <__$_7Ltc1404>:
    24e5:	1b 9c       	leas  -4,sp
    24e7:	b7 45       	tfr   d,x
    24e9:	ed 86       	ldy   6,sp
    24eb:	18 00 06 3f 	movw  #0x3f9a <___vt_7Ltc1404>,6,x
    24ef:	9a 

0x000024f0 <LBB28>:
    24f0:	b7 21       	tfr   ccr,b
    24f2:	6c 82       	std   2,sp
    24f4:	14 10       	sei   

0x000024f6 <LBE29>:
    24f6:	f6 00 d7    	ldab  0xd7 <_ddrs>
    24f9:	c4 3f       	andb  #0x3f
    24fb:	7b 00 d7    	stab  0xd7 <_ddrs>

0x000024fe <LBB31>:
    24fe:	ec 82       	ldd   2,sp
    2500:	b7 12       	tfr   b,ccr

0x00002502 <LBE28>:
    2502:	6d 80       	sty   0,sp
    2504:	b7 54       	tfr   x,d
    2506:	16 2a 1b    	jsr   0x2a1b <__$_4Task>
    2509:	1b 84       	leas  4,sp
    250b:	3d          	rts   

0x0000250c <___7Ltc1404UiUiR3Spii>:
    250c:	1b 97       	leas  -9,sp
    250e:	6c 85       	std   5,sp
    2510:	18 02 8b 80 	movw  11,sp,0,sp
    2514:	18 02 8d 82 	movw  13,sp,2,sp
    2518:	16 29 bd    	jsr   0x29bd <___4TaskUiUi>
    251b:	cc 3f 9a    	ldd   #0x3f9a <___vt_7Ltc1404>
    251e:	ed 85       	ldy   5,sp
    2520:	6c 46       	std   6,y
    2522:	ec 8f       	ldd   15,sp
    2524:	6c 48       	std   8,y
    2526:	ec f0 11    	ldd   17,sp
    2529:	6c 4a       	std   10,y

0x0000252b <LBB33>:
    252b:	b7 21       	tfr   ccr,b
    252d:	6c 87       	std   7,sp
    252f:	14 10       	sei   

0x00002531 <LBE34>:
    2531:	f6 00 d7    	ldab  0xd7 <_ddrs>
    2534:	ca c0       	orab  #0xc0
    2536:	7b 00 d7    	stab  0xd7 <_ddrs>
    2539:	f6 00 ff    	ldab  0xff <_ddrdlc>
    253c:	ca 40       	orab  #0x40
    253e:	7b 00 ff    	stab  0xff <_ddrdlc>
    2541:	f6 00 fe    	ldab  0xfe <_portdlc>
    2544:	c4 bf       	andb  #0xbf
    2546:	7b 00 fe    	stab  0xfe <_portdlc>
    2549:	b7 64       	tfr   y,d
    254b:	16 2a 43    	jsr   0x2a43 <_fork__4Task>

0x0000254e <LBB36>:
    254e:	ec 87       	ldd   7,sp
    2550:	b7 12       	tfr   b,ccr

0x00002552 <LBE33>:
    2552:	ec 85       	ldd   5,sp
    2554:	1b 89       	leas  9,sp
    2556:	3d          	rts   

0x00002557 <_malloc__FUi>:
    2557:	fe 49 91    	ldx   0x4991 <_freePtr>
    255a:	19 e6       	leay  d,x
    255c:	7d 49 91    	sty   0x4991 <_freePtr>
    255f:	8d 7c 00    	cpy   #0x7c00 <_heap_top>
    2562:	25 04       	bcs   0x2568 <L2>
    2564:	87 c7       	clrd  
    2566:	20 02       	bra   0x256a <L5>

0x00002568 <L2>:
    2568:	b7 54       	tfr   x,d

0x0000256a <L5>:
    256a:	3d          	rts   

0x0000256b <_free__FPv>:
    256b:	3d          	rts   

0x0000256c <_EnterSafeMode__Fv>:
    256c:	3d          	rts   

0x0000256d <_SetErrorFlag__Fv>:
    256d:	3d          	rts   

0x0000256e <___9TimerTaskUiUiR5Ictlrii>:
    256e:	1b 97       	leas  -9,sp
    2570:	6c 87       	std   7,sp
    2572:	18 02 8b 80 	movw  11,sp,0,sp
    2576:	18 02 8d 82 	movw  13,sp,2,sp
    257a:	16 29 bd    	jsr   0x29bd <___4TaskUiUi>
    257d:	ed 87       	ldy   7,sp
    257f:	1a 48       	leax  8,y
    2581:	ec 8f       	ldd   15,sp
    2583:	6c 80       	std   0,sp
    2585:	ed f0 11    	ldy   17,sp
    2588:	6d 82       	sty   2,sp
    258a:	b7 54       	tfr   x,d
    258c:	16 10 00    	jsr   0x1000 <___3IsrR5IctlrUi>
    258f:	cc 3f a2    	ldd   #0x3fa2 <___vt_9TimerTask$3Isr>
    2592:	ed 87       	ldy   7,sp
    2594:	6c 4c       	std   12,y
    2596:	cc 3f aa    	ldd   #0x3faa <___vt_9TimerTask>
    2599:	6c 46       	std   6,y
    259b:	19 4e       	leay  14,y
    259d:	6d 85       	sty   5,sp

0x0000259f <LBB2>:
    259f:	18 00 80 00 	movw  #0x0 <*ABS*>,0,sp
    25a3:	00 
    25a4:	b7 64       	tfr   y,d
    25a6:	16 28 9f    	jsr   0x289f <___8TaskListP4Task>
    25a9:	cc 3f c2    	ldd   #0x3fc2 <___vt_13DeltaTaskList>
    25ac:	ed 85       	ldy   5,sp
    25ae:	6c 42       	std   2,y

0x000025b0 <LBE2>:
    25b0:	ed 87       	ldy   7,sp
    25b2:	1a e8 14    	leax  20,y
    25b5:	18 00 80 00 	movw  #0x0 <*ABS*>,0,sp
    25b9:	00 
    25ba:	b7 54       	tfr   x,d
    25bc:	16 28 9f    	jsr   0x289f <___8TaskListP4Task>
    25bf:	ec f0 13    	ldd   19,sp
    25c2:	ed 87       	ldy   7,sp
    25c4:	6c e8 18    	std   24,y

0x000025c7 <LBB3>:
    25c7:	7d 49 93    	sty   0x4993 <__9TimerTask$theTimerTask>
    25ca:	f6 00 ff    	ldab  0xff <_ddrdlc>
    25cd:	ca 02       	orab  #0x2
    25cf:	7b 00 ff    	stab  0xff <_ddrdlc>
    25d2:	f6 00 fe    	ldab  0xfe <_portdlc>
    25d5:	c4 fd       	andb  #0xfd
    25d7:	7b 00 fe    	stab  0xfe <_portdlc>

0x000025da <LBE3>:
    25da:	b7 64       	tfr   y,d
    25dc:	1b 89       	leas  9,sp
    25de:	3d          	rts   

0x000025df <__$_9TimerTask>:
    25df:	1b 9c       	leas  -4,sp
    25e1:	6c 82       	std   2,sp
    25e3:	cc 3f a2    	ldd   #0x3fa2 <___vt_9TimerTask$3Isr>
    25e6:	ed 82       	ldy   2,sp
    25e8:	6c 4c       	std   12,y
    25ea:	cc 3f aa    	ldd   #0x3faa <___vt_9TimerTask>
    25ed:	6c 46       	std   6,y

0x000025ef <LBB4>:
    25ef:	18 03 00 00 	movw  #0x0 <*ABS*>,0x4993 <__9TimerTask$theTimerTask>
    25f3:	49 93 

0x000025f5 <LBE4>:
    25f5:	1a e8 14    	leax  20,y
    25f8:	18 00 80 00 	movw  #0x2 <err_under>,0,sp
    25fc:	02 
    25fd:	b7 54       	tfr   x,d
    25ff:	16 28 d0    	jsr   0x28d0 <__$_8TaskList>
    2602:	ed 82       	ldy   2,sp
    2604:	1a 4e       	leax  14,y

0x00002606 <LBB5>:
    2606:	18 00 80 00 	movw  #0x2 <err_under>,0,sp
    260a:	02 
    260b:	b7 54       	tfr   x,d
    260d:	16 28 d0    	jsr   0x28d0 <__$_8TaskList>

0x00002610 <LBE5>:
    2610:	ed 82       	ldy   2,sp
    2612:	1a 48       	leax  8,y
    2614:	18 00 80 00 	movw  #0x0 <*ABS*>,0,sp
    2618:	00 
    2619:	b7 54       	tfr   x,d
    261b:	16 10 27    	jsr   0x1027 <__$_3Isr>
    261e:	ec 86       	ldd   6,sp
    2620:	6c 80       	std   0,sp
    2622:	ec 82       	ldd   2,sp
    2624:	16 2a 1b    	jsr   0x2a1b <__$_4Task>
    2627:	1b 84       	leas  4,sp
    2629:	3d          	rts   

0x0000262a <_delay__9TimerTaski>:
    262a:	1b 9e       	leas  -2,sp
    262c:	b7 46       	tfr   d,y

0x0000262e <LBB6>:
    262e:	fc 49 93    	ldd   0x4993 <__9TimerTask$theTimerTask>
    2631:	27 08       	beq   0x263b <L34>
    2633:	c3 00 0e    	addd  #0xe <so>
    2636:	6d 80       	sty   0,sp
    2638:	16 27 60    	jsr   0x2760 <_block__13DeltaTaskListi>

0x0000263b <L34>:
    263b:	1b 82       	leas  2,sp
    263d:	3d          	rts   

0x0000263e <_main__9TimerTask>:
    263e:	1b 99       	leas  -7,sp
    2640:	6c 85       	std   5,sp

0x00002642 <LBB7>:
    2642:	b7 46       	tfr   d,y
    2644:	19 4e       	leay  14,y
    2646:	6d 81       	sty   1,sp

0x00002648 <L36>:
    2648:	ec 85       	ldd   5,sp
    264a:	c3 00 14    	addd  #0x14 <dc4>
    264d:	16 29 13    	jsr   0x2913 <_block__8TaskList>
    2650:	f6 00 fe    	ldab  0xfe <_portdlc>
    2653:	c8 02       	eorb  #0x2
    2655:	7b 00 fe    	stab  0xfe <_portdlc>

0x00002658 <LBB9>:
    2658:	87 c7       	clrd  
    265a:	6c 83       	std   3,sp
    265c:	ed 85       	ldy   5,sp
    265e:	ac e8 18    	cpd   24,y
    2661:	2c e5       	bge   0x2648 <L36>

0x00002663 <L42>:
    2663:	ec 85       	ldd   5,sp
    2665:	c3 00 0e    	addd  #0xe <so>
    2668:	16 28 5c    	jsr   0x285c <_decrement__13DeltaTaskList>

0x0000266b <L43>:
    266b:	ec 81       	ldd   1,sp
    266d:	16 28 6a    	jsr   0x286a <_zero__13DeltaTaskList>
    2670:	d7          	tstb  
    2671:	27 07       	beq   0x267a <L41>
    2673:	ec 81       	ldd   1,sp
    2675:	16 29 40    	jsr   0x2940 <_unblock__8TaskList>
    2678:	20 f1       	bra   0x266b <L43>

0x0000267a <L41>:
    267a:	ec 83       	ldd   3,sp
    267c:	c3 00 01    	incd  
    267f:	6c 83       	std   3,sp
    2681:	ed 85       	ldy   5,sp
    2683:	ac e8 18    	cpd   24,y
    2686:	2d db       	blt   0x2663 <L42>

0x00002688 <LBE8>:
    2688:	20 be       	bra   0x2648 <L36>

0x0000268a <LBE7>:
    268a:	1b 87       	leas  7,sp
    268c:	3d          	rts   

0x0000268d <_handler__9TimerTask>:
    268d:	c3 00 14    	addd  #0x14 <dc4>
    2690:	16 29 40    	jsr   0x2940 <_unblock__8TaskList>

0x00002693 <LBE10>:
    2693:	3d          	rts   

0x00002694 <Lscope4>:
    2694:	c3 ff f8    	addd  #0xfff8 <.stab+0x7c4>
    2697:	06 25 df    	jmp   0x25df <__$_9TimerTask>

0x0000269a <___thunk_8_handler__9TimerTask>:
    269a:	c3 ff f8    	addd  #0xfff8 <.stab+0x7c4>
    269d:	06 26 8d    	jmp   0x268d <_handler__9TimerTask>

0x000026a0 <___builtin_new>:
    26a0:	1b 9e       	leas  -2,sp

0x000026a2 <LBB2>:
    26a2:	16 25 57    	jsr   0x2557 <_malloc__FUi>
    26a5:	6c 80       	std   0,sp
    26a7:	26 09       	bne   0x26b2 <L2>
    26a9:	16 25 6c    	jsr   0x256c <_EnterSafeMode__Fv>
    26ac:	16 25 6d    	jsr   0x256d <_SetErrorFlag__Fv>
    26af:	16 28 8e    	jsr   0x288e <_Restart__Fv>

0x000026b2 <L2>:
    26b2:	ec 80       	ldd   0,sp

0x000026b4 <LBE2>:
    26b4:	1b 82       	leas  2,sp
    26b6:	3d          	rts   

0x000026b7 <___builtin_vec_new>:
    26b7:	1b 9e       	leas  -2,sp

0x000026b9 <LBB3>:
    26b9:	16 25 57    	jsr   0x2557 <_malloc__FUi>
    26bc:	6c 80       	std   0,sp
    26be:	26 09       	bne   0x26c9 <L4>
    26c0:	16 25 6c    	jsr   0x256c <_EnterSafeMode__Fv>
    26c3:	16 25 6d    	jsr   0x256d <_SetErrorFlag__Fv>
    26c6:	16 28 8e    	jsr   0x288e <_Restart__Fv>

0x000026c9 <L4>:
    26c9:	ec 80       	ldd   0,sp

0x000026cb <LBE3>:
    26cb:	1b 82       	leas  2,sp
    26cd:	3d          	rts   

0x000026ce <___builtin_delete>:
    26ce:	16 25 6b    	jsr   0x256b <_free__FPv>

0x000026d1 <LBE4>:
    26d1:	3d          	rts   

0x000026d2 <___builtin_vec_delete>:
    26d2:	16 25 6b    	jsr   0x256b <_free__FPv>

0x000026d5 <LBE5>:
    26d5:	3d          	rts   

0x000026d6 <___13HC12TimerTaskUiUiR5Ictlr>:
    26d6:	1b 93       	leas  -13,sp
    26d8:	6c 8b       	std   11,sp
    26da:	ec 8f       	ldd   15,sp
    26dc:	6c 80       	std   0,sp
    26de:	ed f0 11    	ldy   17,sp
    26e1:	6d 82       	sty   2,sp
    26e3:	ec f0 13    	ldd   19,sp
    26e6:	6c 84       	std   4,sp
    26e8:	18 00 86 00 	movw  #0xf <si>,6,sp
    26ec:	0f 
    26ed:	18 00 88 00 	movw  #0x1 <err_over>,8,sp
    26f1:	01 
    26f2:	ec 8b       	ldd   11,sp
    26f4:	16 25 6e    	jsr   0x256e <___9TimerTaskUiUiR5Ictlrii>
    26f7:	cc 3f b2    	ldd   #0x3fb2 <___vt_13HC12TimerTask$3Isr>
    26fa:	ed 8b       	ldy   11,sp
    26fc:	6c 4c       	std   12,y
    26fe:	cc 3f ba    	ldd   #0x3fba <___vt_13HC12TimerTask>
    2701:	6c 46       	std   6,y

0x00002703 <LBB2>:
    2703:	18 0b 81 00 	movb  #0x81,0x14 <dc4>
    2707:	14 
    2708:	b7 64       	tfr   y,d
    270a:	16 2a 43    	jsr   0x2a43 <_fork__4Task>
    270d:	f6 00 ff    	ldab  0xff <_ddrdlc>
    2710:	ca 01       	orab  #0x1
    2712:	7b 00 ff    	stab  0xff <_ddrdlc>
    2715:	f6 00 fe    	ldab  0xfe <_portdlc>
    2718:	c4 fe       	andb  #0xfe
    271a:	7b 00 fe    	stab  0xfe <_portdlc>

0x0000271d <LBE2>:
    271d:	ec 8b       	ldd   11,sp
    271f:	1b 8d       	leas  13,sp
    2721:	3d          	rts   

0x00002722 <__$_13HC12TimerTask>:
    2722:	1b 9e       	leas  -2,sp
    2724:	b7 46       	tfr   d,y
    2726:	18 00 4c 3f 	movw  #0x3fb2 <___vt_13HC12TimerTask$3Isr>,12,y
    272a:	b2 
    272b:	18 00 46 3f 	movw  #0x3fba <___vt_13HC12TimerTask>,6,y
    272f:	ba 

0x00002730 <LBB3>:
    2730:	18 0b 7f 00 	movb  #0x7f,0x14 <dc4>
    2734:	14 

0x00002735 <LBE3>:
    2735:	18 02 84 80 	movw  4,sp,0,sp
    2739:	16 25 df    	jsr   0x25df <__$_9TimerTask>
    273c:	1b 82       	leas  2,sp
    273e:	3d          	rts   

0x0000273f <_handler__13HC12TimerTask>:
    273f:	b7 46       	tfr   d,y

0x00002741 <LBB4>:
    2741:	18 0b 80 00 	movb  #0x80,0x15 <nak>
    2745:	15 
    2746:	f6 00 fe    	ldab  0xfe <_portdlc>
    2749:	c8 01       	eorb  #0x1
    274b:	7b 00 fe    	stab  0xfe <_portdlc>
    274e:	b7 64       	tfr   y,d
    2750:	16 26 8d    	jsr   0x268d <_handler__9TimerTask>

0x00002753 <LBE4>:
    2753:	3d          	rts   

0x00002754 <Lscope2>:
    2754:	c3 ff f8    	addd  #0xfff8 <.stab+0x7c4>
    2757:	06 27 22    	jmp   0x2722 <__$_13HC12TimerTask>

0x0000275a <___thunk_8_handler__13HC12TimerTask>:
    275a:	c3 ff f8    	addd  #0xfff8 <.stab+0x7c4>
    275d:	06 27 3f    	jmp   0x273f <_handler__13HC12TimerTask>

0x00002760 <_block__13DeltaTaskListi>:
    2760:	1b 9e       	leas  -2,sp
    2762:	b7 45       	tfr   d,x
    2764:	ed 84       	ldy   4,sp

0x00002766 <LBB2>:
    2766:	b7 21       	tfr   ccr,b
    2768:	6c 80       	std   0,sp
    276a:	14 10       	sei   

0x0000276c <LBE3>:
    276c:	6d 04       	sty   4,x
    276e:	b7 54       	tfr   x,d
    2770:	16 29 13    	jsr   0x2913 <_block__8TaskList>

0x00002773 <LBB5>:
    2773:	ec 80       	ldd   0,sp
    2775:	b7 12       	tfr   b,ccr

0x00002777 <LBE2>:
    2777:	1b 82       	leas  2,sp
    2779:	3d          	rts   

0x0000277a <_insert__13DeltaTaskListPQ28TaskList4Node>:
    277a:	1b 90       	leas  -16,sp
    277c:	6c 8c       	std   12,sp

0x0000277e <LBB7>:
    277e:	b7 21       	tfr   ccr,b
    2780:	6c 8e       	std   14,sp
    2782:	14 10       	sei   

0x00002784 <LBB10>:
    2784:	ed f0 12    	ldy   18,sp
    2787:	18 27 00 c9 	lbeq  0x2854 <L33>

0x0000278b <LBB11>:
    278b:	ed 8c       	ldy   12,sp
    278d:	ec 44       	ldd   4,y
    278f:	ed f0 12    	ldy   18,sp
    2792:	6c 44       	std   4,y

0x00002794 <LBB12>:
    2794:	ed f3 00 0c 	ldy   [12,sp]
    2798:	6d 80       	sty   0,sp
    279a:	18 27 00 a9 	lbeq  0x2847 <L34>

0x0000279e <LBB13>:
    279e:	ec 44       	ldd   4,y
    27a0:	20 0a       	bra   0x27ac <L54>

0x000027a2 <L37>:
    27a2:	ed f3 00 00 	ldy   [0,sp]
    27a6:	6d 80       	sty   0,sp
    27a8:	ec 8a       	ldd   10,sp
    27aa:	e3 44       	addd  4,y

0x000027ac <L54>:
    27ac:	6c 8a       	std   10,sp
    27ae:	ee f3 00 00 	ldx   [0,sp]
    27b2:	26 ee       	bne   0x27a2 <L37>

0x000027b4 <LBB14>:
    27b4:	ed f0 12    	ldy   18,sp
    27b7:	ee 44       	ldx   4,y
    27b9:	ae 8a       	cpx   10,sp
    27bb:	2d 0f       	blt   0x27cc <L39>
    27bd:	b7 c5       	xgdx  
    27bf:	a3 8a       	subd  10,sp
    27c1:	b7 c5       	xgdx  
    27c3:	6e 44       	stx   4,y
    27c5:	6d f3 00 00 	sty   [0,sp]
    27c9:	06 28 4e    	jmp   0x284e <L55>

0x000027cc <L39>:
    27cc:	ed f3 00 0c 	ldy   [12,sp]
    27d0:	6d 88       	sty   8,sp

0x000027d2 <LBB16>:
    27d2:	ec 44       	ldd   4,y
    27d4:	6c 80       	std   0,sp
    27d6:	ae 80       	cpx   0,sp
    27d8:	2c 13       	bge   0x27ed <L41>
    27da:	34          	pshx  
    27db:	a3 b1       	subd  2,sp+
    27dd:	6c 44       	std   4,y
    27df:	6d f3 00 12 	sty   [18,sp]
    27e3:	ed f0 12    	ldy   18,sp
    27e6:	6d f3 00 0c 	sty   [12,sp]
    27ea:	06 28 54    	jmp   0x2854 <L33>

0x000027ed <L41>:
    27ed:	ec 80       	ldd   0,sp
    27ef:	6c 86       	std   6,sp
    27f1:	cd 00 01    	ldy   #0x1 <err_over>
    27f4:	6d 84       	sty   4,sp

0x000027f6 <L56>:
    27f6:	ee f3 00 08 	ldx   [8,sp]
    27fa:	18 27 00 56 	lbeq  0x2854 <L33>
    27fe:	ec 84       	ldd   4,sp
    2800:	18 27 00 50 	lbeq  0x2854 <L33>
    2804:	ee f3 00 08 	ldx   [8,sp]
    2808:	ec 86       	ldd   6,sp
    280a:	e3 04       	addd  4,x
    280c:	6c 80       	std   0,sp
    280e:	ed f0 12    	ldy   18,sp
    2811:	ed 44       	ldy   4,y
    2813:	6d 82       	sty   2,sp
    2815:	ad 86       	cpy   6,sp
    2817:	2d 21       	blt   0x283a <L47>
    2819:	ad 80       	cpy   0,sp
    281b:	2e 1d       	bgt   0x283a <L47>
    281d:	b7 64       	tfr   y,d
    281f:	a3 86       	subd  6,sp
    2821:	6c 80       	std   0,sp
    2823:	ed f0 12    	ldy   18,sp
    2826:	6c 44       	std   4,y
    2828:	ec 04       	ldd   4,x
    282a:	a3 80       	subd  0,sp
    282c:	6c 04       	std   4,x
    282e:	6e f3 00 12 	stx   [18,sp]
    2832:	6d f3 00 08 	sty   [8,sp]
    2836:	87 c7       	clrd  
    2838:	6c 84       	std   4,sp

0x0000283a <L47>:
    283a:	6e 88       	stx   8,sp
    283c:	ec 86       	ldd   6,sp
    283e:	b7 56       	tfr   x,y
    2840:	e3 44       	addd  4,y
    2842:	6c 86       	std   6,sp
    2844:	06 27 f6    	jmp   0x27f6 <L56>

0x00002847 <L34>:
    2847:	ed f0 12    	ldy   18,sp
    284a:	6d f3 00 0c 	sty   [12,sp]

0x0000284e <L55>:
    284e:	87 c7       	clrd  
    2850:	6c f3 00 12 	std   [18,sp]

0x00002854 <L33>:
    2854:	ec 8e       	ldd   14,sp
    2856:	b7 12       	tfr   b,ccr

0x00002858 <LBE18>:
    2858:	1b f0 10    	leas  16,sp
    285b:	3d          	rts   

0x0000285c <_decrement__13DeltaTaskList>:
    285c:	b7 46       	tfr   d,y

0x0000285e <LBB20>:
    285e:	ed 40       	ldy   0,y
    2860:	27 07       	beq   0x2869 <L58>
    2862:	ec 44       	ldd   4,y
    2864:	c3 ff ff    	addd  #0xffff <.stab+0x7cb>
    2867:	6c 44       	std   4,y

0x00002869 <L58>:
    2869:	3d          	rts   

0x0000286a <_zero__13DeltaTaskList>:
    286a:	1b 9f       	des   
    286c:	b7 46       	tfr   d,y

0x0000286e <LBB21>:
    286e:	c7          	clrb  
    286f:	6b 80       	stab  0,sp
    2871:	ed 40       	ldy   0,y
    2873:	27 08       	beq   0x287d <L60>
    2875:	ec 44       	ldd   4,y
    2877:	2e 04       	bgt   0x287d <L60>
    2879:	c6 01       	ldab  #0x1
    287b:	6b 80       	stab  0,sp

0x0000287d <L60>:
    287d:	e6 80       	ldab  0,sp

0x0000287f <LBE21>:
    287f:	1b 81       	ins   
    2881:	3d          	rts   

0x00002882 <__$_13DeltaTaskList>:
    2882:	1b 9e       	leas  -2,sp
    2884:	18 02 84 80 	movw  4,sp,0,sp
    2888:	16 28 d0    	jsr   0x28d0 <__$_8TaskList>
    288b:	1b 82       	leas  2,sp
    288d:	3d          	rts   

0x0000288e <_Restart__Fv>:
    288e:	06 2a c1    	jmp   0x2ac1 <_start>

0x00002891 <LBE2>:
    2891:	3d          	rts   

0x00002892 <_dispatch__4TaskP4Task>:
    2892:	b7 45       	tfr   d,x

0x00002894 <LBB2>:
    2894:	fd 49 9d    	ldy   0x499d <__4Task$current>
    2897:	6f 42       	sts   2,y
    2899:	7e 49 9d    	stx   0x499d <__4Task$current>
    289c:	ef 02       	lds   2,x

0x0000289e <LBE2>:
    289e:	3d          	rts   

0x0000289f <___8TaskListP4Task>:
    289f:	1b 9e       	leas  -2,sp
    28a1:	6c 80       	std   0,sp
    28a3:	cc 3f ca    	ldd   #0x3fca <___vt_8TaskList>
    28a6:	ed 80       	ldy   0,sp
    28a8:	6c 42       	std   2,y
    28aa:	ed 84       	ldy   4,sp
    28ac:	27 17       	beq   0x28c5 <L29>
    28ae:	cc 00 06    	ldd   #0x6 <aa_siz>
    28b1:	16 26 a0    	jsr   0x26a0 <___builtin_new>
    28b4:	b7 45       	tfr   d,x

0x000028b6 <LBB3>:
    28b6:	18 00 00 00 	movw  #0x0 <*ABS*>,0,x
    28ba:	00 
    28bb:	ec 84       	ldd   4,sp
    28bd:	6c 02       	std   2,x

0x000028bf <LBB4>:
    28bf:	6e f3 00 00 	stx   [0,sp]
    28c3:	20 06       	bra   0x28cb <L33>

0x000028c5 <L29>:
    28c5:	87 c7       	clrd  
    28c7:	6c f3 00 00 	std   [0,sp]

0x000028cb <L33>:
    28cb:	ec 80       	ldd   0,sp
    28cd:	1b 82       	leas  2,sp
    28cf:	3d          	rts   

0x000028d0 <__$_8TaskList>:
    28d0:	b7 46       	tfr   d,y
    28d2:	ec 82       	ldd   2,sp
    28d4:	18 00 42 3f 	movw  #0x3fca <___vt_8TaskList>,2,y
    28d8:	ca 

0x000028d9 <LBB6>:
    28d9:	87          	clra  
    28da:	c4 01       	andb  #0x1
    28dc:	8c 00 00    	tstd  
    28df:	27 05       	beq   0x28e6 <L37>
    28e1:	b7 64       	tfr   y,d
    28e3:	16 26 ce    	jsr   0x26ce <___builtin_delete>

0x000028e6 <L37>:
    28e6:	3d          	rts   

0x000028e7 <_insert__8TaskListPQ28TaskList4Node>:
    28e7:	b7 46       	tfr   d,y
    28e9:	ee 82       	ldx   2,sp

0x000028eb <LBB7>:
    28eb:	27 15       	beq   0x2902 <L39>

0x000028ed <LBB9>:
    28ed:	ec 40       	ldd   0,y
    28ef:	27 0a       	beq   0x28fb <L43>
    28f1:	b7 46       	tfr   d,y
    28f3:	20 02       	bra   0x28f7 <L47>

0x000028f5 <L44>:
    28f5:	ed 40       	ldy   0,y

0x000028f7 <L47>:
    28f7:	ec 40       	ldd   0,y
    28f9:	26 fa       	bne   0x28f5 <L44>

0x000028fb <L43>:
    28fb:	6e 40       	stx   0,y
    28fd:	18 00 00 00 	movw  #0x0 <*ABS*>,0,x
    2901:	00 

0x00002902 <L39>:
    2902:	3d          	rts   

0x00002903 <_remove__8TaskList>:
    2903:	b7 45       	tfr   d,x

0x00002905 <LBB10>:
    2905:	ed 00       	ldy   0,x
    2907:	18 02 40 00 	movw  0,y,0,x
    290b:	18 00 40 00 	movw  #0x0 <*ABS*>,0,y
    290f:	00 
    2910:	b7 64       	tfr   y,d

0x00002912 <LBE10>:
    2912:	3d          	rts   

0x00002913 <_block__8TaskList>:
    2913:	1b 9a       	leas  -6,sp
    2915:	6c 82       	std   2,sp

0x00002917 <LBB11>:
    2917:	b7 21       	tfr   ccr,b
    2919:	6c 84       	std   4,sp
    291b:	14 10       	sei   

0x0000291d <LBE12>:
    291d:	fc 49 a3    	ldd   0x49a3 <_readyList>
    2920:	16 29 03    	jsr   0x2903 <_remove__8TaskList>
    2923:	ed 82       	ldy   2,sp
    2925:	ee 42       	ldx   2,y
    2927:	6c 80       	std   0,sp
    2929:	b7 64       	tfr   y,d
    292b:	15 e3 00 06 	jsr   [6,x]
    292f:	fe 49 a3    	ldx   0x49a3 <_readyList>
    2932:	ee 00       	ldx   0,x
    2934:	ec 02       	ldd   2,x
    2936:	16 28 92    	jsr   0x2892 <_dispatch__4TaskP4Task>

0x00002939 <LBB14>:
    2939:	ec 84       	ldd   4,sp
    293b:	b7 12       	tfr   b,ccr

0x0000293d <LBE11>:
    293d:	1b 86       	leas  6,sp
    293f:	3d          	rts   

0x00002940 <_unblock__8TaskList>:
    2940:	1b 9c       	leas  -4,sp
    2942:	b7 46       	tfr   d,y

0x00002944 <LBB16>:
    2944:	b7 21       	tfr   ccr,b
    2946:	6c 82       	std   2,sp
    2948:	14 10       	sei   

0x0000294a <LBE17>:
    294a:	b7 64       	tfr   y,d
    294c:	16 29 03    	jsr   0x2903 <_remove__8TaskList>
    294f:	fd 49 a3    	ldy   0x49a3 <_readyList>
    2952:	ed 42       	ldy   2,y
    2954:	6c 80       	std   0,sp
    2956:	fc 49 a3    	ldd   0x49a3 <_readyList>
    2959:	15 eb 00 06 	jsr   [6,y]
    295d:	fd 49 a3    	ldy   0x49a3 <_readyList>
    2960:	ed 40       	ldy   0,y
    2962:	ec 42       	ldd   2,y
    2964:	16 28 92    	jsr   0x2892 <_dispatch__4TaskP4Task>

0x00002967 <LBB19>:
    2967:	ec 82       	ldd   2,sp
    2969:	b7 12       	tfr   b,ccr

0x0000296b <LBE16>:
    296b:	1b 84       	leas  4,sp
    296d:	3d          	rts   

0x0000296e <_getCurrent__8TaskList>:
    296e:	1b 9e       	leas  -2,sp

0x00002970 <LBB21>:
    2970:	b7 21       	tfr   ccr,b
    2972:	6c 80       	std   0,sp
    2974:	14 10       	sei   

0x00002976 <LBE22>:
    2976:	fd 49 a3    	ldy   0x49a3 <_readyList>
    2979:	ed 40       	ldy   0,y
    297b:	ed 42       	ldy   2,y

0x0000297d <LBB24>:
    297d:	ec 80       	ldd   0,sp
    297f:	b7 12       	tfr   b,ccr

0x00002981 <LBE24>:
    2981:	b7 64       	tfr   y,d

0x00002983 <LBE21>:
    2983:	1b 82       	leas  2,sp
    2985:	3d          	rts   

0x00002986 <_yield__4Task>:
    2986:	fc 49 a3    	ldd   0x49a3 <_readyList>
    2989:	16 29 13    	jsr   0x2913 <_block__8TaskList>

0x0000298c <LBE27>:
    298c:	3d          	rts   

0x0000298d <_main__4Task>:
    298d:	3d          	rts   

0x0000298e <_start__4Task>:
    298e:	1b 96       	leas  -10,sp

0x00002990 <LBB29>:
    2990:	10 ef       	cli   
    2992:	fe 49 9d    	ldx   0x499d <__4Task$current>
    2995:	ed 06       	ldy   6,x
    2997:	b7 54       	tfr   x,d
    2999:	15 eb 00 06 	jsr   [6,y]
    299d:	19 86       	leay  6,sp
    299f:	6d 84       	sty   4,sp
    29a1:	18 00 80 00 	movw  #0x0 <*ABS*>,0,sp
    29a5:	00 
    29a6:	b7 64       	tfr   y,d
    29a8:	16 28 9f    	jsr   0x289f <___8TaskListP4Task>
    29ab:	ec 84       	ldd   4,sp
    29ad:	16 29 13    	jsr   0x2913 <_block__8TaskList>
    29b0:	18 00 80 00 	movw  #0x2 <err_under>,0,sp
    29b4:	02 
    29b5:	ec 84       	ldd   4,sp
    29b7:	16 28 d0    	jsr   0x28d0 <__$_8TaskList>

0x000029ba <LBE29>:
    29ba:	1b 8a       	leas  10,sp
    29bc:	3d          	rts   

0x000029bd <___4TaskUiUi>:
    29bd:	1b 9c       	leas  -4,sp
    29bf:	6c 82       	std   2,sp
    29c1:	cc 3f d2    	ldd   #0x3fd2 <___vt_4Task>
    29c4:	ed 82       	ldy   2,sp
    29c6:	6c 46       	std   6,y
    29c8:	ec 86       	ldd   6,sp
    29ca:	c4 fe       	andb  #0xfe
    29cc:	6c 80       	std   0,sp
    29ce:	16 26 b7    	jsr   0x26b7 <___builtin_vec_new>
    29d1:	b7 45       	tfr   d,x
    29d3:	6e f3 00 02 	stx   [2,sp]
    29d7:	ec 80       	ldd   0,sp
    29d9:	1a e6       	leax  d,x
    29db:	ed 82       	ldy   2,sp
    29dd:	6e 42       	stx   2,y
    29df:	ec 88       	ldd   8,sp
    29e1:	6c 44       	std   4,y

0x000029e3 <LBB30>:
    29e3:	ed 86       	ldy   6,sp
    29e5:	27 2f       	beq   0x2a16 <L75>
    29e7:	ed 82       	ldy   2,sp
    29e9:	ec 42       	ldd   2,y
    29eb:	b7 46       	tfr   d,y
    29ed:	1a 5e       	leax  -2,y
    29ef:	ed 82       	ldy   2,sp
    29f1:	6e 42       	stx   2,y
    29f3:	18 00 00 00 	movw  #0x0 <*ABS*>,0,x
    29f7:	00 
    29f8:	ec 42       	ldd   2,y
    29fa:	b7 46       	tfr   d,y
    29fc:	1a 5e       	leax  -2,y
    29fe:	ed 82       	ldy   2,sp
    2a00:	6e 42       	stx   2,y
    2a02:	18 00 00 00 	movw  #0x0 <*ABS*>,0,x
    2a06:	00 
    2a07:	ec 42       	ldd   2,y
    2a09:	b7 46       	tfr   d,y
    2a0b:	1a 5e       	leax  -2,y
    2a0d:	ed 82       	ldy   2,sp
    2a0f:	6e 42       	stx   2,y
    2a11:	18 00 00 29 	movw  #0x298e <_start__4Task>,0,x
    2a15:	8e 

0x00002a16 <L75>:
    2a16:	ec 82       	ldd   2,sp
    2a18:	1b 84       	leas  4,sp
    2a1a:	3d          	rts   

0x00002a1b <__$_4Task>:
    2a1b:	1b 9e       	leas  -2,sp
    2a1d:	6c 80       	std   0,sp
    2a1f:	cc 3f d2    	ldd   #0x3fd2 <___vt_4Task>
    2a22:	ed 80       	ldy   0,sp
    2a24:	6c 46       	std   6,y

0x00002a26 <LBB31>:
    2a26:	ee f3 00 00 	ldx   [0,sp]
    2a2a:	b7 54       	tfr   x,d
    2a2c:	16 26 ce    	jsr   0x26ce <___builtin_delete>

0x00002a2f <LBE31>:
    2a2f:	ec 84       	ldd   4,sp
    2a31:	87          	clra  
    2a32:	c4 01       	andb  #0x1
    2a34:	b7 45       	tfr   d,x
    2a36:	8e 00 00    	tstx  
    2a39:	27 05       	beq   0x2a40 <L79>
    2a3b:	ec 80       	ldd   0,sp
    2a3d:	16 26 ce    	jsr   0x26ce <___builtin_delete>

0x00002a40 <L79>:
    2a40:	1b 82       	leas  2,sp
    2a42:	3d          	rts   

0x00002a43 <_fork__4Task>:
    2a43:	1b 98       	leas  -8,sp

0x00002a45 <LBB32>:
    2a45:	19 84       	leay  4,sp
    2a47:	6d 82       	sty   2,sp
    2a49:	6c 80       	std   0,sp
    2a4b:	b7 64       	tfr   y,d
    2a4d:	16 28 9f    	jsr   0x289f <___8TaskListP4Task>
    2a50:	ec 82       	ldd   2,sp
    2a52:	16 29 40    	jsr   0x2940 <_unblock__8TaskList>
    2a55:	18 00 80 00 	movw  #0x2 <err_under>,0,sp
    2a59:	02 
    2a5a:	ec 82       	ldd   2,sp
    2a5c:	16 28 d0    	jsr   0x28d0 <__$_8TaskList>

0x00002a5f <LBE32>:
    2a5f:	1b 88       	leas  8,sp
    2a61:	3d          	rts   

0x00002a62 <__GLOBAL_$D$initialTask>:
    2a62:	1b 9e       	leas  -2,sp

0x00002a64 <LBB33>:
    2a64:	18 00 80 00 	movw  #0x2 <err_under>,0,sp
    2a68:	02 
    2a69:	cc 49 9f    	ldd   #0x499f <__readyList>
    2a6c:	16 28 d0    	jsr   0x28d0 <__$_8TaskList>

0x00002a6f <LBE34>:
    2a6f:	18 00 80 00 	movw  #0x2 <err_under>,0,sp
    2a73:	02 
    2a74:	cc 49 95    	ldd   #0x4995 <_initialTask>
    2a77:	16 2a 1b    	jsr   0x2a1b <__$_4Task>

0x00002a7a <LBE33>:
    2a7a:	1b 82       	leas  2,sp
    2a7c:	3d          	rts   

0x00002a7d <__GLOBAL_$I$initialTask>:
    2a7d:	1b 9c       	leas  -4,sp

0x00002a7f <LBB35>:
    2a7f:	18 00 80 00 	movw  #0x0 <*ABS*>,0,sp
    2a83:	00 
    2a84:	18 00 82 00 	movw  #0x6 <aa_siz>,2,sp
    2a88:	06 
    2a89:	cc 49 95    	ldd   #0x4995 <_initialTask>
    2a8c:	16 29 bd    	jsr   0x29bd <___4TaskUiUi>

0x00002a8f <LBB36>:
    2a8f:	18 00 80 49 	movw  #0x4995 <_initialTask>,0,sp
    2a93:	95 
    2a94:	cc 49 9f    	ldd   #0x499f <__readyList>
    2a97:	16 28 9f    	jsr   0x289f <___8TaskListP4Task>
    2a9a:	18 03 3f 5e 	movw  #0x3f5e <___vt_16PriorityTaskList>,0x49a1 <__readyList+0x2>
    2a9e:	49 a1 

0x00002aa0 <LBB37>:
    2aa0:	18 03 49 9f 	movw  #0x499f <__readyList>,0x49a3 <_readyList>
    2aa4:	49 a3 

0x00002aa6 <LBE35>:
    2aa6:	1b 84       	leas  4,sp
    2aa8:	3d          	rts   

0x00002aa9 <_lowerPriorityThan__C4TaskPC4Task>:
    2aa9:	1b 9f       	des   
    2aab:	b7 45       	tfr   d,x
    2aad:	ed 83       	ldy   3,sp

0x00002aaf <LBB38>:
    2aaf:	c7          	clrb  
    2ab0:	6b 80       	stab  0,sp
    2ab2:	ee 04       	ldx   4,x
    2ab4:	ae 44       	cpx   4,y
    2ab6:	23 04       	bls   0x2abc <L2>
    2ab8:	c6 01       	ldab  #0x1
    2aba:	6b 80       	stab  0,sp

0x00002abc <L2>:
    2abc:	e6 80       	ldab  0,sp

0x00002abe <LBE38>:
    2abe:	1b 81       	ins   
    2ac0:	3d          	rts   

0x00002ac1 <_start>:
    2ac1:	cf 80 00    	lds   #0x8000 <_stack_top>
    2ac4:	18 00 ae 00 	movw  #0x0 <*ABS*>,2,-sp
    2ac8:	00 
    2ac9:	18 00 ae 00 	movw  #0x0 <*ABS*>,2,-sp
    2acd:	00 
    2ace:	b7 75       	tsx   
    2ad0:	06 20 1e    	jmp   0x201e <_crt1__Fv>

0x00002ad3 <___7ostreamiP9streambuf>:
    2ad3:	1b 9c       	leas  -4,sp
    2ad5:	6c 82       	std   2,sp
    2ad7:	ec 86       	ldd   6,sp
    2ad9:	ee 88       	ldx   8,sp
    2adb:	8c 00 00    	tstd  
    2ade:	27 0e       	beq   0x2aee <L136>
    2ae0:	ec 82       	ldd   2,sp
    2ae2:	c3 00 02    	addd  #0x2 <err_under>
    2ae5:	6c f3 00 02 	std   [2,sp]
    2ae9:	6e 80       	stx   0,sp
    2aeb:	16 34 21    	jsr   0x3421 <___3iosP9streambuf>

0x00002aee <L136>:
    2aee:	ed f3 00 02 	ldy   [2,sp]
    2af2:	18 00 4e 40 	movw  #0x40ac <___vt_7ostream$3ios>,14,y
    2af6:	ac 

0x00002af7 <LBB2>:
    2af7:	ec 82       	ldd   2,sp
    2af9:	1b 84       	leas  4,sp
    2afb:	3d          	rts   

0x00002afc <___7istreamiP9streambuf>:
    2afc:	1b 9c       	leas  -4,sp
    2afe:	6c 82       	std   2,sp
    2b00:	ec 86       	ldd   6,sp
    2b02:	ee 88       	ldx   8,sp
    2b04:	8c 00 00    	tstd  
    2b07:	27 0e       	beq   0x2b17 <L136>
    2b09:	ec 82       	ldd   2,sp
    2b0b:	c3 00 04    	addd  #0x4 <eot>
    2b0e:	6c f3 00 02 	std   [2,sp]
    2b12:	6e 80       	stx   0,sp
    2b14:	16 34 21    	jsr   0x3421 <___3iosP9streambuf>

0x00002b17 <L136>:
    2b17:	ed f3 00 02 	ldy   [2,sp]
    2b1b:	18 00 4e 40 	movw  #0x40b2 <___vt_7istream$3ios>,14,y
    2b1f:	b2 

0x00002b20 <LBB2>:
    2b20:	ec 82       	ldd   2,sp
    2b22:	1b 84       	leas  4,sp
    2b24:	3d          	rts   

0x00002b25 <___ls__7ostreamPCc>:
    2b25:	1b 9a       	leas  -6,sp
    2b27:	6c 84       	std   4,sp

0x00002b29 <LBB2>:
    2b29:	16 34 3f    	jsr   0x343f <_opfx__7ostream>
    2b2c:	8c 00 00    	tstd  
    2b2f:	27 13       	beq   0x2b44 <L136>
    2b31:	ed 88       	ldy   8,sp
    2b33:	6d 80       	sty   0,sp
    2b35:	18 00 82 00 	movw  #0x0 <*ABS*>,2,sp
    2b39:	00 
    2b3a:	ec 84       	ldd   4,sp
    2b3c:	16 34 94    	jsr   0x3494 <_puts__7ostreamPCcT1>
    2b3f:	ec 84       	ldd   4,sp
    2b41:	16 36 87    	jsr   0x3687 <_osfx__7ostream>

0x00002b44 <L136>:
    2b44:	ec 84       	ldd   4,sp

0x00002b46 <LBE2>:
    2b46:	1b 86       	leas  6,sp
    2b48:	3d          	rts   

0x00002b49 <_endl__FR7ostream>:
    2b49:	1b 9c       	leas  -4,sp
    2b4b:	6c 82       	std   2,sp

0x00002b4d <LBB2>:
    2b4d:	18 00 80 00 	movw  #0xa <lf>,0,sp
    2b51:	0a 
    2b52:	16 32 77    	jsr   0x3277 <_put__7ostreamc>
    2b55:	ec 82       	ldd   2,sp
    2b57:	16 32 c6    	jsr   0x32c6 <_flush__7ostream>
    2b5a:	ec 82       	ldd   2,sp

0x00002b5c <LBE2>:
    2b5c:	1b 84       	leas  4,sp
    2b5e:	3d          	rts   

0x00002b5f <___ls__7ostreamf>:
    2b5f:	1b f1 86    	leas  -122,sp
    2b62:	6c f0 2a    	std   42,sp
    2b65:	ec f0 7c    	ldd   124,sp
    2b68:	6c f0 26    	std   38,sp
    2b6b:	ed f0 7e    	ldy   126,sp
    2b6e:	6d f0 28    	sty   40,sp

0x00002b71 <LBB2>:
    2b71:	ec f0 2a    	ldd   42,sp
    2b74:	16 34 3f    	jsr   0x343f <_opfx__7ostream>
    2b77:	b7 45       	tfr   d,x
    2b79:	8e 00 00    	tstx  
    2b7c:	18 27 01 4f 	lbeq  0x2ccf <L136>

0x00002b80 <LBB4>:
    2b80:	19 f0 2c    	leay  44,sp
    2b83:	6d f0 24    	sty   36,sp
    2b86:	ce 00 00    	clrx  
    2b89:	ed f0 2a    	ldy   42,sp
    2b8c:	27 04       	beq   0x2b92 <L138>
    2b8e:	ee f3 00 2a 	ldx   [42,sp]

0x00002b92 <L138>:
    2b92:	ec 0a       	ldd   10,x
    2b94:	6c f0 22    	std   34,sp

0x00002b97 <LBE5>:
    2b97:	2c 05       	bge   0x2b9e <L140>
    2b99:	87 c7       	clrd  
    2b9b:	6c f0 22    	std   34,sp

0x00002b9e <L140>:
    2b9e:	ed f0 22    	ldy   34,sp
    2ba1:	8d 00 27    	cpy   #0x27 <_rsvd26+0x1>
    2ba4:	2f 06       	ble   0x2bac <L141>
    2ba6:	cc 00 27    	ldd   #0x27 <_rsvd26+0x1>
    2ba9:	6c f0 22    	std   34,sp

0x00002bac <L141>:
    2bac:	ce 00 00    	clrx  
    2baf:	ed f0 22    	ldy   34,sp
    2bb2:	26 1b       	bne   0x2bcf <L143>
    2bb4:	b7 56       	tfr   x,y
    2bb6:	6d 84       	sty   4,sp
    2bb8:	ed f0 2a    	ldy   42,sp
    2bbb:	27 06       	beq   0x2bc3 <L145>
    2bbd:	ed f3 00 2a 	ldy   [42,sp]
    2bc1:	6d 84       	sty   4,sp

0x00002bc3 <L145>:
    2bc3:	ed 84       	ldy   4,sp
    2bc5:	ec 46       	ldd   6,y

0x00002bc7 <LBE7>:
    2bc7:	84 01       	anda  #0x1
    2bc9:	c7          	clrb  
    2bca:	8c 00 00    	tstd  
    2bcd:	27 03       	beq   0x2bd2 <L142>

0x00002bcf <L143>:
    2bcf:	ce 00 01    	ldx   #0x1 <err_over>

0x00002bd2 <L142>:
    2bd2:	cd 00 00    	clry  
    2bd5:	6d 84       	sty   4,sp
    2bd7:	ed f0 2a    	ldy   42,sp
    2bda:	27 06       	beq   0x2be2 <L151>
    2bdc:	ed f3 00 2a 	ldy   [42,sp]
    2be0:	6d 84       	sty   4,sp

0x00002be2 <L151>:
    2be2:	ed 84       	ldy   4,sp
    2be4:	ed 46       	ldy   6,y

0x00002be6 <LBE10>:
    2be6:	b7 64       	tfr   y,d
    2be8:	84 04       	anda  #0x4
    2bea:	c7          	clrb  
    2beb:	6c 84       	std   4,sp
    2bed:	87 c7       	clrd  
    2bef:	6c f0 20    	std   32,sp
    2bf2:	ed 84       	ldy   4,sp
    2bf4:	27 06       	beq   0x2bfc <L148>
    2bf6:	cc 3f da    	ldd   #0x3fda <LC0>
    2bf9:	6c f0 20    	std   32,sp

0x00002bfc <L148>:
    2bfc:	16 41 13    	jsr   0x4113 <___hc12_tstsf>
    2bff:	26 2c       	bne   0x2c2d <L154+0x20>
    2c01:	0b          	rti   
    2c02:	16 42 4a    	jsr   0x424a <___hc12_negsf>
    2c05:	26 26       	bne   0x2c2d <L154+0x20>
    2c07:	cd 3f dc    	ldy   #0x3fdc <LC1>
    2c0a:	6d f0 20    	sty   32,sp

0x00002c0d <L154>:
    2c0d:	ec f0 22    	ldd   34,sp
    2c10:	59          	asld  
    2c11:	59          	asld  
    2c12:	b7 46       	tfr   d,y
    2c14:	19 ea 3f de 	leay  16350,y
    2c18:	6d 84       	sty   4,sp
    2c1a:	ec f3 00 04 	ldd   [4,sp]
    2c1e:	6c f0 1c    	std   28,sp
    2c21:	ed 42       	ldy   2,y
    2c23:	6d f0 1e    	sty   30,sp
    2c26:	16 42 53    	jsr   0x4253 <___hc12_addsf>
    2c29:	26 26       	bne   0x2c51 <L165+0x1>
    2c2b:	1c cd 00 01 	bset  0xcd00 <.stab+0x580>,#0x1
    2c2f:	6d f0 1a    	sty   26,sp
    2c32:	fc 40 7e    	ldd   0x407e <LC2>
    2c35:	20 19       	bra   0x2c50 <L165>

0x00002c37 <L157>:
    2c37:	fc 40 7e    	ldd   0x407e <LC2>
    2c3a:	6c f0 12    	std   18,sp
    2c3d:	fd 40 80    	ldy   0x4080 <LC2+0x2>
    2c40:	6d f0 14    	sty   20,sp
    2c43:	16 42 5c    	jsr   0x425c <___hc12_divsf>
    2c46:	26 26       	bne   0x2c6e <LBB11+0xe>
    2c48:	12          	mul   
    2c49:	ed f0 1a    	ldy   26,sp
    2c4c:	02          	iny   
    2c4d:	6d f0 1a    	sty   26,sp

0x00002c50 <L165>:
    2c50:	6c f0 16    	std   22,sp
    2c53:	fd 40 80    	ldy   0x4080 <LC2+0x2>
    2c56:	6d f0 18    	sty   24,sp
    2c59:	16 42 65    	jsr   0x4265 <___hc12_cmpsf>
    2c5c:	26 16       	bne   0x2c74 <L159+0x4>
    2c5e:	2c d7       	bge   0x2c37 <L157>

0x00002c60 <LBB11>:
    2c60:	87 c7       	clrd  
    2c62:	6c 84       	std   4,sp
    2c64:	ed f0 1a    	ldy   26,sp
    2c67:	b7 54       	tfr   x,d
    2c69:	1a ee       	leax  d,y
    2c6b:	ec f0 22    	ldd   34,sp
    2c6e:	1a e6       	leax  d,x

0x00002c70 <L159>:
    2c70:	ed 84       	ldy   4,sp
    2c72:	34          	pshx  
    2c73:	ad b1       	cpy   2,sp+
    2c75:	2c 3d       	bge   0x2cb4 <L160>

0x00002c77 <LBB13>:
    2c77:	ad f0 1a    	cpy   26,sp
    2c7a:	26 07       	bne   0x2c83 <L163>
    2c7c:	ed f0 24    	ldy   36,sp
    2c7f:	c6 2e       	ldab  #0x2e
    2c81:	20 23       	bra   0x2ca6 <L166>

0x00002c83 <L163>:
    2c83:	16 42 c8    	jsr   0x42c8 <___hc12_fix_truncsfhi>
    2c86:	26 16       	bne   0x2c9e <L163+0x1b>
    2c88:	41          	coma  
    2c89:	b8 0e 16    	eora  0xe16 <.stab+0x2d6>
    2c8c:	43          	deca  
    2c8d:	12          	mul   
    2c8e:	0a          	rtc   
    2c8f:	26 0e       	bne   0x2c9f <L163+0x1c>
    2c91:	18 01 86 40 	movw  0x407e <LC2>,6,sp
    2c95:	7e 
    2c96:	18 01 88 40 	movw  0x4080 <LC2+0x2>,8,sp
    2c9a:	80 
    2c9b:	16 41 af    	jsr   0x41af <___hc12_mulsf>
    2c9e:	26 0a       	bne   0x2caa <L166+0x4>
    2ca0:	06 ed f0    	jmp   0xedf0 <.stab+0x2b8>
    2ca3:	24 cb       	bcc   0x2c70 <L159>
    2ca5:	30          	pulx  

0x00002ca6 <L166>:
    2ca6:	6b 70       	stab  1,y+
    2ca8:	6d f0 24    	sty   36,sp

0x00002cab <LBE12>:
    2cab:	ec 84       	ldd   4,sp
    2cad:	c3 00 01    	incd  
    2cb0:	6c 84       	std   4,sp
    2cb2:	20 bc       	bra   0x2c70 <L159>

0x00002cb4 <L160>:
    2cb4:	c7          	clrb  
    2cb5:	6b f3 00 24 	stab  [36,sp]
    2cb9:	1a f0 2c    	leax  44,sp
    2cbc:	6e 80       	stx   0,sp
    2cbe:	ed f0 20    	ldy   32,sp
    2cc1:	6d 82       	sty   2,sp
    2cc3:	ec f0 2a    	ldd   42,sp
    2cc6:	16 34 94    	jsr   0x3494 <_puts__7ostreamPCcT1>
    2cc9:	ec f0 2a    	ldd   42,sp
    2ccc:	16 36 87    	jsr   0x3687 <_osfx__7ostream>

0x00002ccf <L136>:
    2ccf:	ec f0 2a    	ldd   42,sp

0x00002cd2 <LBE2>:
    2cd2:	1b f0 7a    	leas  122,sp
    2cd5:	3d          	rts   

0x00002cd6 <_flush__FR7ostream>:
    2cd6:	1b 9e       	leas  -2,sp
    2cd8:	6c 80       	std   0,sp

0x00002cda <LBB2>:
    2cda:	16 32 c6    	jsr   0x32c6 <_flush__7ostream>
    2cdd:	ec 80       	ldd   0,sp

0x00002cdf <LBE2>:
    2cdf:	1b 82       	leas  2,sp
    2ce1:	3d          	rts   

0x00002ce2 <___rs__7istreamRf>:
    2ce2:	1b f1 bc    	leas  -68,sp
    2ce5:	6c f0 42    	std   66,sp

0x00002ce8 <LBB2>:
    2ce8:	18 00 80 00 	movw  #0x0 <*ABS*>,0,sp
    2cec:	00 
    2ced:	16 36 d3    	jsr   0x36d3 <_ipfx__7istreami>
    2cf0:	8c 00 00    	tstd  
    2cf3:	18 27 01 f1 	lbeq  0x2ee8 <L136>
    2cf7:	ce 00 00    	clrx  

0x00002cfa <LBB4>:
    2cfa:	ed f0 42    	ldy   66,sp
    2cfd:	27 04       	beq   0x2d03 <L138>
    2cff:	ee f3 00 42 	ldx   [66,sp]

0x00002d03 <L138>:
    2d03:	ee 00       	ldx   0,x

0x00002d05 <LBE5>:
    2d05:	b7 54       	tfr   x,d
    2d07:	16 37 e3    	jsr   0x37e3 <_sgetc__9streambuf>
    2d0a:	6c f0 40    	std   64,sp
    2d0d:	cc ff ff    	ldd   #0xffff <.stab+0x7cb>
    2d10:	6c f0 3e    	std   62,sp
    2d13:	ed f0 40    	ldy   64,sp
    2d16:	8d 00 2d    	cpy   #0x2d <_rsvd26+0x7>
    2d19:	27 0b       	beq   0x2d26 <L144>
    2d1b:	cc 00 01    	ldd   #0x1 <err_over>
    2d1e:	6c f0 3e    	std   62,sp

0x00002d21 <LBB7>:
    2d21:	8d 00 2b    	cpy   #0x2b <_rsvd26+0x5>
    2d24:	26 14       	bne   0x2d3a <L143>

0x00002d26 <L144>:
    2d26:	ce 00 00    	clrx  

0x00002d29 <LBB8>:
    2d29:	ed f0 42    	ldy   66,sp
    2d2c:	27 04       	beq   0x2d32 <L146>
    2d2e:	ee f3 00 42 	ldx   [66,sp]

0x00002d32 <L146>:
    2d32:	ec 00       	ldd   0,x

0x00002d34 <LBE10>:
    2d34:	16 37 fb    	jsr   0x37fb <_snextc__9streambuf>
    2d37:	6c f0 40    	std   64,sp

0x00002d3a <L143>:
    2d3a:	ec f0 40    	ldd   64,sp
    2d3d:	8c ff ff    	cpd   #0xffff <.stab+0x7cb>
    2d40:	26 12       	bne   0x2d54 <L149>
    2d42:	ce 00 00    	clrx  

0x00002d45 <LBB12>:
    2d45:	ed f0 42    	ldy   66,sp
    2d48:	27 04       	beq   0x2d4e <L151>
    2d4a:	ee f3 00 42 	ldx   [66,sp]

0x00002d4e <L151>:
    2d4e:	ec 04       	ldd   4,x
    2d50:	ca 04       	orab  #0x4
    2d52:	6c 04       	std   4,x

0x00002d54 <L149>:
    2d54:	ec f0 40    	ldd   64,sp
    2d57:	16 38 2c    	jsr   0x382c <_isdigit__Fi>
    2d5a:	8c 00 00    	tstd  
    2d5d:	26 0a       	bne   0x2d69 <L155>
    2d5f:	ec f0 40    	ldd   64,sp
    2d62:	8c 00 2e    	cpd   #0x2e <_rsvd26+0x8>
    2d65:	18 26 01 53 	lbne  0x2ebc <L154>

0x00002d69 <L155>:
    2d69:	fd 40 82    	ldy   0x4082 <LC0>
    2d6c:	6d f3 00 46 	sty   [70,sp]
    2d70:	fc 40 84    	ldd   0x4084 <LC0+0x2>
    2d73:	ed f0 46    	ldy   70,sp
    2d76:	6c 42       	std   2,y

0x00002d78 <L156>:
    2d78:	ec f0 40    	ldd   64,sp
    2d7b:	16 38 2c    	jsr   0x382c <_isdigit__Fi>
    2d7e:	8c 00 00    	tstd  
    2d81:	18 27 00 77 	lbeq  0x2dfc <L157>
    2d85:	ed f3 00 46 	ldy   [70,sp]
    2d89:	6d f0 3a    	sty   58,sp
    2d8c:	ed f0 46    	ldy   70,sp
    2d8f:	ed 42       	ldy   2,y
    2d91:	6d f0 3c    	sty   60,sp
    2d94:	fc 40 86    	ldd   0x4086 <LC1>
    2d97:	6c f0 32    	std   50,sp
    2d9a:	fd 40 88    	ldy   0x4088 <LC1+0x2>
    2d9d:	6d f0 34    	sty   52,sp
    2da0:	16 41 af    	jsr   0x41af <___hc12_mulsf>
    2da3:	36          	psha  
    2da4:	3a          	puld  
    2da5:	32          	pula  
    2da6:	ec f0 36    	ldd   54,sp
    2da9:	6c f3 00 46 	std   [70,sp]
    2dad:	ec f0 38    	ldd   56,sp
    2db0:	ed f0 46    	ldy   70,sp
    2db3:	6c 42       	std   2,y
    2db5:	ed f0 40    	ldy   64,sp
    2db8:	1a e9 d0    	leax  -48,y
    2dbb:	b7 54       	tfr   x,d
    2dbd:	16 41 b8    	jsr   0x41b8 <___hc12_floathisf>
    2dc0:	2e ed       	bgt   0x2daf <L156+0x37>
    2dc2:	f3 00 46    	addd  0x46 <_pwscal1>
    2dc5:	6d f0 2a    	sty   42,sp
    2dc8:	ed f0 46    	ldy   70,sp
    2dcb:	ed 42       	ldy   2,y
    2dcd:	6d f0 2c    	sty   44,sp
    2dd0:	16 42 53    	jsr   0x4253 <___hc12_addsf>
    2dd3:	26 2a       	bne   0x2dff <L157+0x3>
    2dd5:	2e ec       	bgt   0x2dc3 <L156+0x4b>
    2dd7:	f0 26 6c    	subb  0x266c <L43+0x1>
    2dda:	f3 00 46    	addd  0x46 <_pwscal1>
    2ddd:	ec f0 28    	ldd   40,sp
    2de0:	ed f0 46    	ldy   70,sp
    2de3:	6c 42       	std   2,y
    2de5:	ce 00 00    	clrx  
    2de8:	ed f0 42    	ldy   66,sp
    2deb:	27 04       	beq   0x2df1 <L160>
    2ded:	ee f3 00 42 	ldx   [66,sp]

0x00002df1 <L160>:
    2df1:	ec 00       	ldd   0,x

0x00002df3 <LBE18>:
    2df3:	16 37 fb    	jsr   0x37fb <_snextc__9streambuf>
    2df6:	6c f0 40    	std   64,sp

0x00002df9 <LBE17>:
    2df9:	06 2d 78    	jmp   0x2d78 <L156>

0x00002dfc <L157>:
    2dfc:	ec f0 40    	ldd   64,sp
    2dff:	8c 00 2e    	cpd   #0x2e <_rsvd26+0x8>
    2e02:	18 26 00 8d 	lbne  0x2e93 <L163>
    2e06:	ce 00 00    	clrx  

0x00002e09 <LBB21>:
    2e09:	ed f0 42    	ldy   66,sp
    2e0c:	27 04       	beq   0x2e12 <L165>
    2e0e:	ee f3 00 42 	ldx   [66,sp]

0x00002e12 <L165>:
    2e12:	ee 00       	ldx   0,x

0x00002e14 <LBE22>:
    2e14:	b7 54       	tfr   x,d
    2e16:	16 37 fb    	jsr   0x37fb <_snextc__9streambuf>
    2e19:	6c f0 40    	std   64,sp
    2e1c:	fc 40 8a    	ldd   0x408a <LC2>
    2e1f:	6c f0 22    	std   34,sp
    2e22:	fd 40 8c    	ldy   0x408c <LC2+0x2>
    2e25:	6d f0 24    	sty   36,sp

0x00002e28 <L168>:
    2e28:	ec f0 40    	ldd   64,sp
    2e2b:	16 38 2c    	jsr   0x382c <_isdigit__Fi>
    2e2e:	8c 00 00    	tstd  
    2e31:	18 27 00 5e 	lbeq  0x2e93 <L163>
    2e35:	fc 40 86    	ldd   0x4086 <LC1>
    2e38:	6c f0 1e    	std   30,sp
    2e3b:	fd 40 88    	ldy   0x4088 <LC1+0x2>
    2e3e:	6d f0 20    	sty   32,sp
    2e41:	16 42 5c    	jsr   0x425c <___hc12_divsf>
    2e44:	22 22       	bhi   0x2e68 <L168+0x40>
    2e46:	1e ed f0 40 	brset 0xedf0 <.stab+0x2b8>,#0x40,0x2e65 <L168+0x3d>
    2e4a:	1a 
    2e4b:	e9 d0       	adcb  0x2e3d <L168+0x15>,pc
    2e4d:	b7 54       	tfr   x,d
    2e4f:	16 41 b8    	jsr   0x41b8 <___hc12_floathisf>
    2e52:	1a 16       	leax  -10,x
    2e54:	41          	coma  
    2e55:	af 16       	cps   -10,x
    2e57:	1a 22       	leax  3,+x
    2e59:	ed f3 00 46 	ldy   [70,sp]
    2e5d:	6d f0 12    	sty   18,sp
    2e60:	ed f0 46    	ldy   70,sp
    2e63:	ed 42       	ldy   2,y
    2e65:	6d f0 14    	sty   20,sp
    2e68:	16 42 53    	jsr   0x4253 <___hc12_addsf>
    2e6b:	0e 12 16 ec 	brset -14,x,#0x16,0x2e5b <L168+0x33>
    2e6f:	8e 6c f3    	cpx   #0x6cf3 <.stab+0x108f>
    2e72:	00          	bgnd  
    2e73:	46          	rora  
    2e74:	ec f0 10    	ldd   16,sp
    2e77:	ed f0 46    	ldy   70,sp
    2e7a:	6c 42       	std   2,y
    2e7c:	ce 00 00    	clrx  
    2e7f:	ed f0 42    	ldy   66,sp
    2e82:	27 04       	beq   0x2e88 <L172>
    2e84:	ee f3 00 42 	ldx   [66,sp]

0x00002e88 <L172>:
    2e88:	ec 00       	ldd   0,x

0x00002e8a <LBE25>:
    2e8a:	16 37 fb    	jsr   0x37fb <_snextc__9streambuf>
    2e8d:	6c f0 40    	std   64,sp

0x00002e90 <LBE24>:
    2e90:	06 2e 28    	jmp   0x2e28 <L168>

0x00002e93 <L163>:
    2e93:	ec f0 3e    	ldd   62,sp
    2e96:	16 41 b8    	jsr   0x41b8 <___hc12_floathisf>
    2e99:	0a          	rtc   
    2e9a:	ed f3 00 46 	ldy   [70,sp]
    2e9e:	6d 86       	sty   6,sp
    2ea0:	ed f0 46    	ldy   70,sp
    2ea3:	ed 42       	ldy   2,y
    2ea5:	6d 88       	sty   8,sp
    2ea7:	16 41 af    	jsr   0x41af <___hc12_mulsf>
    2eaa:	02          	iny   
    2eab:	06 0a ec    	jmp   0xaec <_ddrdlc+0x9ed>
    2eae:	82 6c       	sbca  #0x6c
    2eb0:	f3 00 46    	addd  0x46 <_pwscal1>
    2eb3:	ec 84       	ldd   4,sp
    2eb5:	ed f0 46    	ldy   70,sp
    2eb8:	6c 42       	std   2,y

0x00002eba <LBE16>:
    2eba:	20 12       	bra   0x2ece <L175>

0x00002ebc <L154>:
    2ebc:	ce 00 00    	clrx  

0x00002ebf <LBB27>:
    2ebf:	ed f0 42    	ldy   66,sp
    2ec2:	27 04       	beq   0x2ec8 <L177>
    2ec4:	ee f3 00 42 	ldx   [66,sp]

0x00002ec8 <L177>:
    2ec8:	ec 04       	ldd   4,x
    2eca:	ca 02       	orab  #0x2
    2ecc:	6c 04       	std   4,x

0x00002ece <L175>:
    2ece:	ec f0 40    	ldd   64,sp
    2ed1:	8c ff ff    	cpd   #0xffff <.stab+0x7cb>
    2ed4:	26 12       	bne   0x2ee8 <L136>
    2ed6:	ce 00 00    	clrx  

0x00002ed9 <LBB31>:
    2ed9:	ed f0 42    	ldy   66,sp
    2edc:	27 04       	beq   0x2ee2 <L182>
    2ede:	ee f3 00 42 	ldx   [66,sp]

0x00002ee2 <L182>:
    2ee2:	ec 04       	ldd   4,x
    2ee4:	ca 01       	orab  #0x1
    2ee6:	6c 04       	std   4,x

0x00002ee8 <L136>:
    2ee8:	ec f0 42    	ldd   66,sp

0x00002eeb <LBE2>:
    2eeb:	1b f0 44    	leas  68,sp
    2eee:	3d          	rts   

0x00002eef <_hex__FR3ios>:
    2eef:	b7 46       	tfr   d,y

0x00002ef1 <LBB2>:
    2ef1:	ec 46       	ldd   6,y
    2ef3:	c4 8f       	andb  #0x8f
    2ef5:	ca 40       	orab  #0x40
    2ef7:	6c 46       	std   6,y

0x00002ef9 <LBE3>:
    2ef9:	b7 64       	tfr   y,d

0x00002efb <LBE2>:
    2efb:	3d          	rts   

0x00002efc <___rs__7istreamRUi>:
    2efc:	1b 9a       	leas  -6,sp
    2efe:	6c 82       	std   2,sp

0x00002f00 <LBB2>:
    2f00:	1a 84       	leax  4,sp
    2f02:	6e 80       	stx   0,sp
    2f04:	16 38 3d    	jsr   0x383d <___rs__7istreamRi>
    2f07:	ed 84       	ldy   4,sp
    2f09:	6d f3 00 08 	sty   [8,sp]
    2f0d:	ec 82       	ldd   2,sp

0x00002f0f <LBE2>:
    2f0f:	1b 86       	leas  6,sp
    2f11:	3d          	rts   

0x00002f12 <___ls__7ostreami>:
    2f12:	1b 9a       	leas  -6,sp
    2f14:	6c 84       	std   4,sp

0x00002f16 <LBB2>:
    2f16:	16 34 3f    	jsr   0x343f <_opfx__7ostream>
    2f19:	8c 00 00    	tstd  
    2f1c:	27 3c       	beq   0x2f5a <L136>

0x00002f1e <LBB4>:
    2f1e:	ed 88       	ldy   8,sp
    2f20:	2c 25       	bge   0x2f47 <L137>
    2f22:	ce 00 00    	clrx  
    2f25:	ed 84       	ldy   4,sp
    2f27:	27 04       	beq   0x2f2d <L139>
    2f29:	ee f3 00 04 	ldx   [4,sp]

0x00002f2d <L139>:
    2f2d:	ec 06       	ldd   6,x

0x00002f2f <LBE6>:
    2f2f:	87          	clra  
    2f30:	c4 50       	andb  #0x50
    2f32:	8c 00 00    	tstd  
    2f35:	26 10       	bne   0x2f47 <L137>
    2f37:	ec 88       	ldd   8,sp
    2f39:	41 51 c3 00 	negd  
    2f3d:	01 
    2f3e:	6c 80       	std   0,sp
    2f40:	18 00 82 ff 	movw  #0xffff <.stab+0x7cb>,2,sp
    2f44:	ff 
    2f45:	20 09       	bra   0x2f50 <L143>

0x00002f47 <L137>:
    2f47:	ed 88       	ldy   8,sp
    2f49:	6d 80       	sty   0,sp
    2f4b:	18 00 82 00 	movw  #0x1 <err_over>,2,sp
    2f4f:	01 

0x00002f50 <L143>:
    2f50:	ec 84       	ldd   4,sp
    2f52:	16 39 d8    	jsr   0x39d8 <_puti__7ostreamUii>

0x00002f55 <LBE5>:
    2f55:	ec 84       	ldd   4,sp
    2f57:	16 36 87    	jsr   0x3687 <_osfx__7ostream>

0x00002f5a <L136>:
    2f5a:	ec 84       	ldd   4,sp

0x00002f5c <LBE2>:
    2f5c:	1b 86       	leas  6,sp
    2f5e:	3d          	rts   

0x00002f5f <___9streambuf>:
    2f5f:	b7 46       	tfr   d,y
    2f61:	cc 40 8e    	ldd   #0x408e <___vt_9streambuf>
    2f64:	6c e8 12    	std   18,y

0x00002f67 <LBB2>:
    2f67:	18 00 40 00 	movw  #0x0 <*ABS*>,0,y
    2f6b:	00 
    2f6c:	18 00 42 00 	movw  #0x0 <*ABS*>,2,y
    2f70:	00 
    2f71:	18 00 44 00 	movw  #0x0 <*ABS*>,4,y
    2f75:	00 
    2f76:	18 00 46 00 	movw  #0x0 <*ABS*>,6,y
    2f7a:	00 
    2f7b:	18 00 48 00 	movw  #0x0 <*ABS*>,8,y
    2f7f:	00 
    2f80:	18 00 4a 00 	movw  #0x0 <*ABS*>,10,y
    2f84:	00 
    2f85:	18 00 4c 00 	movw  #0x0 <*ABS*>,12,y
    2f89:	00 
    2f8a:	18 00 4e 00 	movw  #0x0 <*ABS*>,14,y
    2f8e:	00 
    2f8f:	87 c7       	clrd  
    2f91:	6c e8 10    	std   16,y

0x00002f94 <LBE2>:
    2f94:	b7 64       	tfr   y,d
    2f96:	3d          	rts   

0x00002f97 <_setg__9streambufPcN21>:
    2f97:	b7 45       	tfr   d,x

0x00002f99 <LBB2>:
    2f99:	18 02 82 0c 	movw  2,sp,12,x
    2f9d:	18 02 84 0e 	movw  4,sp,14,x
    2fa1:	ed 86       	ldy   6,sp
    2fa3:	6d e0 10    	sty   16,x

0x00002fa6 <LBE2>:
    2fa6:	3d          	rts   

0x00002fa7 <_setp__9streambufPcT1>:
    2fa7:	b7 46       	tfr   d,y
    2fa9:	ec 82       	ldd   2,sp

0x00002fab <LBB2>:
    2fab:	6c 48       	std   8,y
    2fad:	6c 46       	std   6,y
    2faf:	18 02 84 4a 	movw  4,sp,10,y

0x00002fb3 <LBE2>:
    2fb3:	3d          	rts   

0x00002fb4 <__$_9streambuf>:
    2fb4:	1b 9e       	leas  -2,sp
    2fb6:	6c 80       	std   0,sp
    2fb8:	cc 40 8e    	ldd   #0x408e <___vt_9streambuf>
    2fbb:	ed 80       	ldy   0,sp
    2fbd:	6c e8 12    	std   18,y

0x00002fc0 <LBB2>:
    2fc0:	ee f3 00 00 	ldx   [0,sp]
    2fc4:	27 09       	beq   0x2fcf <L139>
    2fc6:	ee 42       	ldx   2,y
    2fc8:	27 05       	beq   0x2fcf <L139>
    2fca:	b7 54       	tfr   x,d
    2fcc:	16 26 d2    	jsr   0x26d2 <___builtin_vec_delete>

0x00002fcf <L139>:
    2fcf:	ec 84       	ldd   4,sp
    2fd1:	87          	clra  
    2fd2:	c4 01       	andb  #0x1
    2fd4:	8c 00 00    	tstd  
    2fd7:	27 05       	beq   0x2fde <L141>
    2fd9:	ec 80       	ldd   0,sp
    2fdb:	16 26 ce    	jsr   0x26ce <___builtin_delete>

0x00002fde <L141>:
    2fde:	1b 82       	leas  2,sp
    2fe0:	3d          	rts   

0x00002fe1 <_sputc__9streambufi>:
    2fe1:	1b 9d       	leas  -3,sp
    2fe3:	b7 46       	tfr   d,y
    2fe5:	ec 85       	ldd   5,sp

0x00002fe7 <LBB2>:
    2fe7:	ee 48       	ldx   8,y
    2fe9:	ae 4a       	cpx   10,y
    2feb:	25 0d       	bcs   0x2ffa <L136>
    2fed:	ee e8 12    	ldx   18,y
    2ff0:	6c 80       	std   0,sp
    2ff2:	b7 64       	tfr   y,d
    2ff4:	15 e3 00 0e 	jsr   [14,x]
    2ff8:	20 0d       	bra   0x3007 <L138>

0x00002ffa <L136>:
    2ffa:	1a 48       	leax  8,y
    2ffc:	ed 00       	ldy   0,x
    2ffe:	6b 82       	stab  2,sp
    3000:	6b 70       	stab  1,y+
    3002:	e6 82       	ldab  2,sp
    3004:	87          	clra  
    3005:	6d 00       	sty   0,x

0x00003007 <L138>:
    3007:	1b 83       	leas  3,sp
    3009:	3d          	rts   

0x0000300a <_in_avail__9streambuf>:
    300a:	b7 46       	tfr   d,y

0x0000300c <LBB2>:
    300c:	ec e8 10    	ldd   16,y
    300f:	a3 4e       	subd  14,y
    3011:	2c 02       	bge   0x3015 <L136>
    3013:	87 c7       	clrd  

0x00003015 <L136>:
    3015:	3d          	rts   

0x00003016 <_seekoff__9streambufiQ23ios8seek_diri>:
    3016:	cc ff ff    	ldd   #0xffff <.stab+0x7cb>

0x00003019 <LBE2>:
    3019:	3d          	rts   

0x0000301a <_seekpos__9streambufii>:
    301a:	1b 9a       	leas  -6,sp

0x0000301c <LBB2>:
    301c:	b7 46       	tfr   d,y
    301e:	ee e8 12    	ldx   18,y
    3021:	18 02 88 80 	movw  8,sp,0,sp
    3025:	18 00 82 00 	movw  #0x0 <*ABS*>,2,sp
    3029:	00 
    302a:	18 02 8a 84 	movw  10,sp,4,sp
    302e:	15 e3 00 08 	jsr   [8,x]

0x00003032 <LBE2>:
    3032:	1b 86       	leas  6,sp
    3034:	3d          	rts   

0x00003035 <_xsputn__9streambufPCci>:
    3035:	1b 94       	leas  -12,sp
    3037:	6c 8a       	std   10,sp

0x00003039 <LBB2>:
    3039:	ec 8e       	ldd   14,sp
    303b:	6c 88       	std   8,sp

0x0000303d <L136>:
    303d:	ed f0 10    	ldy   16,sp
    3040:	18 27 00 71 	lbeq  0x30b5 <L137>

0x00003044 <LBB4>:
    3044:	ed 8a       	ldy   10,sp
    3046:	ee 4a       	ldx   10,y

0x00003048 <LBB7>:
    3048:	ec 48       	ldd   8,y
    304a:	6c 84       	std   4,sp

0x0000304c <LBE7>:
    304c:	b7 c5       	xgdx  
    304e:	a3 84       	subd  4,sp
    3050:	b7 c5       	xgdx  
    3052:	ed f0 10    	ldy   16,sp
    3055:	6d 86       	sty   6,sp
    3057:	34          	pshx  
    3058:	ad b1       	cpy   2,sp+
    305a:	2f 02       	ble   0x305e <L141>
    305c:	6e 86       	stx   6,sp

0x0000305e <L141>:
    305e:	ec 86       	ldd   6,sp
    3060:	27 23       	beq   0x3085 <L142>

0x00003062 <LBB10>:
    3062:	ed 8e       	ldy   14,sp
    3064:	6d 80       	sty   0,sp
    3066:	6c 82       	std   2,sp
    3068:	ec 84       	ldd   4,sp
    306a:	16 3b 66    	jsr   0x3b66 <_memcpy>

0x0000306d <LBB12>:
    306d:	ed 8a       	ldy   10,sp
    306f:	ee 48       	ldx   8,y
    3071:	ec 86       	ldd   6,sp
    3073:	1a e6       	leax  d,x
    3075:	6e 48       	stx   8,y

0x00003077 <LBE12>:
    3077:	ec 8e       	ldd   14,sp
    3079:	e3 86       	addd  6,sp
    307b:	6c 8e       	std   14,sp
    307d:	ec f0 10    	ldd   16,sp
    3080:	a3 86       	subd  6,sp
    3082:	6c f0 10    	std   16,sp

0x00003085 <L142>:
    3085:	ed f0 10    	ldy   16,sp
    3088:	27 2b       	beq   0x30b5 <L137>
    308a:	b7 64       	tfr   y,d
    308c:	c3 ff ff    	addd  #0xffff <.stab+0x7cb>
    308f:	6c f0 10    	std   16,sp
    3092:	ed 8a       	ldy   10,sp
    3094:	ed e8 12    	ldy   18,y
    3097:	6d 84       	sty   4,sp
    3099:	ed 8e       	ldy   14,sp
    309b:	e6 70       	ldab  1,y+
    309d:	87          	clra  
    309e:	b7 45       	tfr   d,x
    30a0:	6d 8e       	sty   14,sp
    30a2:	6e 80       	stx   0,sp
    30a4:	ec 8a       	ldd   10,sp
    30a6:	ed 84       	ldy   4,sp
    30a8:	15 eb 00 0e 	jsr   [14,y]
    30ac:	b7 45       	tfr   d,x
    30ae:	8e ff ff    	cpx   #0xffff <.stab+0x7cb>
    30b1:	18 26 ff 88 	lbne  0x303d <L136>

0x000030b5 <L137>:
    30b5:	ec 8e       	ldd   14,sp
    30b7:	a3 88       	subd  8,sp

0x000030b9 <LBE2>:
    30b9:	1b 8c       	leas  12,sp
    30bb:	3d          	rts   

0x000030bc <_xsgetn__9streambufPci>:
    30bc:	1b 94       	leas  -12,sp
    30be:	6c 8a       	std   10,sp

0x000030c0 <LBB2>:
    30c0:	ec 8e       	ldd   14,sp
    30c2:	6c 88       	std   8,sp

0x000030c4 <L136>:
    30c4:	ed f0 10    	ldy   16,sp
    30c7:	18 27 00 52 	lbeq  0x311d <L137>

0x000030cb <LBB4>:
    30cb:	ed 8a       	ldy   10,sp
    30cd:	ee e8 10    	ldx   16,y

0x000030d0 <LBB6>:
    30d0:	ec 4e       	ldd   14,y
    30d2:	6c 84       	std   4,sp

0x000030d4 <LBE6>:
    30d4:	b7 c5       	xgdx  
    30d6:	a3 84       	subd  4,sp
    30d8:	b7 c5       	xgdx  
    30da:	ed f0 10    	ldy   16,sp
    30dd:	6d 86       	sty   6,sp
    30df:	34          	pshx  
    30e0:	ad b1       	cpy   2,sp+
    30e2:	2f 02       	ble   0x30e6 <L141>
    30e4:	6e 86       	stx   6,sp

0x000030e6 <L141>:
    30e6:	ec 84       	ldd   4,sp
    30e8:	6c 80       	std   0,sp
    30ea:	ed 86       	ldy   6,sp
    30ec:	6d 82       	sty   2,sp
    30ee:	ec 8e       	ldd   14,sp
    30f0:	16 3b 66    	jsr   0x3b66 <_memcpy>
    30f3:	ec 8e       	ldd   14,sp
    30f5:	e3 86       	addd  6,sp
    30f7:	6c 8e       	std   14,sp

0x000030f9 <LBB10>:
    30f9:	ed 8a       	ldy   10,sp
    30fb:	ee 4e       	ldx   14,y
    30fd:	ec 86       	ldd   6,sp
    30ff:	1a e6       	leax  d,x
    3101:	6e 4e       	stx   14,y

0x00003103 <LBE10>:
    3103:	ec f0 10    	ldd   16,sp
    3106:	a3 86       	subd  6,sp
    3108:	6c f0 10    	std   16,sp
    310b:	27 10       	beq   0x311d <L137>
    310d:	ee e8 12    	ldx   18,y
    3110:	b7 64       	tfr   y,d
    3112:	15 e3 00 12 	jsr   [18,x]
    3116:	8c ff ff    	cpd   #0xffff <.stab+0x7cb>
    3119:	18 26 ff a7 	lbne  0x30c4 <L136>

0x0000311d <L137>:
    311d:	ec 8e       	ldd   14,sp
    311f:	a3 88       	subd  8,sp

0x00003121 <LBE2>:
    3121:	1b 8c       	leas  12,sp
    3123:	3d          	rts   

0x00003124 <_pbackfail__9streambufi>:
    3124:	cc ff ff    	ldd   #0xffff <.stab+0x7cb>

0x00003127 <LBE2>:
    3127:	3d          	rts   

0x00003128 <Lscope0>:
    3128:	b7 45       	tfr   d,x

0x0000312a <LBB2>:
    312a:	18 02 82 08 	movw  2,sp,8,x

0x0000312e <LBE2>:
    312e:	3d          	rts   

0x0000312f <_setw__Fi>:
    312f:	b7 46       	tfr   d,y

0x00003131 <LBB5>:
    3131:	18 00 40 31 	movw  #0x3128 <Lscope0>,0,y
    3135:	28 
    3136:	18 02 82 42 	movw  2,sp,2,y

0x0000313a <LBB7>:
    313a:	3d          	rts   

0x0000313b <___rs__7istreamPc>:
    313b:	1b 97       	leas  -9,sp
    313d:	6c 87       	std   7,sp

0x0000313f <LBB2>:
    313f:	18 00 80 00 	movw  #0x0 <*ABS*>,0,sp
    3143:	00 
    3144:	16 36 d3    	jsr   0x36d3 <_ipfx__7istreami>
    3147:	8c 00 00    	tstd  
    314a:	18 27 00 97 	lbeq  0x31e5 <L136>
    314e:	ce 00 00    	clrx  

0x00003151 <LBB4>:
    3151:	ed 87       	ldy   7,sp
    3153:	27 04       	beq   0x3159 <L138>
    3155:	ee f3 00 07 	ldx   [7,sp]

0x00003159 <L138>:
    3159:	ee 00       	ldx   0,x

0x0000315b <LBE5>:
    315b:	b7 54       	tfr   x,d
    315d:	16 37 e3    	jsr   0x37e3 <_sgetc__9streambuf>
    3160:	6c 85       	std   5,sp

0x00003162 <LBB7>:
    3162:	8c ff ff    	cpd   #0xffff <.stab+0x7cb>
    3165:	26 11       	bne   0x3178 <L141>
    3167:	ce 00 00    	clrx  

0x0000316a <LBB8>:
    316a:	ed 87       	ldy   7,sp
    316c:	27 04       	beq   0x3172 <L143>
    316e:	ee f3 00 07 	ldx   [7,sp]

0x00003172 <L143>:
    3172:	ec 04       	ldd   4,x
    3174:	ca 02       	orab  #0x2
    3176:	6c 04       	std   4,x

0x00003178 <L141>:
    3178:	ce 00 00    	clrx  

0x0000317b <LBE7>:
    317b:	ed 87       	ldy   7,sp
    317d:	27 04       	beq   0x3183 <L147>
    317f:	ee f3 00 07 	ldx   [7,sp]

0x00003183 <L147>:
    3183:	ec 08       	ldd   8,x
    3185:	18 00 08 00 	movw  #0x0 <*ABS*>,8,x
    3189:	00 
    318a:	6c 83       	std   3,sp

0x0000318c <L149>:
    318c:	c7          	clrb  
    318d:	6b 82       	stab  2,sp
    318f:	ec 83       	ldd   3,sp
    3191:	c3 ff ff    	addd  #0xffff <.stab+0x7cb>
    3194:	6c 83       	std   3,sp
    3196:	27 0e       	beq   0x31a6 <L153>
    3198:	ec 85       	ldd   5,sp
    319a:	16 3b 83    	jsr   0x3b83 <_isspace__Fi>
    319d:	8c 00 00    	tstd  
    31a0:	26 04       	bne   0x31a6 <L153>
    31a2:	c6 01       	ldab  #0x1
    31a4:	6b 82       	stab  2,sp

0x000031a6 <L153>:
    31a6:	e7 82       	tst   2,sp
    31a8:	27 23       	beq   0x31cd <L150>
    31aa:	ed 85       	ldy   5,sp
    31ac:	8d ff ff    	cpy   #0xffff <.stab+0x7cb>
    31af:	27 23       	beq   0x31d4 <L163>
    31b1:	ed 8b       	ldy   11,sp
    31b3:	e6 86       	ldab  6,sp
    31b5:	6b 70       	stab  1,y+
    31b7:	6d 8b       	sty   11,sp
    31b9:	ce 00 00    	clrx  
    31bc:	ed 87       	ldy   7,sp
    31be:	27 04       	beq   0x31c4 <L155>
    31c0:	ee f3 00 07 	ldx   [7,sp]

0x000031c4 <L155>:
    31c4:	ec 00       	ldd   0,x

0x000031c6 <LBE14>:
    31c6:	16 37 fb    	jsr   0x37fb <_snextc__9streambuf>
    31c9:	6c 85       	std   5,sp

0x000031cb <LBE13>:
    31cb:	20 bf       	bra   0x318c <L149>

0x000031cd <L150>:
    31cd:	ec 85       	ldd   5,sp
    31cf:	8c ff ff    	cpd   #0xffff <.stab+0x7cb>
    31d2:	26 11       	bne   0x31e5 <L136>

0x000031d4 <L163>:
    31d4:	ce 00 00    	clrx  

0x000031d7 <LBB17>:
    31d7:	ed 87       	ldy   7,sp
    31d9:	27 04       	beq   0x31df <L160>
    31db:	ee f3 00 07 	ldx   [7,sp]

0x000031df <L160>:
    31df:	ec 04       	ldd   4,x
    31e1:	ca 01       	orab  #0x1
    31e3:	6c 04       	std   4,x

0x000031e5 <L136>:
    31e5:	c7          	clrb  
    31e6:	6b f3 00 0b 	stab  [11,sp]
    31ea:	ec 87       	ldd   7,sp

0x000031ec <LBE2>:
    31ec:	1b 89       	leas  9,sp
    31ee:	3d          	rts   

0x000031ef <_strcmp__FPCcT0>:
    31ef:	b7 46       	tfr   d,y
    31f1:	ee 82       	ldx   2,sp

0x000031f3 <LBB2>:
    31f3:	e7 40       	tst   0,y
    31f5:	27 0b       	beq   0x3202 <L3>

0x000031f7 <L6>:
    31f7:	e6 40       	ldab  0,y
    31f9:	e1 00       	cmpb  0,x
    31fb:	26 05       	bne   0x3202 <L3>
    31fd:	08          	inx   
    31fe:	e7 60       	tst   1,+y
    3200:	26 f5       	bne   0x31f7 <L6>

0x00003202 <L3>:
    3202:	e6 40       	ldab  0,y
    3204:	87          	clra  
    3205:	b7 46       	tfr   d,y
    3207:	e6 00       	ldab  0,x
    3209:	87          	clra  
    320a:	b7 45       	tfr   d,x
    320c:	b7 64       	tfr   y,d
    320e:	34          	pshx  
    320f:	a3 b1       	subd  2,sp+
    3211:	b7 46       	tfr   d,y

0x00003213 <LBE2>:
    3213:	3d          	rts   

0x00003214 <_get__7istream>:
    3214:	1b 9a       	leas  -6,sp
    3216:	6c 84       	std   4,sp

0x00003218 <LBB2>:
    3218:	18 00 80 00 	movw  #0x1 <err_over>,0,sp
    321c:	01 
    321d:	16 36 d3    	jsr   0x36d3 <_ipfx__7istreami>
    3220:	8c 00 00    	tstd  
    3223:	27 3b       	beq   0x3260 <L136>
    3225:	ce 00 00    	clrx  

0x00003228 <LBB4>:
    3228:	ed 84       	ldy   4,sp
    322a:	27 04       	beq   0x3230 <L138>
    322c:	ee f3 00 04 	ldx   [4,sp]

0x00003230 <L138>:
    3230:	ec 00       	ldd   0,x

0x00003232 <LBE5>:
    3232:	16 3b 9a    	jsr   0x3b9a <_sbumpc__9streambuf>
    3235:	b7 45       	tfr   d,x

0x00003237 <LBB7>:
    3237:	8e ff ff    	cpx   #0xffff <.stab+0x7cb>
    323a:	27 09       	beq   0x3245 <L141>
    323c:	cc 00 01    	ldd   #0x1 <err_over>
    323f:	ed 84       	ldy   4,sp
    3241:	6c 42       	std   2,y
    3243:	20 17       	bra   0x325c <L142>

0x00003245 <L141>:
    3245:	cd 00 00    	clry  
    3248:	6d 82       	sty   2,sp

0x0000324a <LBB8>:
    324a:	ed 84       	ldy   4,sp
    324c:	27 06       	beq   0x3254 <L144>
    324e:	ed f3 00 04 	ldy   [4,sp]
    3252:	6d 82       	sty   2,sp

0x00003254 <L144>:
    3254:	ed 82       	ldy   2,sp
    3256:	ec 44       	ldd   4,y
    3258:	ca 01       	orab  #0x1
    325a:	6c 44       	std   4,y

0x0000325c <L142>:
    325c:	b7 54       	tfr   x,d
    325e:	20 03       	bra   0x3263 <L147>

0x00003260 <L136>:
    3260:	cc ff ff    	ldd   #0xffff <.stab+0x7cb>

0x00003263 <L147>:
    3263:	1b 86       	leas  6,sp
    3265:	3d          	rts   

0x00003266 <_isprint__Fi>:
    3266:	cd 00 00    	clry  
    3269:	c3 ff e0    	addd  #0xffe0 <.stab+0x7ac>
    326c:	8c 00 5e    	cpd   #0x5e <_rsvd58+0x6>
    326f:	22 03       	bhi   0x3274 <L2>
    3271:	cd 00 01    	ldy   #0x1 <err_over>

0x00003274 <L2>:
    3274:	b7 64       	tfr   y,d

0x00003276 <LBE2>:
    3276:	3d          	rts   

0x00003277 <_put__7ostreamc>:
    3277:	1b 9b       	leas  -5,sp
    3279:	6c 83       	std   3,sp
    327b:	e6 88       	ldab  8,sp
    327d:	6b 82       	stab  2,sp
    327f:	ce 00 00    	clrx  

0x00003282 <LBB2>:
    3282:	ed 83       	ldy   3,sp
    3284:	27 04       	beq   0x328a <L138>
    3286:	ee f3 00 03 	ldx   [3,sp]

0x0000328a <L138>:
    328a:	ec 04       	ldd   4,x
    328c:	87          	clra  
    328d:	c4 06       	andb  #0x6

0x0000328f <LBE4>:
    328f:	8c 00 00    	tstd  
    3292:	26 2d       	bne   0x32c1 <L136>
    3294:	ce 00 00    	clrx  

0x00003297 <LBB6>:
    3297:	ed 83       	ldy   3,sp
    3299:	27 04       	beq   0x329f <L143>
    329b:	ee f3 00 03 	ldx   [3,sp]

0x0000329f <L143>:
    329f:	ed 00       	ldy   0,x

0x000032a1 <LBE8>:
    32a1:	e6 82       	ldab  2,sp
    32a3:	87          	clra  
    32a4:	6c 80       	std   0,sp
    32a6:	b7 64       	tfr   y,d
    32a8:	16 2f e1    	jsr   0x2fe1 <_sputc__9streambufi>
    32ab:	8c ff ff    	cpd   #0xffff <.stab+0x7cb>
    32ae:	26 11       	bne   0x32c1 <L136>
    32b0:	ce 00 00    	clrx  

0x000032b3 <LBB10>:
    32b3:	ed 83       	ldy   3,sp
    32b5:	27 04       	beq   0x32bb <L147>
    32b7:	ee f3 00 03 	ldx   [3,sp]

0x000032bb <L147>:
    32bb:	ec 04       	ldd   4,x
    32bd:	ca 04       	orab  #0x4
    32bf:	6c 04       	std   4,x

0x000032c1 <L136>:
    32c1:	ec 83       	ldd   3,sp

0x000032c3 <LBE2>:
    32c3:	1b 85       	leas  5,sp
    32c5:	3d          	rts   

0x000032c6 <_flush__7ostream>:
    32c6:	1b 9e       	leas  -2,sp
    32c8:	6c 80       	std   0,sp
    32ca:	ce 00 00    	clrx  

0x000032cd <LBB2>:
    32cd:	b7 46       	tfr   d,y
    32cf:	8d 00 00    	tsty  
    32d2:	27 04       	beq   0x32d8 <L138>
    32d4:	ee f3 00 00 	ldx   [0,sp]

0x000032d8 <L138>:
    32d8:	ee 00       	ldx   0,x

0x000032da <LBE4>:
    32da:	ed e0 12    	ldy   18,x
    32dd:	b7 54       	tfr   x,d
    32df:	15 eb 00 0c 	jsr   [12,y]
    32e3:	8c ff ff    	cpd   #0xffff <.stab+0x7cb>
    32e6:	26 11       	bne   0x32f9 <L136>
    32e8:	ce 00 00    	clrx  

0x000032eb <LBB6>:
    32eb:	ed 80       	ldy   0,sp
    32ed:	27 04       	beq   0x32f3 <L142>
    32ef:	ee f3 00 00 	ldx   [0,sp]

0x000032f3 <L142>:
    32f3:	ec 04       	ldd   4,x
    32f5:	ca 04       	orab  #0x4
    32f7:	6c 04       	std   4,x

0x000032f9 <L136>:
    32f9:	ec 80       	ldd   0,sp

0x000032fb <LBE2>:
    32fb:	1b 82       	leas  2,sp
    32fd:	3d          	rts   

0x000032fe <___10istrstreamiPc>:
    32fe:	1b 96       	leas  -10,sp
    3300:	6c 88       	std   8,sp
    3302:	ec 8c       	ldd   12,sp
    3304:	27 12       	beq   0x3318 <L162>
    3306:	ed 88       	ldy   8,sp
    3308:	1a e8 1a    	leax  26,y
    330b:	6e e8 16    	stx   22,y
    330e:	6e f3 00 08 	stx   [8,sp]
    3312:	ec e8 16    	ldd   22,y
    3315:	16 3b c8    	jsr   0x3bc8 <___3ios>

0x00003318 <L162>:
    3318:	18 00 80 00 	movw  #0x0 <*ABS*>,0,sp
    331c:	00 
    331d:	ed 8e       	ldy   14,sp
    331f:	6d 82       	sty   2,sp
    3321:	18 00 84 00 	movw  #0x0 <*ABS*>,4,sp
    3325:	00 
    3326:	18 00 86 00 	movw  #0x0 <*ABS*>,6,sp
    332a:	00 
    332b:	ec 88       	ldd   8,sp
    332d:	16 3b e7    	jsr   0x3be7 <___13strstreambaseiPciT2>

0x00003330 <LBB2>:
    3330:	ec 88       	ldd   8,sp
    3332:	c3 00 02    	addd  #0x2 <err_under>

0x00003335 <LBE2>:
    3335:	ed 88       	ldy   8,sp
    3337:	1a e8 16    	leax  22,y
    333a:	18 00 80 00 	movw  #0x0 <*ABS*>,0,sp
    333e:	00 
    333f:	6c 82       	std   2,sp
    3341:	b7 54       	tfr   x,d
    3343:	16 2a fc    	jsr   0x2afc <___7istreamiP9streambuf>
    3346:	ee f3 00 08 	ldx   [8,sp]
    334a:	18 00 0e 40 	movw  #0x40a6 <___vt_10istrstream$3ios>,14,x
    334e:	a6 

0x0000334f <LBB4>:
    334f:	ec 88       	ldd   8,sp
    3351:	1b 8a       	leas  10,sp
    3353:	3d          	rts   

0x00003354 <__$_10istrstream>:
    3354:	1b 9c       	leas  -4,sp
    3356:	6c 82       	std   2,sp
    3358:	ee f3 00 02 	ldx   [2,sp]
    335c:	18 00 0e 40 	movw  #0x40a6 <___vt_10istrstream$3ios>,14,x
    3360:	a6 

0x00003361 <LBB2>:
    3361:	b7 46       	tfr   d,y
    3363:	1a e8 16    	leax  22,y
    3366:	18 00 80 00 	movw  #0x0 <*ABS*>,0,sp
    336a:	00 
    336b:	b7 54       	tfr   x,d
    336d:	16 33 e6    	jsr   0x33e6 <__$_7istream>
    3370:	18 00 80 00 	movw  #0x0 <*ABS*>,0,sp
    3374:	00 
    3375:	ec 82       	ldd   2,sp
    3377:	16 3c 38    	jsr   0x3c38 <__$_13strstreambase>
    337a:	ec 86       	ldd   6,sp
    337c:	87          	clra  
    337d:	c4 02       	andb  #0x2
    337f:	8c 00 00    	tstd  
    3382:	27 0c       	beq   0x3390 <L163>
    3384:	ec f3 00 02 	ldd   [2,sp]
    3388:	18 00 80 00 	movw  #0x0 <*ABS*>,0,sp
    338c:	00 
    338d:	16 3c 7e    	jsr   0x3c7e <__$_3ios>

0x00003390 <L163>:
    3390:	ec 86       	ldd   6,sp
    3392:	87          	clra  
    3393:	c4 01       	andb  #0x1
    3395:	8c 00 00    	tstd  
    3398:	27 05       	beq   0x339f <L164>
    339a:	ec 82       	ldd   2,sp
    339c:	16 26 ce    	jsr   0x26ce <___builtin_delete>

0x0000339f <L164>:
    339f:	1b 84       	leas  4,sp
    33a1:	3d          	rts   

0x000033a2 <Lscope0>:
    33a2:	c3 ff e6    	addd  #0xffe6 <.stab+0x7b2>
    33a5:	06 33 54    	jmp   0x3354 <__$_10istrstream>

0x000033a8 <__$_7ostream>:
    33a8:	1b 9c       	leas  -4,sp
    33aa:	6c 82       	std   2,sp
    33ac:	ee f3 00 02 	ldx   [2,sp]
    33b0:	18 00 0e 40 	movw  #0x40ac <___vt_7ostream$3ios>,14,x
    33b4:	ac 

0x000033b5 <LBB2>:
    33b5:	16 32 c6    	jsr   0x32c6 <_flush__7ostream>

0x000033b8 <LBE2>:
    33b8:	ec 86       	ldd   6,sp
    33ba:	87          	clra  
    33bb:	c4 02       	andb  #0x2
    33bd:	8c 00 00    	tstd  
    33c0:	27 0c       	beq   0x33ce <L137>
    33c2:	ec f3 00 02 	ldd   [2,sp]
    33c6:	18 00 80 00 	movw  #0x0 <*ABS*>,0,sp
    33ca:	00 
    33cb:	16 3c 7e    	jsr   0x3c7e <__$_3ios>

0x000033ce <L137>:
    33ce:	ec 86       	ldd   6,sp
    33d0:	87          	clra  
    33d1:	c4 01       	andb  #0x1
    33d3:	8c 00 00    	tstd  
    33d6:	27 05       	beq   0x33dd <L138>
    33d8:	ec 82       	ldd   2,sp
    33da:	16 26 ce    	jsr   0x26ce <___builtin_delete>

0x000033dd <L138>:
    33dd:	1b 84       	leas  4,sp
    33df:	3d          	rts   

0x000033e0 <Lscope0>:
    33e0:	c3 ff fe    	addd  #0xfffe <.stab+0x7ca>
    33e3:	06 33 a8    	jmp   0x33a8 <__$_7ostream>

0x000033e6 <__$_7istream>:
    33e6:	1b 9c       	leas  -4,sp
    33e8:	6c 82       	std   2,sp
    33ea:	ee f3 00 02 	ldx   [2,sp]
    33ee:	18 00 0e 40 	movw  #0x40b2 <___vt_7istream$3ios>,14,x
    33f2:	b2 

0x000033f3 <LBB2>:
    33f3:	ec 86       	ldd   6,sp
    33f5:	87          	clra  
    33f6:	c4 02       	andb  #0x2
    33f8:	8c 00 00    	tstd  
    33fb:	27 0c       	beq   0x3409 <L137>
    33fd:	ec f3 00 02 	ldd   [2,sp]
    3401:	18 00 80 00 	movw  #0x0 <*ABS*>,0,sp
    3405:	00 
    3406:	16 3c 7e    	jsr   0x3c7e <__$_3ios>

0x00003409 <L137>:
    3409:	ec 86       	ldd   6,sp
    340b:	87          	clra  
    340c:	c4 01       	andb  #0x1
    340e:	8c 00 00    	tstd  
    3411:	27 05       	beq   0x3418 <L138>
    3413:	ec 82       	ldd   2,sp
    3415:	16 26 ce    	jsr   0x26ce <___builtin_delete>

0x00003418 <L138>:
    3418:	1b 84       	leas  4,sp
    341a:	3d          	rts   

0x0000341b <Lscope0>:
    341b:	c3 ff fc    	addd  #0xfffc <.stab+0x7c8>
    341e:	06 33 e6    	jmp   0x33e6 <__$_7istream>

0x00003421 <___3iosP9streambuf>:
    3421:	1b 9a       	leas  -6,sp
    3423:	6c 84       	std   4,sp
    3425:	cc 40 eb    	ldd   #0x40eb <___vt_3ios>
    3428:	ed 84       	ldy   4,sp
    342a:	6c 4e       	std   14,y

0x0000342c <LBB2>:
    342c:	18 02 88 80 	movw  8,sp,0,sp
    3430:	18 00 82 00 	movw  #0x0 <*ABS*>,2,sp
    3434:	00 
    3435:	b7 64       	tfr   y,d
    3437:	16 3c 95    	jsr   0x3c95 <_init__3iosP9streambufP7ostream>

0x0000343a <LBE2>:
    343a:	ec 84       	ldd   4,sp
    343c:	1b 86       	leas  6,sp
    343e:	3d          	rts   

0x0000343f <_opfx__7ostream>:
    343f:	1b 9e       	leas  -2,sp
    3441:	6c 80       	std   0,sp
    3443:	87 c7       	clrd  

0x00003445 <LBB2>:
    3445:	ed 80       	ldy   0,sp
    3447:	27 04       	beq   0x344d <L138>
    3449:	ec f3 00 00 	ldd   [0,sp]

0x0000344d <L138>:
    344d:	ce 00 00    	clrx  
    3450:	b7 46       	tfr   d,y
    3452:	ec 44       	ldd   4,y
    3454:	26 03       	bne   0x3459 <L139>
    3456:	ce 00 01    	ldx   #0x1 <err_over>

0x00003459 <L139>:
    3459:	8e 00 00    	tstx  
    345c:	27 1f       	beq   0x347d <L136>
    345e:	ce 00 00    	clrx  

0x00003461 <LBB6>:
    3461:	ed 80       	ldy   0,sp
    3463:	27 04       	beq   0x3469 <L144>
    3465:	ee f3 00 00 	ldx   [0,sp]

0x00003469 <L144>:
    3469:	ec 02       	ldd   2,x

0x0000346b <LBE8>:
    346b:	27 10       	beq   0x347d <L136>
    346d:	ce 00 00    	clrx  

0x00003470 <LBB10>:
    3470:	ed 80       	ldy   0,sp
    3472:	27 04       	beq   0x3478 <L147>
    3474:	ee f3 00 00 	ldx   [0,sp]

0x00003478 <L147>:
    3478:	ec 02       	ldd   2,x

0x0000347a <LBE11>:
    347a:	16 32 c6    	jsr   0x32c6 <_flush__7ostream>

0x0000347d <L136>:
    347d:	ce 00 00    	clrx  

0x00003480 <LBE3>:
    3480:	ed 80       	ldy   0,sp
    3482:	27 04       	beq   0x3488 <L150>
    3484:	ee f3 00 00 	ldx   [0,sp]

0x00003488 <L150>:
    3488:	87 c7       	clrd  
    348a:	ed 04       	ldy   4,x
    348c:	26 03       	bne   0x3491 <L151>
    348e:	cc 00 01    	ldd   #0x1 <err_over>

0x00003491 <L151>:
    3491:	1b 82       	leas  2,sp
    3493:	3d          	rts   

0x00003494 <_puts__7ostreamPCcT1>:
    3494:	1b 90       	leas  -16,sp
    3496:	6c 8e       	std   14,sp

0x00003498 <LBB2>:
    3498:	ec f0 14    	ldd   20,sp
    349b:	27 05       	beq   0x34a2 <L136>
    349d:	16 3c c5    	jsr   0x3cc5 <_strlen__FPCc>
    34a0:	20 02       	bra   0x34a4 <L220>

0x000034a2 <L136>:
    34a2:	87 c7       	clrd  

0x000034a4 <L220>:
    34a4:	6c 8c       	std   12,sp
    34a6:	ed f0 12    	ldy   18,sp
    34a9:	27 07       	beq   0x34b2 <L138>
    34ab:	b7 64       	tfr   y,d
    34ad:	16 3c c5    	jsr   0x3cc5 <_strlen__FPCc>
    34b0:	20 02       	bra   0x34b4 <L221>

0x000034b2 <L138>:
    34b2:	87 c7       	clrd  

0x000034b4 <L221>:
    34b4:	6c 8a       	std   10,sp
    34b6:	cd 00 00    	clry  
    34b9:	6d 84       	sty   4,sp
    34bb:	ed 8e       	ldy   14,sp
    34bd:	27 06       	beq   0x34c5 <L141>
    34bf:	ed f3 00 0e 	ldy   [14,sp]
    34c3:	6d 84       	sty   4,sp

0x000034c5 <L141>:
    34c5:	ed 84       	ldy   4,sp
    34c7:	ee 48       	ldx   8,y
    34c9:	87 c7       	clrd  
    34cb:	6c 48       	std   8,y

0x000034cd <LBE3>:
    34cd:	b7 c5       	xgdx  
    34cf:	a3 8c       	subd  12,sp
    34d1:	b7 c5       	xgdx  
    34d3:	b7 54       	tfr   x,d
    34d5:	a3 8a       	subd  10,sp
    34d7:	6c 88       	std   8,sp
    34d9:	2c 04       	bge   0x34df <L143>
    34db:	87 c7       	clrd  
    34dd:	6c 88       	std   8,sp

0x000034df <L143>:
    34df:	ed f0 14    	ldy   20,sp
    34e2:	18 27 00 4e 	lbeq  0x3534 <L144>
    34e6:	ce 00 00    	clrx  
    34e9:	ed 8e       	ldy   14,sp
    34eb:	27 04       	beq   0x34f1 <L146>
    34ed:	ee f3 00 0e 	ldx   [14,sp]

0x000034f1 <L146>:
    34f1:	ec 06       	ldd   6,x

0x000034f3 <LBE6>:
    34f3:	87          	clra  
    34f4:	c4 06       	andb  #0x6
    34f6:	8c 00 00    	tstd  
    34f9:	27 39       	beq   0x3534 <L144>
    34fb:	ce 00 00    	clrx  

0x000034fe <LBB8>:
    34fe:	ed 8e       	ldy   14,sp
    3500:	27 04       	beq   0x3506 <L151>
    3502:	ee f3 00 0e 	ldx   [14,sp]

0x00003506 <L151>:
    3506:	ed 00       	ldy   0,x
    3508:	6d 84       	sty   4,sp

0x0000350a <LBB12>:
    350a:	ee e8 12    	ldx   18,y
    350d:	ec f0 14    	ldd   20,sp
    3510:	6c 80       	std   0,sp
    3512:	ed 8c       	ldy   12,sp
    3514:	6d 82       	sty   2,sp
    3516:	ec 84       	ldd   4,sp
    3518:	15 e3 00 10 	jsr   [16,x]
    351c:	b7 45       	tfr   d,x

0x0000351e <LBE12>:
    351e:	8e ff ff    	cpx   #0xffff <.stab+0x7cb>
    3521:	26 11       	bne   0x3534 <L144>
    3523:	ce 00 00    	clrx  

0x00003526 <LBB14>:
    3526:	ed 8e       	ldy   14,sp
    3528:	27 04       	beq   0x352e <L156>
    352a:	ee f3 00 0e 	ldx   [14,sp]

0x0000352e <L156>:
    352e:	ec 04       	ldd   4,x
    3530:	ca 04       	orab  #0x4
    3532:	6c 04       	std   4,x

0x00003534 <L144>:
    3534:	ec f0 12    	ldd   18,sp
    3537:	18 27 00 4e 	lbeq  0x3589 <L159>
    353b:	ce 00 00    	clrx  
    353e:	ed 8e       	ldy   14,sp
    3540:	27 04       	beq   0x3546 <L161>
    3542:	ee f3 00 0e 	ldx   [14,sp]

0x00003546 <L161>:
    3546:	ec 06       	ldd   6,x

0x00003548 <LBE18>:
    3548:	87          	clra  
    3549:	c4 02       	andb  #0x2
    354b:	8c 00 00    	tstd  
    354e:	27 39       	beq   0x3589 <L159>
    3550:	ce 00 00    	clrx  

0x00003553 <LBB20>:
    3553:	ed 8e       	ldy   14,sp
    3555:	27 04       	beq   0x355b <L166>
    3557:	ee f3 00 0e 	ldx   [14,sp]

0x0000355b <L166>:
    355b:	ed 00       	ldy   0,x
    355d:	6d 84       	sty   4,sp

0x0000355f <LBB24>:
    355f:	ee e8 12    	ldx   18,y
    3562:	ec f0 12    	ldd   18,sp
    3565:	6c 80       	std   0,sp
    3567:	ed 8a       	ldy   10,sp
    3569:	6d 82       	sty   2,sp
    356b:	ec 84       	ldd   4,sp
    356d:	15 e3 00 10 	jsr   [16,x]
    3571:	b7 45       	tfr   d,x

0x00003573 <LBE24>:
    3573:	8e ff ff    	cpx   #0xffff <.stab+0x7cb>
    3576:	26 11       	bne   0x3589 <L159>
    3578:	ce 00 00    	clrx  

0x0000357b <LBB26>:
    357b:	ed 8e       	ldy   14,sp
    357d:	27 04       	beq   0x3583 <L171>
    357f:	ee f3 00 0e 	ldx   [14,sp]

0x00003583 <L171>:
    3583:	ec 04       	ldd   4,x
    3585:	ca 04       	orab  #0x4
    3587:	6c 04       	std   4,x

0x00003589 <L159>:
    3589:	87 c7       	clrd  

0x0000358b <L222>:
    358b:	6c 86       	std   6,sp

0x0000358d <LBB30>:
    358d:	ed 86       	ldy   6,sp
    358f:	ad 88       	cpy   8,sp
    3591:	2c 46       	bge   0x35d9 <L175>
    3593:	ce 00 00    	clrx  

0x00003596 <LBB31>:
    3596:	ed 8e       	ldy   14,sp
    3598:	27 04       	beq   0x359e <L180>
    359a:	ee f3 00 0e 	ldx   [14,sp]

0x0000359e <L180>:
    359e:	ee 00       	ldx   0,x

0x000035a0 <Ltext20>:
    35a0:	cd 00 00    	clry  
    35a3:	6d 84       	sty   4,sp

0x000035a5 <LBE32>:
    35a5:	ed 8e       	ldy   14,sp
    35a7:	27 06       	beq   0x35af <L184>
    35a9:	ed f3 00 0e 	ldy   [14,sp]
    35ad:	6d 84       	sty   4,sp

0x000035af <L184>:
    35af:	ed 84       	ldy   4,sp
    35b1:	e6 4d       	ldab  13,y
    35b3:	87          	clra  
    35b4:	6c 80       	std   0,sp
    35b6:	b7 54       	tfr   x,d
    35b8:	16 2f e1    	jsr   0x2fe1 <_sputc__9streambufi>
    35bb:	8c ff ff    	cpd   #0xffff <.stab+0x7cb>
    35be:	26 11       	bne   0x35d1 <L176>
    35c0:	ce 00 00    	clrx  

0x000035c3 <LBB36>:
    35c3:	ed 8e       	ldy   14,sp
    35c5:	27 04       	beq   0x35cb <L187>
    35c7:	ee f3 00 0e 	ldx   [14,sp]

0x000035cb <L187>:
    35cb:	ec 04       	ldd   4,x
    35cd:	ca 04       	orab  #0x4
    35cf:	6c 04       	std   4,x

0x000035d1 <L176>:
    35d1:	ec 86       	ldd   6,sp
    35d3:	c3 00 01    	incd  
    35d6:	06 35 8b    	jmp   0x358b <L222>

0x000035d9 <L175>:
    35d9:	ed f0 14    	ldy   20,sp
    35dc:	18 27 00 4e 	lbeq  0x362e <L190>
    35e0:	ce 00 00    	clrx  
    35e3:	ed 8e       	ldy   14,sp
    35e5:	27 04       	beq   0x35eb <L192>
    35e7:	ee f3 00 0e 	ldx   [14,sp]

0x000035eb <L192>:
    35eb:	ec 06       	ldd   6,x

0x000035ed <LBE40>:
    35ed:	87          	clra  
    35ee:	c4 06       	andb  #0x6
    35f0:	8c 00 00    	tstd  
    35f3:	26 39       	bne   0x362e <L190>
    35f5:	ce 00 00    	clrx  

0x000035f8 <LBB42>:
    35f8:	ed 8e       	ldy   14,sp
    35fa:	27 04       	beq   0x3600 <L197>
    35fc:	ee f3 00 0e 	ldx   [14,sp]

0x00003600 <L197>:
    3600:	ed 00       	ldy   0,x
    3602:	6d 84       	sty   4,sp

0x00003604 <LBB46>:
    3604:	ee e8 12    	ldx   18,y
    3607:	ec f0 14    	ldd   20,sp
    360a:	6c 80       	std   0,sp
    360c:	ed 8c       	ldy   12,sp
    360e:	6d 82       	sty   2,sp
    3610:	ec 84       	ldd   4,sp
    3612:	15 e3 00 10 	jsr   [16,x]
    3616:	b7 45       	tfr   d,x

0x00003618 <LBE46>:
    3618:	8e ff ff    	cpx   #0xffff <.stab+0x7cb>
    361b:	26 11       	bne   0x362e <L190>
    361d:	ce 00 00    	clrx  

0x00003620 <LBB48>:
    3620:	ed 8e       	ldy   14,sp
    3622:	27 04       	beq   0x3628 <L202>
    3624:	ee f3 00 0e 	ldx   [14,sp]

0x00003628 <L202>:
    3628:	ec 04       	ldd   4,x
    362a:	ca 04       	orab  #0x4
    362c:	6c 04       	std   4,x

0x0000362e <L190>:
    362e:	ec f0 12    	ldd   18,sp
    3631:	18 27 00 4e 	lbeq  0x3683 <L205>
    3635:	ce 00 00    	clrx  
    3638:	ed 8e       	ldy   14,sp
    363a:	27 04       	beq   0x3640 <L207>
    363c:	ee f3 00 0e 	ldx   [14,sp]

0x00003640 <L207>:
    3640:	ec 06       	ldd   6,x

0x00003642 <LBE52>:
    3642:	87          	clra  
    3643:	c4 02       	andb  #0x2
    3645:	8c 00 00    	tstd  
    3648:	26 39       	bne   0x3683 <L205>
    364a:	ce 00 00    	clrx  

0x0000364d <LBB54>:
    364d:	ed 8e       	ldy   14,sp
    364f:	27 04       	beq   0x3655 <L212>
    3651:	ee f3 00 0e 	ldx   [14,sp]

0x00003655 <L212>:
    3655:	ed 00       	ldy   0,x
    3657:	6d 84       	sty   4,sp

0x00003659 <LBB58>:
    3659:	ee e8 12    	ldx   18,y
    365c:	ec f0 12    	ldd   18,sp
    365f:	6c 80       	std   0,sp
    3661:	ed 8a       	ldy   10,sp
    3663:	6d 82       	sty   2,sp
    3665:	ec 84       	ldd   4,sp
    3667:	15 e3 00 10 	jsr   [16,x]
    366b:	b7 45       	tfr   d,x

0x0000366d <LBE58>:
    366d:	8e ff ff    	cpx   #0xffff <.stab+0x7cb>
    3670:	26 11       	bne   0x3683 <L205>
    3672:	ce 00 00    	clrx  

0x00003675 <LBB60>:
    3675:	ed 8e       	ldy   14,sp
    3677:	27 04       	beq   0x367d <L217>
    3679:	ee f3 00 0e 	ldx   [14,sp]

0x0000367d <L217>:
    367d:	ec 04       	ldd   4,x
    367f:	ca 04       	orab  #0x4
    3681:	6c 04       	std   4,x

0x00003683 <L205>:
    3683:	1b f0 10    	leas  16,sp
    3686:	3d          	rts   

0x00003687 <_osfx__7ostream>:
    3687:	1b 9b       	leas  -5,sp
    3689:	6c 83       	std   3,sp

0x0000368b <LBB2>:
    368b:	c7          	clrb  
    368c:	6b 82       	stab  2,sp
    368e:	cd 00 00    	clry  
    3691:	6d 80       	sty   0,sp
    3693:	ed 83       	ldy   3,sp
    3695:	27 06       	beq   0x369d <L139>
    3697:	ed f3 00 03 	ldy   [3,sp]
    369b:	6d 80       	sty   0,sp

0x0000369d <L139>:
    369d:	ce 00 00    	clrx  
    36a0:	ed 80       	ldy   0,sp
    36a2:	ec 44       	ldd   4,y
    36a4:	26 03       	bne   0x36a9 <L140>
    36a6:	ce 00 01    	ldx   #0x1 <err_over>

0x000036a9 <L140>:
    36a9:	8e 00 00    	tstx  
    36ac:	27 19       	beq   0x36c7 <L137>
    36ae:	ce 00 00    	clrx  
    36b1:	ed 83       	ldy   3,sp
    36b3:	27 04       	beq   0x36b9 <L144>
    36b5:	ee f3 00 03 	ldx   [3,sp]

0x000036b9 <L144>:
    36b9:	ec 06       	ldd   6,x

0x000036bb <LBE6>:
    36bb:	84 20       	anda  #0x20
    36bd:	c7          	clrb  
    36be:	8c 00 00    	tstd  
    36c1:	27 04       	beq   0x36c7 <L137>
    36c3:	c6 01       	ldab  #0x1
    36c5:	6b 82       	stab  2,sp

0x000036c7 <L137>:
    36c7:	e7 82       	tst   2,sp
    36c9:	27 05       	beq   0x36d0 <L136>
    36cb:	ec 83       	ldd   3,sp
    36cd:	16 32 c6    	jsr   0x32c6 <_flush__7ostream>

0x000036d0 <L136>:
    36d0:	1b 85       	leas  5,sp
    36d2:	3d          	rts   

0x000036d3 <_ipfx__7istreami>:
    36d3:	1b 99       	leas  -7,sp
    36d5:	6c 85       	std   5,sp

0x000036d7 <LBB2>:
    36d7:	87 c7       	clrd  
    36d9:	ed 85       	ldy   5,sp
    36db:	6c 42       	std   2,y
    36dd:	b7 46       	tfr   d,y
    36df:	6d 80       	sty   0,sp

0x000036e1 <LBB3>:
    36e1:	ed 85       	ldy   5,sp
    36e3:	27 06       	beq   0x36eb <L138>
    36e5:	ed f3 00 05 	ldy   [5,sp]
    36e9:	6d 80       	sty   0,sp

0x000036eb <L138>:
    36eb:	ce 00 00    	clrx  
    36ee:	ed 80       	ldy   0,sp
    36f0:	ec 44       	ldd   4,y
    36f2:	26 03       	bne   0x36f7 <L139>
    36f4:	ce 00 01    	ldx   #0x1 <err_over>

0x000036f7 <L139>:
    36f7:	8e 00 00    	tstx  
    36fa:	26 12       	bne   0x370e <L136>
    36fc:	ce 00 00    	clrx  

0x000036ff <LBB6>:
    36ff:	ed 85       	ldy   5,sp
    3701:	27 04       	beq   0x3707 <L143>
    3703:	ee f3 00 05 	ldx   [5,sp]

0x00003707 <L143>:
    3707:	ec 04       	ldd   4,x
    3709:	ca 02       	orab  #0x2

0x0000370b <LBE6>:
    370b:	06 37 c1    	jmp   0x37c1 <L186>

0x0000370e <L136>:
    370e:	c7          	clrb  
    370f:	6b 84       	stab  4,sp
    3711:	ce 00 00    	clrx  
    3714:	ed 85       	ldy   5,sp
    3716:	27 04       	beq   0x371c <L150>
    3718:	ee f3 00 05 	ldx   [5,sp]

0x0000371c <L150>:
    371c:	ec 02       	ldd   2,x

0x0000371e <LBE11>:
    371e:	27 27       	beq   0x3747 <L148>
    3720:	ec 89       	ldd   9,sp
    3722:	27 1f       	beq   0x3743 <L152>
    3724:	ce 00 00    	clrx  
    3727:	ed 85       	ldy   5,sp
    3729:	27 04       	beq   0x372f <L154>
    372b:	ee f3 00 05 	ldx   [5,sp]

0x0000372f <L154>:
    372f:	ee 00       	ldx   0,x

0x00003731 <LBE13>:
    3731:	ed e0 12    	ldy   18,x
    3734:	b7 54       	tfr   x,d
    3736:	15 eb 00 06 	jsr   [6,y]
    373a:	b7 45       	tfr   d,x
    373c:	ec 89       	ldd   9,sp
    373e:	34          	pshx  
    373f:	ac b1       	cpd   2,sp+
    3741:	2f 04       	ble   0x3747 <L148>

0x00003743 <L152>:
    3743:	c6 01       	ldab  #0x1
    3745:	6b 84       	stab  4,sp

0x00003747 <L148>:
    3747:	e7 84       	tst   4,sp
    3749:	27 10       	beq   0x375b <L147>
    374b:	ce 00 00    	clrx  

0x0000374e <LBB15>:
    374e:	ed 85       	ldy   5,sp
    3750:	27 04       	beq   0x3756 <L158>
    3752:	ee f3 00 05 	ldx   [5,sp]

0x00003756 <L158>:
    3756:	ec 02       	ldd   2,x

0x00003758 <LBE16>:
    3758:	16 32 c6    	jsr   0x32c6 <_flush__7ostream>

0x0000375b <L147>:
    375b:	ec 89       	ldd   9,sp
    375d:	18 26 00 62 	lbne  0x37c3 <L146>
    3761:	ce 00 00    	clrx  
    3764:	ed 85       	ldy   5,sp
    3766:	27 04       	beq   0x376c <L162>
    3768:	ee f3 00 05 	ldx   [5,sp]

0x0000376c <L162>:
    376c:	ec 06       	ldd   6,x

0x0000376e <LBE19>:
    376e:	87          	clra  
    376f:	c4 01       	andb  #0x1
    3771:	d7          	tstb  
    3772:	18 27 00 4d 	lbeq  0x37c3 <L146>

0x00003776 <L165>:
    3776:	ce 00 00    	clrx  

0x00003779 <LBB22>:
    3779:	ed 85       	ldy   5,sp
    377b:	27 04       	beq   0x3781 <L169>
    377d:	ee f3 00 05 	ldx   [5,sp]

0x00003781 <L169>:
    3781:	ec 00       	ldd   0,x

0x00003783 <LBE23>:
    3783:	16 37 e3    	jsr   0x37e3 <_sgetc__9streambuf>
    3786:	6c 82       	std   2,sp
    3788:	16 3b 83    	jsr   0x3b83 <_isspace__Fi>
    378b:	8c 00 00    	tstd  
    378e:	27 1b       	beq   0x37ab <L166>
    3790:	ce 00 00    	clrx  
    3793:	ed 85       	ldy   5,sp
    3795:	27 04       	beq   0x379b <L173>
    3797:	ee f3 00 05 	ldx   [5,sp]

0x0000379b <L173>:
    379b:	ec 00       	ldd   0,x

0x0000379d <LBE25>:
    379d:	16 3c d9    	jsr   0x3cd9 <_stossc__9streambuf>
    37a0:	ed 85       	ldy   5,sp
    37a2:	ec 42       	ldd   2,y
    37a4:	c3 00 01    	incd  
    37a7:	6c 42       	std   2,y

0x000037a9 <LBE22>:
    37a9:	20 cb       	bra   0x3776 <L165>

0x000037ab <L166>:
    37ab:	ec 82       	ldd   2,sp
    37ad:	8c ff ff    	cpd   #0xffff <.stab+0x7cb>
    37b0:	26 11       	bne   0x37c3 <L146>
    37b2:	ce 00 00    	clrx  

0x000037b5 <LBB28>:
    37b5:	ed 85       	ldy   5,sp
    37b7:	27 04       	beq   0x37bd <L178>
    37b9:	ee f3 00 05 	ldx   [5,sp]

0x000037bd <L178>:
    37bd:	ec 04       	ldd   4,x
    37bf:	ca 03       	orab  #0x3

0x000037c1 <L186>:
    37c1:	6c 04       	std   4,x

0x000037c3 <L146>:
    37c3:	cd 00 00    	clry  
    37c6:	6d 80       	sty   0,sp

0x000037c8 <LBE3>:
    37c8:	ed 85       	ldy   5,sp
    37ca:	27 06       	beq   0x37d2 <L182>
    37cc:	ed f3 00 05 	ldy   [5,sp]
    37d0:	6d 80       	sty   0,sp

0x000037d2 <L182>:
    37d2:	ce 00 00    	clrx  
    37d5:	ed 80       	ldy   0,sp
    37d7:	ed 44       	ldy   4,y
    37d9:	26 03       	bne   0x37de <L183>
    37db:	ce 00 01    	ldx   #0x1 <err_over>

0x000037de <L183>:
    37de:	b7 54       	tfr   x,d

0x000037e0 <LBE2>:
    37e0:	1b 87       	leas  7,sp
    37e2:	3d          	rts   

0x000037e3 <_sgetc__9streambuf>:
    37e3:	b7 46       	tfr   d,y

0x000037e5 <LBB2>:
    37e5:	ee 4e       	ldx   14,y
    37e7:	ae e8 10    	cpx   16,y
    37ea:	24 05       	bcc   0x37f1 <L136>
    37ec:	e6 00       	ldab  0,x
    37ee:	87          	clra  
    37ef:	20 09       	bra   0x37fa <L138>

0x000037f1 <L136>:
    37f1:	ee e8 12    	ldx   18,y
    37f4:	b7 64       	tfr   y,d
    37f6:	15 e3 00 12 	jsr   [18,x]

0x000037fa <L138>:
    37fa:	3d          	rts   

0x000037fb <_snextc__9streambuf>:
    37fb:	1b 9e       	leas  -2,sp
    37fd:	6c 80       	std   0,sp

0x000037ff <LBB2>:
    37ff:	b7 46       	tfr   d,y
    3801:	ec 4e       	ldd   14,y
    3803:	ac e8 10    	cpd   16,y
    3806:	25 13       	bcs   0x381b <L136>
    3808:	ee e8 12    	ldx   18,y
    380b:	b7 64       	tfr   y,d
    380d:	15 e3 00 12 	jsr   [18,x]
    3811:	8c ff ff    	cpd   #0xffff <.stab+0x7cb>
    3814:	26 05       	bne   0x381b <L136>
    3816:	cc ff ff    	ldd   #0xffff <.stab+0x7cb>
    3819:	20 0e       	bra   0x3829 <L138>

0x0000381b <L136>:
    381b:	ed 80       	ldy   0,sp
    381d:	ec 4e       	ldd   14,y
    381f:	c3 00 01    	incd  
    3822:	6c 4e       	std   14,y
    3824:	b7 64       	tfr   y,d
    3826:	16 37 e3    	jsr   0x37e3 <_sgetc__9streambuf>

0x00003829 <L138>:
    3829:	1b 82       	leas  2,sp
    382b:	3d          	rts   

0x0000382c <_isdigit__Fi>:
    382c:	cd 00 00    	clry  
    382f:	c3 ff d0    	addd  #0xffd0 <.stab+0x79c>
    3832:	8c 00 09    	cpd   #0x9 <ht>
    3835:	22 03       	bhi   0x383a <L2>
    3837:	cd 00 01    	ldy   #0x1 <err_over>

0x0000383a <L2>:
    383a:	b7 64       	tfr   y,d

0x0000383c <LBE2>:
    383c:	3d          	rts   

0x0000383d <___rs__7istreamRi>:
    383d:	1b 90       	leas  -16,sp
    383f:	6c 8e       	std   14,sp

0x00003841 <LBB2>:
    3841:	18 00 80 00 	movw  #0x0 <*ABS*>,0,sp
    3845:	00 
    3846:	16 36 d3    	jsr   0x36d3 <_ipfx__7istreami>
    3849:	8c 00 00    	tstd  
    384c:	18 27 01 82 	lbeq  0x39d2 <L136>
    3850:	ce 00 00    	clrx  

0x00003853 <LBB4>:
    3853:	ed 8e       	ldy   14,sp
    3855:	27 04       	beq   0x385b <L138>
    3857:	ee f3 00 0e 	ldx   [14,sp]

0x0000385b <L138>:
    385b:	ee 00       	ldx   0,x

0x0000385d <LBE5>:
    385d:	b7 54       	tfr   x,d
    385f:	16 37 e3    	jsr   0x37e3 <_sgetc__9streambuf>
    3862:	6c 8c       	std   12,sp
    3864:	cc ff ff    	ldd   #0xffff <.stab+0x7cb>
    3867:	6c 8a       	std   10,sp
    3869:	ed 8c       	ldy   12,sp
    386b:	8d 00 2d    	cpy   #0x2d <_rsvd26+0x7>
    386e:	27 0a       	beq   0x387a <L144>
    3870:	cc 00 01    	ldd   #0x1 <err_over>
    3873:	6c 8a       	std   10,sp

0x00003875 <LBB7>:
    3875:	8d 00 2b    	cpy   #0x2b <_rsvd26+0x5>
    3878:	26 12       	bne   0x388c <L143>

0x0000387a <L144>:
    387a:	ce 00 00    	clrx  

0x0000387d <LBB8>:
    387d:	ed 8e       	ldy   14,sp
    387f:	27 04       	beq   0x3885 <L146>
    3881:	ee f3 00 0e 	ldx   [14,sp]

0x00003885 <L146>:
    3885:	ec 00       	ldd   0,x

0x00003887 <LBE10>:
    3887:	16 37 fb    	jsr   0x37fb <_snextc__9streambuf>
    388a:	6c 8c       	std   12,sp

0x0000388c <L143>:
    388c:	cc 00 0a    	ldd   #0xa <lf>
    388f:	6c 88       	std   8,sp
    3891:	ce 00 00    	clrx  

0x00003894 <LBB11>:
    3894:	ed 8e       	ldy   14,sp
    3896:	27 04       	beq   0x389c <L151>
    3898:	ee f3 00 0e 	ldx   [14,sp]

0x0000389c <L151>:
    389c:	ec 06       	ldd   6,x

0x0000389e <LBE12>:
    389e:	87          	clra  
    389f:	c4 10       	andb  #0x10
    38a1:	8c 00 00    	tstd  
    38a4:	18 26 00 56 	lbne  0x38fe <L206>
    38a8:	ce 00 00    	clrx  

0x000038ab <LBB14>:
    38ab:	ed 8e       	ldy   14,sp
    38ad:	27 04       	beq   0x38b3 <L157>
    38af:	ee f3 00 0e 	ldx   [14,sp]

0x000038b3 <L157>:
    38b3:	ec 06       	ldd   6,x

0x000038b5 <LBE16>:
    38b5:	87          	clra  
    38b6:	c4 20       	andb  #0x20
    38b8:	8c 00 00    	tstd  
    38bb:	18 26 00 67 	lbne  0x3926 <L154>
    38bf:	ce 00 00    	clrx  

0x000038c2 <LBB18>:
    38c2:	ed 8e       	ldy   14,sp
    38c4:	27 04       	beq   0x38ca <L163>
    38c6:	ee f3 00 0e 	ldx   [14,sp]

0x000038ca <L163>:
    38ca:	ec 06       	ldd   6,x

0x000038cc <LBE20>:
    38cc:	87          	clra  
    38cd:	c4 40       	andb  #0x40
    38cf:	8c 00 00    	tstd  
    38d2:	27 07       	beq   0x38db <L161>
    38d4:	cc 00 10    	ldd   #0x10 <dle>
    38d7:	6c 88       	std   8,sp
    38d9:	20 4b       	bra   0x3926 <L154>

0x000038db <L161>:
    38db:	ed 8c       	ldy   12,sp
    38dd:	8d 00 30    	cpy   #0x30 <_rsvd26+0xa>
    38e0:	26 44       	bne   0x3926 <L154>
    38e2:	ce 00 00    	clrx  

0x000038e5 <LBB24>:
    38e5:	ed 8e       	ldy   14,sp
    38e7:	27 04       	beq   0x38ed <L169>
    38e9:	ee f3 00 0e 	ldx   [14,sp]

0x000038ed <L169>:
    38ed:	ec 00       	ldd   0,x

0x000038ef <LBE25>:
    38ef:	16 37 fb    	jsr   0x37fb <_snextc__9streambuf>
    38f2:	6c 8c       	std   12,sp

0x000038f4 <LBB27>:
    38f4:	b7 46       	tfr   d,y
    38f6:	1a e9 d0    	leax  -48,y
    38f9:	8e 00 07    	cpx   #0x7 <bel>
    38fc:	22 07       	bhi   0x3905 <L172>

0x000038fe <L206>:
    38fe:	cc 00 08    	ldd   #0x8 <bs>
    3901:	6c 88       	std   8,sp
    3903:	20 21       	bra   0x3926 <L154>

0x00003905 <L172>:
    3905:	ec 8c       	ldd   12,sp
    3907:	16 3c f3    	jsr   0x3cf3 <_tolower__Fi>
    390a:	8c 00 78    	cpd   #0x78 <_adr4>
    390d:	26 17       	bne   0x3926 <L154>

0x0000390f <LBB30>:
    390f:	cd 00 10    	ldy   #0x10 <dle>
    3912:	6d 88       	sty   8,sp
    3914:	ce 00 00    	clrx  
    3917:	ed 8e       	ldy   14,sp
    3919:	27 04       	beq   0x391f <L176>
    391b:	ee f3 00 0e 	ldx   [14,sp]

0x0000391f <L176>:
    391f:	ec 00       	ldd   0,x

0x00003921 <LBE31>:
    3921:	16 37 fb    	jsr   0x37fb <_snextc__9streambuf>
    3924:	6c 8c       	std   12,sp

0x00003926 <L154>:
    3926:	87 c7       	clrd  
    3928:	6c 86       	std   6,sp
    392a:	6c 84       	std   4,sp

0x0000392c <LBB33>:
    392c:	ed 8c       	ldy   12,sp
    392e:	8d ff ff    	cpy   #0xffff <.stab+0x7cb>
    3931:	26 10       	bne   0x3943 <L184>
    3933:	b7 45       	tfr   d,x

0x00003935 <LBB34>:
    3935:	ed 8e       	ldy   14,sp
    3937:	27 04       	beq   0x393d <L181>
    3939:	ee f3 00 0e 	ldx   [14,sp]

0x0000393d <L181>:
    393d:	ec 04       	ldd   4,x
    393f:	ca 04       	orab  #0x4
    3941:	6c 04       	std   4,x

0x00003943 <L184>:
    3943:	ec 8c       	ldd   12,sp
    3945:	8c 00 2f    	cpd   #0x2f <_rsvd26+0x9>
    3948:	2f 4f       	ble   0x3999 <L185>
    394a:	b7 46       	tfr   d,y
    394c:	1a e9 d0    	leax  -48,y
    394f:	8e 00 0a    	cpx   #0xa <lf>
    3952:	2f 16       	ble   0x396a <L188>
    3954:	ec 88       	ldd   8,sp
    3956:	8c 00 0a    	cpd   #0xa <lf>
    3959:	2f 0f       	ble   0x396a <L188>
    395b:	b7 64       	tfr   y,d
    395d:	16 3c f3    	jsr   0x3cf3 <_tolower__Fi>
    3960:	b7 46       	tfr   d,y
    3962:	1a e9 a9    	leax  -87,y
    3965:	8e 00 09    	cpx   #0x9 <ht>
    3968:	2f 2f       	ble   0x3999 <L185>

0x0000396a <L188>:
    396a:	ae 88       	cpx   8,sp
    396c:	2c 2b       	bge   0x3999 <L185>
    396e:	ec 84       	ldd   4,sp
    3970:	c3 00 01    	incd  
    3973:	6c 84       	std   4,sp
    3975:	ec 86       	ldd   6,sp
    3977:	ed 88       	ldy   8,sp
    3979:	18 13       	emuls 
    397b:	6c 82       	std   2,sp
    397d:	b7 46       	tfr   d,y
    397f:	b7 54       	tfr   x,d
    3981:	19 ee       	leay  d,y
    3983:	6d 86       	sty   6,sp
    3985:	ce 00 00    	clrx  
    3988:	ed 8e       	ldy   14,sp
    398a:	27 04       	beq   0x3990 <L192>
    398c:	ee f3 00 0e 	ldx   [14,sp]

0x00003990 <L192>:
    3990:	ec 00       	ldd   0,x

0x00003992 <LBE38>:
    3992:	16 37 fb    	jsr   0x37fb <_snextc__9streambuf>
    3995:	6c 8c       	std   12,sp

0x00003997 <LBE37>:
    3997:	20 aa       	bra   0x3943 <L184>

0x00003999 <L185>:
    3999:	ec 84       	ldd   4,sp
    399b:	27 0c       	beq   0x39a9 <L195>
    399d:	ec 8a       	ldd   10,sp
    399f:	ed 86       	ldy   6,sp
    39a1:	18 13       	emuls 
    39a3:	6c f3 00 12 	std   [18,sp]
    39a7:	20 11       	bra   0x39ba <L196>

0x000039a9 <L195>:
    39a9:	ce 00 00    	clrx  

0x000039ac <LBB41>:
    39ac:	ed 8e       	ldy   14,sp
    39ae:	27 04       	beq   0x39b4 <L198>
    39b0:	ee f3 00 0e 	ldx   [14,sp]

0x000039b4 <L198>:
    39b4:	ec 04       	ldd   4,x
    39b6:	ca 02       	orab  #0x2
    39b8:	6c 04       	std   4,x

0x000039ba <L196>:
    39ba:	ec 8c       	ldd   12,sp
    39bc:	8c ff ff    	cpd   #0xffff <.stab+0x7cb>
    39bf:	26 11       	bne   0x39d2 <L136>
    39c1:	ce 00 00    	clrx  

0x000039c4 <LBB45>:
    39c4:	ed 8e       	ldy   14,sp
    39c6:	27 04       	beq   0x39cc <L203>
    39c8:	ee f3 00 0e 	ldx   [14,sp]

0x000039cc <L203>:
    39cc:	ec 04       	ldd   4,x
    39ce:	ca 01       	orab  #0x1
    39d0:	6c 04       	std   4,x

0x000039d2 <L136>:
    39d2:	ec 8e       	ldd   14,sp

0x000039d4 <LBE2>:
    39d4:	1b f0 10    	leas  16,sp
    39d7:	3d          	rts   

0x000039d8 <_puti__7ostreamUii>:
    39d8:	1b f1 df    	leas  -33,sp
    39db:	6c f0 11    	std   17,sp
    39de:	ee f0 23    	ldx   35,sp

0x000039e1 <LBB2>:
    39e1:	fc 40 b8    	ldd   0x40b8 <LC0>
    39e4:	6c f0 13    	std   19,sp
    39e7:	fd 40 ba    	ldy   0x40ba <LC1+0x1>
    39ea:	6d f0 15    	sty   21,sp
    39ed:	19 f0 20    	leay  32,sp
    39f0:	6d 8f       	sty   15,sp
    39f2:	c7          	clrb  
    39f3:	6b f3 00 0f 	stab  [15,sp]
    39f7:	cd 00 00    	clry  
    39fa:	6d 84       	sty   4,sp

0x000039fc <LBB3>:
    39fc:	ed f0 11    	ldy   17,sp
    39ff:	27 06       	beq   0x3a07 <L138>
    3a01:	ed f3 00 11 	ldy   [17,sp]
    3a05:	6d 84       	sty   4,sp

0x00003a07 <L138>:
    3a07:	ed 84       	ldy   4,sp
    3a09:	ec 46       	ldd   6,y

0x00003a0b <LBE4>:
    3a0b:	87          	clra  
    3a0c:	c4 10       	andb  #0x10
    3a0e:	8c 00 00    	tstd  
    3a11:	27 45       	beq   0x3a58 <L136>

0x00003a13 <LBB6>:
    3a13:	cd 00 00    	clry  
    3a16:	6d 84       	sty   4,sp

0x00003a18 <L141>:
    3a18:	b7 54       	tfr   x,d
    3a1a:	c4 07       	andb  #0x7
    3a1c:	cb 30       	addb  #0x30
    3a1e:	6b 88       	stab  8,sp
    3a20:	ed 8f       	ldy   15,sp
    3a22:	6b 6f       	stab  1,-y
    3a24:	6d 8f       	sty   15,sp
    3a26:	b7 54       	tfr   x,d
    3a28:	49          	lsrd  
    3a29:	49          	lsrd  
    3a2a:	49          	lsrd  
    3a2b:	b7 45       	tfr   d,x
    3a2d:	8e 00 00    	tstx  
    3a30:	26 e6       	bne   0x3a18 <L141>

0x00003a32 <LBB7>:
    3a32:	ed f0 11    	ldy   17,sp
    3a35:	27 06       	beq   0x3a3d <L147>
    3a37:	ed f3 00 11 	ldy   [17,sp]
    3a3b:	6d 84       	sty   4,sp

0x00003a3d <L147>:
    3a3d:	ed 84       	ldy   4,sp
    3a3f:	e7 47       	tst   7,y
    3a41:	18 2c 01 03 	lbge  0x3b48 <L150>
    3a45:	e6 88       	ldab  8,sp
    3a47:	c1 30       	cmpb  #0x30
    3a49:	18 27 00 fb 	lbeq  0x3b48 <L150>
    3a4d:	19 f0 13    	leay  19,sp
    3a50:	18 00 80 40 	movw  #0x40b9 <LC1>,0,sp
    3a54:	b9 

0x00003a55 <LBE6>:
    3a55:	06 3b 43    	jmp   0x3b43 <L183>

0x00003a58 <L136>:
    3a58:	cd 00 00    	clry  
    3a5b:	6d 84       	sty   4,sp

0x00003a5d <LBB10>:
    3a5d:	ed f0 11    	ldy   17,sp
    3a60:	27 06       	beq   0x3a68 <L153>
    3a62:	ed f3 00 11 	ldy   [17,sp]
    3a66:	6d 84       	sty   4,sp

0x00003a68 <L153>:
    3a68:	ed 84       	ldy   4,sp
    3a6a:	ec 46       	ldd   6,y

0x00003a6c <LBE12>:
    3a6c:	87          	clra  
    3a6d:	c4 40       	andb  #0x40
    3a6f:	8c 00 00    	tstd  
    3a72:	18 27 00 6f 	lbeq  0x3ae5 <L151>
    3a76:	cd 00 00    	clry  
    3a79:	6d 84       	sty   4,sp

0x00003a7b <LBB14>:
    3a7b:	ed f0 11    	ldy   17,sp
    3a7e:	27 06       	beq   0x3a86 <L159>
    3a80:	ed f3 00 11 	ldy   [17,sp]
    3a84:	6d 84       	sty   4,sp

0x00003a86 <L159>:
    3a86:	ed 84       	ldy   4,sp
    3a88:	ec 46       	ldd   6,y

0x00003a8a <LBE15>:
    3a8a:	84 02       	anda  #0x2
    3a8c:	c7          	clrb  
    3a8d:	cd 40 ce    	ldy   #0x40ce <LC3>
    3a90:	6d 8d       	sty   13,sp
    3a92:	8c 00 00    	tstd  
    3a95:	27 05       	beq   0x3a9c <L156>
    3a97:	cd 40 bb    	ldy   #0x40bb <LC2>
    3a9a:	6d 8d       	sty   13,sp

0x00003a9c <L156>:
    3a9c:	cd 00 00    	clry  
    3a9f:	6d 8b       	sty   11,sp

0x00003aa1 <L162>:
    3aa1:	b7 54       	tfr   x,d
    3aa3:	87          	clra  
    3aa4:	c4 0f       	andb  #0xf
    3aa6:	6c 84       	std   4,sp
    3aa8:	ec 8d       	ldd   13,sp
    3aaa:	e3 84       	addd  4,sp
    3aac:	6c 84       	std   4,sp
    3aae:	ed 8f       	ldy   15,sp
    3ab0:	e6 f3 00 04 	ldab  [4,sp]
    3ab4:	6b 6f       	stab  1,-y
    3ab6:	6d 8f       	sty   15,sp
    3ab8:	b7 54       	tfr   x,d
    3aba:	49          	lsrd  
    3abb:	49          	lsrd  
    3abc:	49          	lsrd  
    3abd:	49          	lsrd  
    3abe:	b7 45       	tfr   d,x
    3ac0:	8e 00 00    	tstx  
    3ac3:	26 dc       	bne   0x3aa1 <L162>

0x00003ac5 <LBB17>:
    3ac5:	ed f0 11    	ldy   17,sp
    3ac8:	27 06       	beq   0x3ad0 <L168>
    3aca:	ed f3 00 11 	ldy   [17,sp]
    3ace:	6d 8b       	sty   11,sp

0x00003ad0 <L168>:
    3ad0:	ed 8b       	ldy   11,sp
    3ad2:	e7 47       	tst   7,y
    3ad4:	18 2c 00 70 	lbge  0x3b48 <L150>
    3ad8:	19 f0 13    	leay  19,sp
    3adb:	ec 8d       	ldd   13,sp
    3add:	c3 00 10    	addd  #0x10 <dle>
    3ae0:	6c 80       	std   0,sp

0x00003ae2 <LBE14>:
    3ae2:	06 3b 43    	jmp   0x3b43 <L183>

0x00003ae5 <L151>:
    3ae5:	cc 00 0a    	ldd   #0xa <lf>
    3ae8:	6c 89       	std   9,sp

0x00003aea <L172>:
    3aea:	b7 54       	tfr   x,d
    3aec:	ed 89       	ldy   9,sp
    3aee:	b7 d6       	exg   x,y
    3af0:	18 10       	idiv  
    3af2:	b7 d6       	exg   x,y
    3af4:	6c 86       	std   6,sp
    3af6:	ed 8f       	ldy   15,sp
    3af8:	e6 87       	ldab  7,sp
    3afa:	ca 30       	orab  #0x30
    3afc:	6b 6f       	stab  1,-y
    3afe:	6d 8f       	sty   15,sp
    3b00:	ed 89       	ldy   9,sp
    3b02:	b7 54       	tfr   x,d
    3b04:	b7 d6       	exg   x,y
    3b06:	18 10       	idiv  
    3b08:	b7 d6       	exg   x,y
    3b0a:	b7 65       	tfr   y,x
    3b0c:	8e 00 00    	tstx  
    3b0f:	26 d9       	bne   0x3aea <L172>

0x00003b11 <LBB21>:
    3b11:	ec f0 25    	ldd   37,sp
    3b14:	2c 0a       	bge   0x3b20 <L176>
    3b16:	19 f0 13    	leay  19,sp
    3b19:	18 00 80 40 	movw  #0x40e1 <LC4>,0,sp
    3b1d:	e1 
    3b1e:	20 23       	bra   0x3b43 <L183>

0x00003b20 <L176>:
    3b20:	ed f0 25    	ldy   37,sp
    3b23:	2f 23       	ble   0x3b48 <L150>
    3b25:	ce 00 00    	clrx  
    3b28:	ed f0 11    	ldy   17,sp
    3b2b:	27 04       	beq   0x3b31 <L180>
    3b2d:	ee f3 00 11 	ldx   [17,sp]

0x00003b31 <L180>:
    3b31:	ec 06       	ldd   6,x

0x00003b33 <LBE24>:
    3b33:	84 04       	anda  #0x4
    3b35:	c7          	clrb  
    3b36:	8c 00 00    	tstd  
    3b39:	27 0d       	beq   0x3b48 <L150>
    3b3b:	19 f0 13    	leay  19,sp
    3b3e:	18 00 80 40 	movw  #0x40e3 <LC5>,0,sp
    3b42:	e3 

0x00003b43 <L183>:
    3b43:	b7 64       	tfr   y,d
    3b45:	16 3d 01    	jsr   0x3d01 <_strcpy__FPcPCc>

0x00003b48 <L150>:
    3b48:	ed 8f       	ldy   15,sp
    3b4a:	6d 80       	sty   0,sp
    3b4c:	1a f0 13    	leax  19,sp
    3b4f:	6e 82       	stx   2,sp
    3b51:	ec f0 11    	ldd   17,sp
    3b54:	16 34 94    	jsr   0x3494 <_puts__7ostreamPCcT1>

0x00003b57 <LBE2>:
    3b57:	1b f0 21    	leas  33,sp
    3b5a:	3d          	rts   

0x00003b5b <_sync__9streambuf>:
    3b5b:	87 c7       	clrd  

0x00003b5d <LBE2>:
    3b5d:	3d          	rts   

0x00003b5e <_overflow__9streambufi>:
    3b5e:	cc ff ff    	ldd   #0xffff <.stab+0x7cb>

0x00003b61 <LBE2>:
    3b61:	3d          	rts   

0x00003b62 <_underflow__9streambuf>:
    3b62:	cc ff ff    	ldd   #0xffff <.stab+0x7cb>

0x00003b65 <LBE2>:
    3b65:	3d          	rts   

0x00003b66 <_memcpy>:
    3b66:	1b 9e       	leas  -2,sp
    3b68:	6c 80       	std   0,sp
    3b6a:	ec 86       	ldd   6,sp

0x00003b6c <LBB2>:
    3b6c:	ee 80       	ldx   0,sp
    3b6e:	ed 84       	ldy   4,sp
    3b70:	20 04       	bra   0x3b76 <L6>

0x00003b72 <L4>:
    3b72:	18 0a 70 30 	movb  1,y+,1,x+

0x00003b76 <L6>:
    3b76:	c3 ff ff    	addd  #0xffff <.stab+0x7cb>
    3b79:	8c ff ff    	cpd   #0xffff <.stab+0x7cb>
    3b7c:	26 f4       	bne   0x3b72 <L4>
    3b7e:	ec 80       	ldd   0,sp

0x00003b80 <LBE2>:
    3b80:	1b 82       	leas  2,sp
    3b82:	3d          	rts   

0x00003b83 <_isspace__Fi>:
    3b83:	8c 00 09    	cpd   #0x9 <ht>
    3b86:	2d 0f       	blt   0x3b97 <L5>
    3b88:	8c 00 0d    	cpd   #0xd <cr>
    3b8b:	2f 05       	ble   0x3b92 <L4>
    3b8d:	8c 00 20    	cpd   #0x20 <_brkct0>
    3b90:	26 05       	bne   0x3b97 <L5>

0x00003b92 <L4>:
    3b92:	cc 00 01    	ldd   #0x1 <err_over>
    3b95:	20 02       	bra   0x3b99 <L8>

0x00003b97 <L5>:
    3b97:	87 c7       	clrd  

0x00003b99 <L8>:
    3b99:	3d          	rts   

0x00003b9a <_sbumpc__9streambuf>:
    3b9a:	1b 9c       	leas  -4,sp
    3b9c:	6c 82       	std   2,sp

0x00003b9e <LBB2>:
    3b9e:	b7 46       	tfr   d,y
    3ba0:	ec 4e       	ldd   14,y
    3ba2:	ac e8 10    	cpd   16,y
    3ba5:	25 13       	bcs   0x3bba <L136>
    3ba7:	ee e8 12    	ldx   18,y
    3baa:	b7 64       	tfr   y,d
    3bac:	15 e3 00 12 	jsr   [18,x]
    3bb0:	8c ff ff    	cpd   #0xffff <.stab+0x7cb>
    3bb3:	26 05       	bne   0x3bba <L136>
    3bb5:	cc ff ff    	ldd   #0xffff <.stab+0x7cb>
    3bb8:	20 0b       	bra   0x3bc5 <L138>

0x00003bba <L136>:
    3bba:	ed 82       	ldy   2,sp
    3bbc:	1a 4e       	leax  14,y
    3bbe:	ed 00       	ldy   0,x
    3bc0:	e6 70       	ldab  1,y+
    3bc2:	87          	clra  
    3bc3:	6d 00       	sty   0,x

0x00003bc5 <L138>:
    3bc5:	1b 84       	leas  4,sp
    3bc7:	3d          	rts   

0x00003bc8 <___3ios>:
    3bc8:	1b 9a       	leas  -6,sp
    3bca:	6c 84       	std   4,sp
    3bcc:	cc 40 eb    	ldd   #0x40eb <___vt_3ios>
    3bcf:	ed 84       	ldy   4,sp
    3bd1:	6c 4e       	std   14,y

0x00003bd3 <LBB2>:
    3bd3:	18 00 80 00 	movw  #0x0 <*ABS*>,0,sp
    3bd7:	00 
    3bd8:	18 00 82 00 	movw  #0x0 <*ABS*>,2,sp
    3bdc:	00 
    3bdd:	b7 64       	tfr   y,d
    3bdf:	16 3c 95    	jsr   0x3c95 <_init__3iosP9streambufP7ostream>

0x00003be2 <LBE2>:
    3be2:	ec 84       	ldd   4,sp
    3be4:	1b 86       	leas  6,sp
    3be6:	3d          	rts   

0x00003be7 <___13strstreambaseiPciT2>:
    3be7:	1b 96       	leas  -10,sp
    3be9:	6c 88       	std   8,sp
    3beb:	ec 8c       	ldd   12,sp
    3bed:	27 0e       	beq   0x3bfd <L162>
    3bef:	ed 88       	ldy   8,sp
    3bf1:	1a e8 16    	leax  22,y
    3bf4:	6e f3 00 08 	stx   [8,sp]
    3bf8:	b7 54       	tfr   x,d
    3bfa:	16 3b c8    	jsr   0x3bc8 <___3ios>

0x00003bfd <L162>:
    3bfd:	ed 88       	ldy   8,sp
    3bff:	6d 86       	sty   6,sp
    3c01:	ee 71       	ldx   2,y+
    3c03:	6d 86       	sty   6,sp
    3c05:	18 00 0e 40 	movw  #0x40e5 <___vt_13strstreambase$3ios>,14,x
    3c09:	e5 
    3c0a:	ed 8e       	ldy   14,sp
    3c0c:	6d 80       	sty   0,sp
    3c0e:	ed f0 10    	ldy   16,sp
    3c11:	6d 82       	sty   2,sp
    3c13:	ed f0 12    	ldy   18,sp
    3c16:	6d 84       	sty   4,sp
    3c18:	ec 86       	ldd   6,sp
    3c1a:	16 3d 14    	jsr   0x3d14 <___12strstreambufPciT1>
    3c1d:	87 c7       	clrd  

0x00003c1f <LBB2>:
    3c1f:	ed 88       	ldy   8,sp
    3c21:	27 04       	beq   0x3c27 <L164>
    3c23:	ec f3 00 08 	ldd   [8,sp]

0x00003c27 <L164>:
    3c27:	ed 86       	ldy   6,sp
    3c29:	6d 80       	sty   0,sp
    3c2b:	18 00 82 00 	movw  #0x0 <*ABS*>,2,sp
    3c2f:	00 
    3c30:	16 3c 95    	jsr   0x3c95 <_init__3iosP9streambufP7ostream>

0x00003c33 <LBE2>:
    3c33:	ec 88       	ldd   8,sp
    3c35:	1b 8a       	leas  10,sp
    3c37:	3d          	rts   

0x00003c38 <__$_13strstreambase>:
    3c38:	1b 9c       	leas  -4,sp
    3c3a:	6c 82       	std   2,sp
    3c3c:	b7 46       	tfr   d,y
    3c3e:	c3 00 02    	addd  #0x2 <err_under>
    3c41:	ee 40       	ldx   0,y
    3c43:	18 00 0e 40 	movw  #0x40e5 <___vt_13strstreambase$3ios>,14,x
    3c47:	e5 

0x00003c48 <LBB2>:
    3c48:	18 00 80 00 	movw  #0x2 <err_under>,0,sp
    3c4c:	02 
    3c4d:	16 3d 39    	jsr   0x3d39 <__$_12strstreambuf>
    3c50:	ec 86       	ldd   6,sp
    3c52:	87          	clra  
    3c53:	c4 02       	andb  #0x2
    3c55:	8c 00 00    	tstd  
    3c58:	27 0c       	beq   0x3c66 <L163>
    3c5a:	ec f3 00 02 	ldd   [2,sp]
    3c5e:	18 00 80 00 	movw  #0x0 <*ABS*>,0,sp
    3c62:	00 
    3c63:	16 3c 7e    	jsr   0x3c7e <__$_3ios>

0x00003c66 <L163>:
    3c66:	ec 86       	ldd   6,sp
    3c68:	87          	clra  
    3c69:	c4 01       	andb  #0x1
    3c6b:	8c 00 00    	tstd  
    3c6e:	27 05       	beq   0x3c75 <L164>
    3c70:	ec 82       	ldd   2,sp
    3c72:	16 26 ce    	jsr   0x26ce <___builtin_delete>

0x00003c75 <L164>:
    3c75:	1b 84       	leas  4,sp
    3c77:	3d          	rts   

0x00003c78 <Lscope0>:
    3c78:	c3 ff ea    	addd  #0xffea <.stab+0x7b6>
    3c7b:	06 3c 38    	jmp   0x3c38 <__$_13strstreambase>

0x00003c7e <__$_3ios>:
    3c7e:	b7 46       	tfr   d,y
    3c80:	ec 82       	ldd   2,sp
    3c82:	18 00 4e 40 	movw  #0x40eb <___vt_3ios>,14,y
    3c86:	eb 

0x00003c87 <LBB2>:
    3c87:	87          	clra  
    3c88:	c4 01       	andb  #0x1
    3c8a:	8c 00 00    	tstd  
    3c8d:	27 05       	beq   0x3c94 <L138>
    3c8f:	b7 64       	tfr   y,d
    3c91:	16 26 ce    	jsr   0x26ce <___builtin_delete>

0x00003c94 <L138>:
    3c94:	3d          	rts   

0x00003c95 <_init__3iosP9streambufP7ostream>:
    3c95:	b7 46       	tfr   d,y
    3c97:	ec 82       	ldd   2,sp

0x00003c99 <LBB2>:
    3c99:	6c 40       	std   0,y
    3c9b:	18 02 84 42 	movw  4,sp,2,y
    3c9f:	8c 00 00    	tstd  
    3ca2:	26 07       	bne   0x3cab <L136>
    3ca4:	18 00 44 00 	movw  #0x4 <eot>,4,y
    3ca8:	04 
    3ca9:	20 05       	bra   0x3cb0 <L137>

0x00003cab <L136>:
    3cab:	18 00 44 00 	movw  #0x0 <*ABS*>,4,y
    3caf:	00 

0x00003cb0 <L137>:
    3cb0:	18 00 46 00 	movw  #0x21 <_brkct1>,6,y
    3cb4:	21 
    3cb5:	18 00 48 00 	movw  #0x0 <*ABS*>,8,y
    3cb9:	00 
    3cba:	18 00 4a 00 	movw  #0x6 <aa_siz>,10,y
    3cbe:	06 
    3cbf:	18 00 4c 00 	movw  #0x20 <_brkct0>,12,y
    3cc3:	20 

0x00003cc4 <LBE2>:
    3cc4:	3d          	rts   

0x00003cc5 <_strlen__FPCc>:
    3cc5:	b7 46       	tfr   d,y

0x00003cc7 <LBB2>:
    3cc7:	b7 65       	tfr   y,x
    3cc9:	e7 40       	tst   0,y
    3ccb:	27 04       	beq   0x3cd1 <L3>

0x00003ccd <L4>:
    3ccd:	e7 60       	tst   1,+y
    3ccf:	26 fc       	bne   0x3ccd <L4>

0x00003cd1 <L3>:
    3cd1:	b7 64       	tfr   y,d
    3cd3:	34          	pshx  
    3cd4:	a3 b1       	subd  2,sp+
    3cd6:	b7 46       	tfr   d,y

0x00003cd8 <LBE2>:
    3cd8:	3d          	rts   

0x00003cd9 <_stossc__9streambuf>:
    3cd9:	b7 46       	tfr   d,y

0x00003cdb <LBB2>:
    3cdb:	ec 4e       	ldd   14,y
    3cdd:	ac e8 10    	cpd   16,y
    3ce0:	25 0b       	bcs   0x3ced <L136>
    3ce2:	ee e8 12    	ldx   18,y
    3ce5:	b7 64       	tfr   y,d
    3ce7:	15 e3 00 12 	jsr   [18,x]
    3ceb:	20 05       	bra   0x3cf2 <L137>

0x00003ced <L136>:
    3ced:	c3 00 01    	incd  
    3cf0:	6c 4e       	std   14,y

0x00003cf2 <L137>:
    3cf2:	3d          	rts   

0x00003cf3 <_tolower__Fi>:
    3cf3:	b7 46       	tfr   d,y
    3cf5:	1a e9 bf    	leax  -65,y
    3cf8:	8e 00 19    	cpx   #0x19 <em>
    3cfb:	22 03       	bhi   0x3d00 <L2>
    3cfd:	c3 00 20    	addd  #0x20 <_brkct0>

0x00003d00 <L2>:
    3d00:	3d          	rts   

0x00003d01 <_strcpy__FPcPCc>:
    3d01:	1b 9e       	leas  -2,sp
    3d03:	b7 46       	tfr   d,y
    3d05:	ee 84       	ldx   4,sp

0x00003d07 <LBB2>:
    3d07:	6d 80       	sty   0,sp

0x00003d09 <L2>:
    3d09:	e6 30       	ldab  1,x+
    3d0b:	6b 70       	stab  1,y+
    3d0d:	26 fa       	bne   0x3d09 <L2>
    3d0f:	ec 80       	ldd   0,sp

0x00003d11 <LBE2>:
    3d11:	1b 82       	leas  2,sp
    3d13:	3d          	rts   

0x00003d14 <___12strstreambufPciT1>:
    3d14:	1b 98       	leas  -8,sp
    3d16:	6c 86       	std   6,sp
    3d18:	16 2f 5f    	jsr   0x2f5f <___9streambuf>
    3d1b:	cc 40 f1    	ldd   #0x40f1 <___vt_12strstreambuf>
    3d1e:	ed 86       	ldy   6,sp
    3d20:	6c e8 12    	std   18,y

0x00003d23 <LBB2>:
    3d23:	ed 8a       	ldy   10,sp
    3d25:	6d 80       	sty   0,sp
    3d27:	ec 8c       	ldd   12,sp
    3d29:	6c 82       	std   2,sp
    3d2b:	ed 8e       	ldy   14,sp
    3d2d:	6d 84       	sty   4,sp
    3d2f:	ec 86       	ldd   6,sp
    3d31:	16 3d 4d    	jsr   0x3d4d <_init__12strstreambufPciT1>

0x00003d34 <LBE2>:
    3d34:	ec 86       	ldd   6,sp
    3d36:	1b 88       	leas  8,sp
    3d38:	3d          	rts   

0x00003d39 <__$_12strstreambuf>:
    3d39:	1b 9e       	leas  -2,sp
    3d3b:	b7 45       	tfr   d,x
    3d3d:	cd 40 f1    	ldy   #0x40f1 <___vt_12strstreambuf>
    3d40:	6d e0 12    	sty   18,x

0x00003d43 <LBB2>:
    3d43:	18 02 84 80 	movw  4,sp,0,sp
    3d47:	16 2f b4    	jsr   0x2fb4 <__$_9streambuf>
    3d4a:	1b 82       	leas  2,sp
    3d4c:	3d          	rts   

0x00003d4d <_init__12strstreambufPciT1>:
    3d4d:	1b 98       	leas  -8,sp
    3d4f:	6c 86       	std   6,sp
    3d51:	ec 8c       	ldd   12,sp

0x00003d53 <LBB2>:
    3d53:	26 05       	bne   0x3d5a <L162>
    3d55:	ec 8a       	ldd   10,sp
    3d57:	16 3c c5    	jsr   0x3cc5 <_strlen__FPCc>

0x00003d5a <L162>:
    3d5a:	ed 8a       	ldy   10,sp
    3d5c:	6d 80       	sty   0,sp
    3d5e:	1a ee       	leax  d,y
    3d60:	6e 82       	stx   2,sp
    3d62:	18 00 84 00 	movw  #0x0 <*ABS*>,4,sp
    3d66:	00 
    3d67:	ec 86       	ldd   6,sp
    3d69:	16 3e 53    	jsr   0x3e53 <_setb__9streambufPcT1i>

0x00003d6c <LBB3>:
    3d6c:	ed 8e       	ldy   14,sp
    3d6e:	27 1e       	beq   0x3d8e <L163>

0x00003d70 <LBB4>:
    3d70:	ed 86       	ldy   6,sp
    3d72:	ec 44       	ldd   4,y

0x00003d74 <LBE5>:
    3d74:	ed 8e       	ldy   14,sp
    3d76:	6d 80       	sty   0,sp
    3d78:	6c 82       	std   2,sp
    3d7a:	ec 86       	ldd   6,sp
    3d7c:	16 2f a7    	jsr   0x2fa7 <_setp__9streambufPcT1>

0x00003d7f <LBB7>:
    3d7f:	ed 86       	ldy   6,sp
    3d81:	ee 44       	ldx   4,y

0x00003d83 <LBE7>:
    3d83:	ec 8e       	ldd   14,sp
    3d85:	34          	pshx  
    3d86:	ac b1       	cpd   2,sp+
    3d88:	23 08       	bls   0x3d92 <L169>
    3d8a:	b7 54       	tfr   x,d

0x00003d8c <LBE4>:
    3d8c:	20 04       	bra   0x3d92 <L169>

0x00003d8e <L163>:
    3d8e:	ed 86       	ldy   6,sp
    3d90:	ec 44       	ldd   4,y

0x00003d92 <L169>:
    3d92:	ed 8a       	ldy   10,sp
    3d94:	6d 80       	sty   0,sp
    3d96:	6d 82       	sty   2,sp
    3d98:	6c 84       	std   4,sp
    3d9a:	ec 86       	ldd   6,sp
    3d9c:	16 2f 97    	jsr   0x2f97 <_setg__9streambufPcN21>

0x00003d9f <LBE2>:
    3d9f:	1b 88       	leas  8,sp
    3da1:	3d          	rts   

0x00003da2 <_overflow__12strstreambufi>:
    3da2:	cc ff ff    	ldd   #0xffff <.stab+0x7cb>

0x00003da5 <LBE2>:
    3da5:	3d          	rts   

0x00003da6 <_underflow__12strstreambuf>:
    3da6:	1b 91       	leas  -15,sp
    3da8:	6c 8d       	std   13,sp

0x00003daa <LBB2>:
    3daa:	b7 46       	tfr   d,y
    3dac:	ed e8 10    	ldy   16,y
    3daf:	6d 86       	sty   6,sp

0x00003db1 <LBB6>:
    3db1:	b7 46       	tfr   d,y
    3db3:	ee 4e       	ldx   14,y

0x00003db5 <LBE6>:
    3db5:	c7          	clrb  
    3db6:	6b 8a       	stab  10,sp
    3db8:	ed 86       	ldy   6,sp
    3dba:	34          	pshx  
    3dbb:	ad b1       	cpy   2,sp+
    3dbd:	23 04       	bls   0x3dc3 <L165>
    3dbf:	c6 01       	ldab  #0x1
    3dc1:	6b 8a       	stab  10,sp

0x00003dc3 <L165>:
    3dc3:	e7 8a       	tst   10,sp
    3dc5:	27 06       	beq   0x3dcd <L162>

0x00003dc7 <LBB10>:
    3dc7:	e6 00       	ldab  0,x
    3dc9:	87          	clra  
    3dca:	06 3e 50    	jmp   0x3e50 <L190>

0x00003dcd <L162>:
    3dcd:	c7          	clrb  
    3dce:	6b 8c       	stab  12,sp

0x00003dd0 <LBB12>:
    3dd0:	ed 8d       	ldy   13,sp
    3dd2:	ee 42       	ldx   2,y

0x00003dd4 <LBE12>:
    3dd4:	27 0a       	beq   0x3de0 <L168>

0x00003dd6 <LBB14>:
    3dd6:	ec 48       	ldd   8,y

0x00003dd8 <LBB16>:
    3dd8:	ac 46       	cpd   6,y
    3dda:	23 04       	bls   0x3de0 <L168>
    3ddc:	c6 01       	ldab  #0x1
    3dde:	6b 8c       	stab  12,sp

0x00003de0 <L168>:
    3de0:	e7 8c       	tst   12,sp
    3de2:	18 27 00 67 	lbeq  0x3e4d <L167>

0x00003de6 <LBB18>:
    3de6:	c7          	clrb  
    3de7:	6b 8b       	stab  11,sp

0x00003de9 <LBB20>:
    3de9:	ed 8d       	ldy   13,sp
    3deb:	ee 4e       	ldx   14,y

0x00003ded <LBE20>:
    3ded:	27 04       	beq   0x3df3 <L174>

0x00003def <LBB22>:
    3def:	ae 46       	cpx   6,y
    3df1:	24 04       	bcc   0x3df7 <L173>

0x00003df3 <L174>:
    3df3:	c6 01       	ldab  #0x1
    3df5:	6b 8b       	stab  11,sp

0x00003df7 <L173>:
    3df7:	e7 8b       	tst   11,sp
    3df9:	27 1c       	beq   0x3e17 <L172>

0x00003dfb <LBB26>:
    3dfb:	ed 8d       	ldy   13,sp
    3dfd:	ed 46       	ldy   6,y
    3dff:	6d 88       	sty   8,sp

0x00003e01 <LBB31>:
    3e01:	ed 8d       	ldy   13,sp
    3e03:	ed 48       	ldy   8,y
    3e05:	6d 86       	sty   6,sp

0x00003e07 <LBE31>:
    3e07:	ed 8d       	ldy   13,sp
    3e09:	ed 42       	ldy   2,y
    3e0b:	6d 80       	sty   0,sp
    3e0d:	ec 88       	ldd   8,sp
    3e0f:	6c 82       	std   2,sp
    3e11:	ed 86       	ldy   6,sp
    3e13:	6d 84       	sty   4,sp

0x00003e15 <LBE26>:
    3e15:	20 28       	bra   0x3e3f <L191>

0x00003e17 <L172>:
    3e17:	ed 8d       	ldy   13,sp
    3e19:	ed 4e       	ldy   14,y
    3e1b:	6d 86       	sty   6,sp

0x00003e1d <LBB37>:
    3e1d:	ed 8d       	ldy   13,sp
    3e1f:	ee 48       	ldx   8,y

0x00003e21 <LBE37>:
    3e21:	c7          	clrb  
    3e22:	6b 88       	stab  8,sp
    3e24:	ed 86       	ldy   6,sp
    3e26:	34          	pshx  
    3e27:	ad b1       	cpy   2,sp+
    3e29:	24 04       	bcc   0x3e2f <L185>
    3e2b:	c6 01       	ldab  #0x1
    3e2d:	6b 88       	stab  8,sp

0x00003e2f <L185>:
    3e2f:	e7 88       	tst   8,sp
    3e31:	27 11       	beq   0x3e44 <L181>

0x00003e33 <LBB39>:
    3e33:	ed 8d       	ldy   13,sp
    3e35:	ed 4c       	ldy   12,y
    3e37:	6d 80       	sty   0,sp
    3e39:	ec 86       	ldd   6,sp
    3e3b:	6c 82       	std   2,sp
    3e3d:	6e 84       	stx   4,sp

0x00003e3f <L191>:
    3e3f:	ec 8d       	ldd   13,sp
    3e41:	16 2f 97    	jsr   0x2f97 <_setg__9streambufPcN21>

0x00003e44 <L181>:
    3e44:	ed 8d       	ldy   13,sp
    3e46:	e6 eb 00 0e 	ldab  [14,y]
    3e4a:	87          	clra  
    3e4b:	20 03       	bra   0x3e50 <L190>

0x00003e4d <L167>:
    3e4d:	cc ff ff    	ldd   #0xffff <.stab+0x7cb>

0x00003e50 <L190>:
    3e50:	1b 8f       	leas  15,sp
    3e52:	3d          	rts   

0x00003e53 <_setb__9streambufPcT1i>:
    3e53:	1b 9e       	leas  -2,sp
    3e55:	6c 80       	std   0,sp

0x00003e57 <LBB2>:
    3e57:	ee f3 00 00 	ldx   [0,sp]
    3e5b:	27 0b       	beq   0x3e68 <L136>
    3e5d:	b7 46       	tfr   d,y
    3e5f:	ee 42       	ldx   2,y
    3e61:	27 05       	beq   0x3e68 <L136>
    3e63:	b7 54       	tfr   x,d
    3e65:	16 26 d2    	jsr   0x26d2 <___builtin_vec_delete>

0x00003e68 <L136>:
    3e68:	ec 84       	ldd   4,sp
    3e6a:	ed 80       	ldy   0,sp
    3e6c:	6c 42       	std   2,y
    3e6e:	ec 86       	ldd   6,sp
    3e70:	6c 44       	std   4,y
    3e72:	ed 88       	ldy   8,sp
    3e74:	6d f3 00 00 	sty   [0,sp]

0x00003e78 <LBE2>:
    3e78:	1b 82       	leas  2,sp
    3e7a:	3d          	rts   

0x00003e7b <___vt_5Ictlr>:
    3e7b:	00          	bgnd  
    3e7c:	00          	bgnd  
    3e7d:	00          	bgnd  
    3e7e:	00          	bgnd  
    3e7f:	10 97       	andcc #0x97

0x00003e81 <___vt_3Isr>:
    3e81:	00          	bgnd  
    3e82:	00          	bgnd  
    3e83:	00          	bgnd  
    3e84:	00          	bgnd  
    3e85:	10 27       	andcc #0x27
    3e87:	10 51       	andcc #0x51

0x00003e89 <LC0>:
    3e89:	00          	bgnd  
    3e8a:	00          	bgnd  
	...

0x00003e8d <___vt_9PwmDriver>:
    3e8d:	00          	bgnd  
    3e8e:	00          	bgnd  
    3e8f:	00          	bgnd  
    3e90:	00          	bgnd  
    3e91:	15 9c       	jsr   -4,sp
    3e93:	15 17       	jsr   -9,x

0x00003e95 <___vt_9HC12Ictlr>:
    3e95:	00          	bgnd  
    3e96:	00          	bgnd  
    3e97:	00          	bgnd  
    3e98:	00          	bgnd  
    3e99:	15 cb       	jsr   0x3ea6 <LC0+0xb>,pc

0x00003e9b <LC0>:
    3e9b:	48          	asla  
    3e9c:	65 6c       	rol   4,-y
    3e9e:	6c 6f       	std   1,-y
    3ea0:	2c 20       	bge   0x3ec2 <LC0+0x7>
    3ea2:	77 6f 72    	asr   0x6f72 <.stab+0x130e>
    3ea5:	6c 64       	std   5,+y
    3ea7:	21 00       	brn   0x3ea9 <___vt_7HC12Spi>

0x00003ea9 <___vt_7HC12Spi>:
    3ea9:	00          	bgnd  
    3eaa:	00          	bgnd  
    3eab:	00          	bgnd  
    3eac:	00          	bgnd  
    3ead:	1b 44       	leas  4,y
    3eaf:	1a a5       	leax  6,+sp
    3eb1:	1a f8 00    	leax  0x3eb4 <___vt_8TestTask+0x1>,pc

0x00003eb3 <___vt_8TestTask>:
    3eb3:	00          	bgnd  
    3eb4:	00          	bgnd  
    3eb5:	00          	bgnd  
    3eb6:	00          	bgnd  
    3eb7:	1b ad       	leas  3,-sp
    3eb9:	1b 5d       	leas  -3,y

0x00003ebb <LC0>:
    3ebb:	48          	asla  
    3ebc:	65 6c       	rol   4,-y
    3ebe:	6c 6f       	std   1,-y
    3ec0:	2c 20       	bge   0x3ee2 <LC3+0xc>
    3ec2:	77 6f 72    	asr   0x6f72 <.stab+0x130e>
    3ec5:	6c 64       	std   5,+y
    3ec7:	21 00       	brn   0x3ec9 <LC1>

0x00003ec9 <LC1>:
    3ec9:	6e 65       	stx   6,+y
    3ecb:	65 64       	rol   5,+y
    3ecd:	20 73       	bra   0x3f42 <___vt_6SciBuf>
    3ecf:	74 61 72    	lsr   0x6172 <.stab+0x50e>
    3ed2:	74 00 20    	lsr   0x20 <_brkct0>

0x00003ed4 <LC2>:
    3ed4:	20 00       	bra   0x3ed6 <LC3>

0x00003ed6 <LC3>:
    3ed6:	6e 65       	stx   6,+y
    3ed8:	65 64       	rol   5,+y
    3eda:	20 64       	bra   0x3f40 <___vt_10AppCmdProc+0x6>
    3edc:	75 74 79    	rol   0x7479 <.stab+0x135>
    3edf:	20 63       	bra   0x3f44 <___vt_6SciBuf+0x2>
    3ee1:	79 63 6c    	clr   0x636c <.stab+0x708>
    3ee4:	65 00       	rol   0,x

0x00003ee6 <LC4>:
    3ee6:	54          	lsrb  
    3ee7:	45          	rola  
    3ee8:	43          	deca  
    3ee9:	3e          	wai   
	...

0x00003eeb <LC5>:
    3eeb:	68 65       	asl   6,+y
    3eed:	6c 6c       	std   4,-y
    3eef:	6f 00       	sts   0,x

0x00003ef1 <LC6>:
    3ef1:	64 75       	lsr   6,y+
    3ef3:	6d 70       	sty   1,y+
	...

0x00003ef6 <LC7>:
    3ef6:	73 65 74    	dec   0x6574 <.stab+0x910>
    3ef9:	74 65 63    	lsr   0x6563 <.stab+0x8ff>
    3efc:	64 75       	lsr   6,y+
    3efe:	74 79 00    	lsr   0x7900 <.stab+0x5bc>

0x00003f01 <LC8>:
    3f01:	73 65 74    	dec   0x6574 <.stab+0x910>
    3f04:	6c 73       	std   4,y+
    3f06:	72 64 75    	inc   0x6475 <.stab+0x811>
    3f09:	74 79 00    	lsr   0x7900 <.stab+0x5bc>

0x00003f0c <LC9>:
    3f0c:	67 65       	asr   6,+y
    3f0e:	74 74 65    	lsr   0x7465 <.stab+0x121>
    3f11:	63 64       	dec   5,+y
    3f13:	75 74 79    	rol   0x7479 <.stab+0x135>
	...

0x00003f17 <LC10>:
    3f17:	67 65       	asr   6,+y
    3f19:	74 6c 73    	lsr   0x6c73 <.stab+0x100f>
    3f1c:	72 64 75    	inc   0x6475 <.stab+0x811>
    3f1f:	74 79 00    	lsr   0x7900 <.stab+0x5bc>

0x00003f22 <___vt_10GetDutyCmd>:
    3f22:	00          	bgnd  
    3f23:	00          	bgnd  
    3f24:	00          	bgnd  
    3f25:	00          	bgnd  
    3f26:	1d 41 00 00 	bclr  0x4100 <___vt_12strstreambuf+0xf>,#0x0

0x00003f28 <___vt_10SetDutyCmd>:
    3f28:	00          	bgnd  
    3f29:	00          	bgnd  
    3f2a:	00          	bgnd  
    3f2b:	00          	bgnd  
    3f2c:	1d 75 00 00 	bclr  0x7500 <.stab+0x1bc>,#0x0

0x00003f2e <___vt_10DumpMemCmd>:
    3f2e:	00          	bgnd  
    3f2f:	00          	bgnd  
    3f30:	00          	bgnd  
    3f31:	00          	bgnd  
    3f32:	1d bc 00 00 	bclr  0xbc00 <.stab+0x11c>,#0x0

0x00003f34 <___vt_8HelloCmd>:
    3f34:	00          	bgnd  
    3f35:	00          	bgnd  
    3f36:	00          	bgnd  
    3f37:	00          	bgnd  
    3f38:	1e 49 ff fc 	brset 0x49ff <.data+0x5a>,#0xfc,0x3f3d <___vt_10AppCmdProc+0x3>
    3f3c:	00 

0x00003f3a <___vt_10AppCmdProc>:
    3f3a:	ff fc 00    	lds   0xfc00 <.stab+0x3cc>
    3f3d:	00          	bgnd  
    3f3e:	1d 35 1d 3b 	bclr  0x351d <LBB12+0x13>,#0x3b

0x00003f42 <___vt_6SciBuf>:
    3f42:	00          	bgnd  
    3f43:	00          	bgnd  
    3f44:	00          	bgnd  
    3f45:	00          	bgnd  
    3f46:	1e fd 30 0a 	brset 0xfd30 <.stab+0x4fc>,#0xa,0x3f7b <LC0+0x3>
    3f4a:	30 
    3f4b:	16 30 1a    	jsr   0x301a <_seekpos__9streambufii>
    3f4e:	1f 91 1f 78 	brclr 0x911f <.stab+0x353>,#0x78,0x3f83 <LC1+0x7>
    3f52:	30 
    3f53:	35          	pshy  
    3f54:	1f 30 30 bc 	brclr 0x3030 <LBB2+0x14>,#0xbc,0x3f8a <LC1+0xe>
    3f58:	31 
    3f59:	24 49       	bcc   0x3fa4 <___vt_9TimerTask$3Isr+0x2>

0x00003f5a <LC0>:
    3f5a:	49          	lsrd  
    3f5b:	8b 49       	adda  #0x49

0x00003f5c <LC1>:
    3f5c:	49          	lsrd  
    3f5d:	8d 00 00    	tsty  

0x00003f5e <___vt_16PriorityTaskList>:
    3f5e:	00          	bgnd  
    3f5f:	00          	bgnd  
    3f60:	00          	bgnd  
    3f61:	00          	bgnd  
    3f62:	21 8c       	brn   0x3ef0 <LC5+0x5>
    3f64:	20 a7       	bra   0x3f0d <LC9+0x1>

0x00003f66 <___vt_3Spi>:
    3f66:	00          	bgnd  
    3f67:	00          	bgnd  
    3f68:	00          	bgnd  
    3f69:	00          	bgnd  
    3f6a:	21 ad       	brn   0x3f19 <LC10+0x2>
    3f6c:	21 df       	brn   0x3f4d <___vt_6SciBuf+0xb>
    3f6e:	21 de       	brn   0x3f4e <___vt_6SciBuf+0xc>

0x00003f70 <___vt_5Mutex>:
    3f70:	00          	bgnd  
    3f71:	00          	bgnd  
    3f72:	00          	bgnd  
    3f73:	00          	bgnd  
    3f74:	22 3e       	bhi   0x3fb4 <___vt_13HC12TimerTask$3Isr+0x2>
    3f76:	28 e7       	bvc   0x3f5f <___vt_16PriorityTaskList+0x1>

0x00003f78 <LC0>:
    3f78:	08          	inx   
    3f79:	20 08       	bra   0x3f83 <LC1+0x7>
	...

0x00003f7c <LC1>:
    3f7c:	75 6e 6b    	rol   0x6e6b <.stab+0x1207>
    3f7f:	6e 6f       	stx   1,-y
    3f81:	77 6e 20    	asr   0x6e20 <.stab+0x11bc>
    3f84:	63 6f       	dec   1,-y
    3f86:	6d 6d       	sty   3,-y
    3f88:	61 6e       	com   2,-y
    3f8a:	64 00       	lsr   0,x

0x00003f8c <LC2>:
    3f8c:	45          	rola  
    3f8d:	72 72 6f    	inc   0x726f <.stab+0x160b>
    3f90:	72 3a 20    	inc   0x3a20 <L141+0x8>
	...

0x00003f94 <___vt_3Cmd>:
    3f94:	00          	bgnd  
    3f95:	00          	bgnd  
    3f96:	00          	bgnd  
    3f97:	00          	bgnd  
    3f98:	22 56       	bhi   0x3ff0 <Lhalves.90+0x12>

0x00003f9a <___vt_7Ltc1404>:
    3f9a:	00          	bgnd  
    3f9b:	00          	bgnd  
    3f9c:	00          	bgnd  
    3f9d:	00          	bgnd  
    3f9e:	24 e5       	bcc   0x3f85 <LC1+0x9>
    3fa0:	24 76       	bcc   0x4018 <Lhalves.90+0x3a>

0x00003fa2 <___vt_9TimerTask$3Isr>:
    3fa2:	ff f8 00    	lds   0xf800 <.stab+0x410>
    3fa5:	00          	bgnd  
    3fa6:	26 94       	bne   0x3f3c <___vt_10AppCmdProc+0x2>
    3fa8:	26 9a       	bne   0x3f44 <___vt_6SciBuf+0x2>

0x00003faa <___vt_9TimerTask>:
    3faa:	00          	bgnd  
    3fab:	00          	bgnd  
    3fac:	00          	bgnd  
    3fad:	00          	bgnd  
    3fae:	25 df       	bcs   0x3f8f <LC2+0x3>
    3fb0:	26 3e       	bne   0x3ff0 <Lhalves.90+0x12>

0x00003fb2 <___vt_13HC12TimerTask$3Isr>:
    3fb2:	ff f8 00    	lds   0xf800 <.stab+0x410>
    3fb5:	00          	bgnd  
    3fb6:	27 54       	beq   0x400c <Lhalves.90+0x2e>
    3fb8:	27 5a       	beq   0x4014 <Lhalves.90+0x36>

0x00003fba <___vt_13HC12TimerTask>:
    3fba:	00          	bgnd  
    3fbb:	00          	bgnd  
    3fbc:	00          	bgnd  
    3fbd:	00          	bgnd  
    3fbe:	27 22       	beq   0x3fe2 <Lhalves.90+0x4>
    3fc0:	26 3e       	bne   0x4000 <Lhalves.90+0x22>

0x00003fc2 <___vt_13DeltaTaskList>:
    3fc2:	00          	bgnd  
    3fc3:	00          	bgnd  
    3fc4:	00          	bgnd  
    3fc5:	00          	bgnd  
    3fc6:	28 82       	bvc   0x3f4a <___vt_6SciBuf+0x8>
    3fc8:	27 7a       	beq   0x4044 <Lhalves.90+0x66>

0x00003fca <___vt_8TaskList>:
    3fca:	00          	bgnd  
    3fcb:	00          	bgnd  
    3fcc:	00          	bgnd  
    3fcd:	00          	bgnd  
    3fce:	28 d0       	bvc   0x3fa0 <___vt_7Ltc1404+0x6>
    3fd0:	28 e7       	bvc   0x3fb9 <___vt_13HC12TimerTask$3Isr+0x7>

0x00003fd2 <___vt_4Task>:
    3fd2:	00          	bgnd  
    3fd3:	00          	bgnd  
    3fd4:	00          	bgnd  
    3fd5:	00          	bgnd  
    3fd6:	2a 1b       	bpl   0x3ff3 <Lhalves.90+0x15>
    3fd8:	29 8d       	bvs   0x3f67 <___vt_3Spi+0x1>

0x00003fda <LC0>:
    3fda:	2b 00       	bmi   0x3fdc <LC1>

0x00003fdc <LC1>:
    3fdc:	2d 00       	blt   0x3fde <Lhalves.90>

0x00003fde <Lhalves.90>:
    3fde:	3f          	swi   
    3fdf:	00          	bgnd  
    3fe0:	00          	bgnd  
    3fe1:	00          	bgnd  
    3fe2:	3d          	rts   
    3fe3:	4c cc cd    	bset  0xcc <_rsvdC8+0x4>,#0xcd
    3fe6:	3b          	pshd  
    3fe7:	a3 d7       	subd  0x3fe0 <Lhalves.90+0x2>,pc
    3fe9:	0a          	rtc   
    3fea:	3a          	puld  
    3feb:	03          	dey   
    3fec:	12          	mul   
    3fed:	6f 38       	sts   8,x-
    3fef:	51          	comb  
    3ff0:	b7 17       	tfr   b,sp
    3ff2:	36          	psha  
    3ff3:	a7          	nop   
    3ff4:	c5 ac       	bitb  #0xac
    3ff6:	35          	pshy  
    3ff7:	06 37 bd    	jmp   0x37bd <L178>
    3ffa:	33          	pulb  
    3ffb:	56          	rorb  
    3ffc:	bf 95 31    	cps   0x9531 <.stab+0x1ad>
    3fff:	ab cc       	adda  0x400d <Lhalves.90+0x2f>,pc
    4001:	77 30 09    	asr   0x3009 <L138+0x2>
    4004:	70 5f 2e    	neg   0x5f2e <.stab+0x2ca>
    4007:	5b e6       	stab  0xe6 <_rsvdE0+0x6>
    4009:	ff 2c af    	lds   0x2caf <LBE12+0x4>
    400c:	eb ff       	addb  [d,pc]
    400e:	2b 0c       	bmi   0x401c <Lhalves.90+0x3e>
    4010:	bc cc 29    	cpd   0xcc29 <.stab+0x4a9>
    4013:	61 2e       	com   2,-x
    4015:	13          	emul  
    4016:	27 b4       	beq   0x3fcc <___vt_8TaskList+0x2>
    4018:	24 dc       	bcc   0x3ff6 <Lhalves.90+0x18>
    401a:	26 10       	bne   0x402c <Lhalves.90+0x4e>
    401c:	1d 7d 24 66 	bclr  0x7d24 <_heap_top+0x124>,#0x66
    4020:	95 95       	bita  0x95 <_tc2+0x1>
    4022:	22 b8       	bhi   0x3fdc <LC1>
    4024:	77 aa 21    	asr   0xaa21 <.stab+0x881>
    4027:	13          	emul  
    4028:	92 ef       	sbca  0xef <_rsvdE0+0xf>
    402a:	1f 6c 1e 4a 	brclr 0x6c1e <.stab+0xfba>,#0x4a,0x404c <Lhalves.90+0x6e>
    402e:	1d 
    402f:	bc e5 08    	cpd   0xe508 <.stab+0xcc0>
    4032:	1c 17 1d a0 	bset  0x171d <vsr9+0x6>,#0xa0
    4036:	1a 71       	leax  2,y+
    4038:	c9 01       	adcb  #0x1
    403a:	18 c1       	trap  0xc1
    403c:	6d 9a       	sty   -6,sp
    403e:	17 1a       	jsr   0x1a <sub>
    4040:	be 15 15    	cpx   0x1515 <LBE6+0x3>
    4043:	77 96 88    	asr   0x9688 <.stab+0x304>
    4046:	13          	emul  
    4047:	c6 12       	ldab  #0x12
    4049:	06 12 1e    	jmp   0x121e <LBB6+0x16>
    404c:	74 d2 10    	lsr   0xd210 <.stab+0x454>
    404f:	7d 87 b6    	sty   0x87b6 <.stab+0x746>
    4052:	0e ca d2 f8 	brset 0x405e <Lhalves.90+0x80>,pc,#0xd2,0x404e <Lhalves.90+0x70>
    4056:	0d 22 42    	bclr  3,+x,#0x42
    4059:	60 0b       	neg   11,x
    405b:	81 ce       	cmpa  #0xce
    405d:	b3 09 cf    	subd  0x9cf <_ddrdlc+0x8d0>
    4060:	b1 1f 08    	cmpa  0x1f08 <__$_6SciBuf+0xb>
    4063:	26 27       	bne   0x408c <LC2+0x2>
    4065:	4c 06 84    	bset  0x6 <aa_siz>,#0x84
    4068:	ec 3d       	ldd   3,x-
    406a:	04          	04
    406b:	d4 ad       	andb  0xad <_timtst>
    406d:	2e 03       	bgt   0x4072 <Lhalves.90+0x94>
    406f:	2a 24       	bpl   0x4095 <___vt_9streambuf+0x7>
    4071:	25 01       	bcs   0x4074 <Lhalves.90+0x96>
    4073:	88 1c       	eora  #0x1c
    4075:	ea 00       	orab  0,x
    4077:	36          	psha  
    4078:	71 f7 00    	com   0xf700 <.stab+0x310>
    407b:	05 71       	jmp   2,y+
    407d:	cc 41 20    	ldd   #0x4120 <___hc12_tstsf+0xd>

0x0000407e <LC2>:
    407e:	41          	coma  
    407f:	20 00       	bra   0x4081 <LC2+0x3>
	...

0x00004082 <LC0>:
    4082:	00          	bgnd  
    4083:	00          	bgnd  
	...

0x00004086 <LC1>:
    4086:	41          	coma  
    4087:	20 00       	bra   0x4089 <LC1+0x3>
	...

0x0000408a <LC2>:
    408a:	3f          	swi   
    408b:	80 00       	suba  #0x0
	...

0x0000408e <___vt_9streambuf>:
    408e:	00          	bgnd  
    408f:	00          	bgnd  
    4090:	00          	bgnd  
    4091:	00          	bgnd  
    4092:	2f b4       	ble   0x4048 <Lhalves.90+0x6a>
    4094:	30          	pulx  
    4095:	0a          	rtc   
    4096:	30          	pulx  
    4097:	16 30 1a    	jsr   0x301a <_seekpos__9streambufii>
    409a:	3b          	pshd  
    409b:	5b 3b       	stab  0x3b <_rsvd26+0x15>
    409d:	5e 30       	stx   0x30 <_rsvd26+0xa>
    409f:	35          	pshy  
    40a0:	3b          	pshd  
    40a1:	62 30       	inc   1,x+
    40a3:	bc 31 24    	cpd   0x3124 <_pbackfail__9streambufi>

0x000040a6 <___vt_10istrstream$3ios>:
    40a6:	ff e6 00    	lds   0xe600 <.stab+0xdb8>
    40a9:	00          	bgnd  
    40aa:	33          	pulb  
    40ab:	a2 ff       	sbca  [d,pc]

0x000040ac <___vt_7ostream$3ios>:
    40ac:	ff fe 00    	lds   0xfe00 <.stab+0x5cc>
    40af:	00          	bgnd  
    40b0:	33          	pulb  
    40b1:	e0 ff       	subb  [d,pc]

0x000040b2 <___vt_7istream$3ios>:
    40b2:	ff fc 00    	lds   0xfc00 <.stab+0x3cc>
    40b5:	00          	bgnd  
    40b6:	34          	pshx  
    40b7:	1b 00       	leas  0,x

0x000040b8 <LC0>:
	...

0x000040b9 <LC1>:
    40b9:	30          	pulx  
	...

0x000040bb <LC2>:
    40bb:	30          	pulx  
    40bc:	31          	puly  
    40bd:	32          	pula  
    40be:	33          	pulb  
    40bf:	34          	pshx  
    40c0:	35          	pshy  
    40c1:	36          	psha  
    40c2:	37          	pshb  
    40c3:	38          	pulc  
    40c4:	39          	pshc  
    40c5:	41          	coma  
    40c6:	42          	inca  
    40c7:	43          	deca  
    40c8:	44          	lsra  
    40c9:	45          	rola  
    40ca:	46          	rora  
    40cb:	30          	pulx  
    40cc:	58          	aslb  
	...

0x000040ce <LC3>:
    40ce:	30          	pulx  
    40cf:	31          	puly  
    40d0:	32          	pula  
    40d1:	33          	pulb  
    40d2:	34          	pshx  
    40d3:	35          	pshy  
    40d4:	36          	psha  
    40d5:	37          	pshb  
    40d6:	38          	pulc  
    40d7:	39          	pshc  
    40d8:	61 62       	com   3,+y
    40da:	63 64       	dec   5,+y
    40dc:	65 66       	rol   7,+y
    40de:	30          	pulx  
    40df:	78 00 2d    	asl   0x2d <_rsvd26+0x7>

0x000040e1 <LC4>:
    40e1:	2d 00       	blt   0x40e3 <LC5>

0x000040e3 <LC5>:
    40e3:	2b 00       	bmi   0x40e5 <___vt_13strstreambase$3ios>

0x000040e5 <___vt_13strstreambase$3ios>:
    40e5:	ff ea 00    	lds   0xea00 <.stab+0x324>
    40e8:	00          	bgnd  
    40e9:	3c          	3c
    40ea:	78 00 00    	asl   0x0 <*ABS*>

0x000040eb <___vt_3ios>:
    40eb:	00          	bgnd  
    40ec:	00          	bgnd  
    40ed:	00          	bgnd  
    40ee:	00          	bgnd  
    40ef:	3c          	3c
    40f0:	7e 00 00    	stx   0x0 <*ABS*>

0x000040f1 <___vt_12strstreambuf>:
    40f1:	00          	bgnd  
    40f2:	00          	bgnd  
    40f3:	00          	bgnd  
    40f4:	00          	bgnd  
    40f5:	3d          	rts   
    40f6:	39          	pshc  
    40f7:	30          	pulx  
    40f8:	0a          	rtc   
    40f9:	30          	pulx  
    40fa:	16 30 1a    	jsr   0x301a <_seekpos__9streambufii>
    40fd:	3b          	pshd  
    40fe:	5b 3d       	stab  0x3d <_rsvd26+0x17>
    4100:	a2 30       	sbca  1,x+
    4102:	35          	pshy  
    4103:	3d          	rts   
    4104:	a6 30       	ldaa  1,x+
    4106:	bc 31 24    	cpd   0x3124 <_pbackfail__9streambufi>

0x00004109 <___hc12_ashlhi>:
    4109:	8e 00 00    	tstx  
    410c:	27 04       	beq   0x4112 <ashlhi2>
    410e:	59          	asld  
    410f:	09          	dex   
    4110:	20 f7       	bra   0x4109 <___hc12_ashlhi>

0x00004112 <ashlhi2>:
    4112:	3d          	rts   

0x00004113 <___hc12_tstsf>:
    4113:	3b          	pshd  
    4114:	34          	pshx  
    4115:	35          	pshy  
    4116:	b7 75       	tsx   
    4118:	34          	pshx  
    4119:	b7 75       	tsx   
    411b:	b7 c5       	xgdx  
    411d:	83 00 0a    	subd  #0xa <lf>
    4120:	b7 c5       	xgdx  
    4122:	b7 57       	txs   
    4124:	ee 0a       	ldx   10,x
    4126:	19 f0 14    	leay  20,sp
    4129:	b7 64       	tfr   y,d
    412b:	ed f0 12    	ldy   18,sp
    412e:	eb 40       	addb  0,y
    4130:	89 00       	adca  #0x0
    4132:	16 43 1b    	jsr   0x431b <fp_push_float>
    4135:	16 44 ac    	jsr   0x44ac <fp_tst>
    4138:	b7 20       	tpa   
    413a:	b7 c6       	xgdy  
    413c:	b7 75       	tsx   
    413e:	ec e0 12    	ldd   18,x
    4141:	c3 00 01    	incd  
    4144:	6c e0 12    	std   18,x
    4147:	b7 c6       	xgdy  
    4149:	34          	pshx  
    414a:	b7 75       	tsx   
    414c:	6c 0a       	std   10,x
    414e:	ec 00       	ldd   0,x
    4150:	6c 0c       	std   12,x
    4152:	b7 20       	tpa   
    4154:	b7 c5       	xgdx  
    4156:	c3 00 0a    	addd  #0xa <lf>
    4159:	b7 c5       	xgdx  
    415b:	b7 57       	txs   
    415d:	b7 02       	tap   
    415f:	3a          	puld  
    4160:	30          	pulx  
    4161:	b7 02       	tap   
    4163:	31          	puly  
    4164:	30          	pulx  
    4165:	3a          	puld  
    4166:	3d          	rts   

0x00004167 <___hc12_floatunshisf>:
    4167:	3b          	pshd  
    4168:	34          	pshx  
    4169:	35          	pshy  
    416a:	b7 75       	tsx   
    416c:	34          	pshx  
    416d:	b7 75       	tsx   
    416f:	b7 c5       	xgdx  
    4171:	83 00 04    	subd  #0x4 <eot>
    4174:	b7 c5       	xgdx  
    4176:	b7 57       	txs   
    4178:	ee 04       	ldx   4,x
    417a:	16 43 63    	jsr   0x4363 <fp_push_uint>
    417d:	19 8e       	leay  14,sp
    417f:	b7 64       	tfr   y,d
    4181:	ed 8c       	ldy   12,sp
    4183:	eb 40       	addb  0,y
    4185:	89 00       	adca  #0x0
    4187:	16 43 40    	jsr   0x4340 <fp_pop_float>
    418a:	b7 76       	tsy   
    418c:	ec 4c       	ldd   12,y
    418e:	c3 00 01    	incd  
    4191:	6c 4c       	std   12,y
    4193:	34          	pshx  
    4194:	b7 75       	tsx   
    4196:	6c 04       	std   4,x
    4198:	ec 00       	ldd   0,x
    419a:	6c 06       	std   6,x
    419c:	b7 20       	tpa   
    419e:	b7 c5       	xgdx  
    41a0:	c3 00 04    	addd  #0x4 <eot>
    41a3:	b7 c5       	xgdx  
    41a5:	b7 57       	txs   
    41a7:	b7 02       	tap   
    41a9:	3a          	puld  
    41aa:	30          	pulx  
    41ab:	31          	puly  
    41ac:	30          	pulx  
    41ad:	3a          	puld  
    41ae:	3d          	rts   

0x000041af <___hc12_mulsf>:
    41af:	3b          	pshd  
    41b0:	cc 45 9a    	ldd   #0x459a <fp_mul>
    41b3:	16 48 bf    	jsr   0x48bf <___hc12_sfsfsf>
    41b6:	3a          	puld  
    41b7:	3d          	rts   

0x000041b8 <___hc12_floathisf>:
    41b8:	3b          	pshd  
    41b9:	34          	pshx  
    41ba:	35          	pshy  
    41bb:	b7 75       	tsx   
    41bd:	34          	pshx  
    41be:	b7 75       	tsx   
    41c0:	b7 c5       	xgdx  
    41c2:	83 00 04    	subd  #0x4 <eot>
    41c5:	b7 c5       	xgdx  
    41c7:	b7 57       	txs   
    41c9:	ee 04       	ldx   4,x
    41cb:	16 43 74    	jsr   0x4374 <fp_push_int>
    41ce:	19 8e       	leay  14,sp
    41d0:	b7 64       	tfr   y,d
    41d2:	ed 8c       	ldy   12,sp
    41d4:	eb 40       	addb  0,y
    41d6:	89 00       	adca  #0x0
    41d8:	16 43 40    	jsr   0x4340 <fp_pop_float>
    41db:	b7 76       	tsy   
    41dd:	ec 4c       	ldd   12,y
    41df:	c3 00 01    	incd  
    41e2:	6c 4c       	std   12,y
    41e4:	34          	pshx  
    41e5:	b7 75       	tsx   
    41e7:	6c 04       	std   4,x
    41e9:	ec 00       	ldd   0,x
    41eb:	6c 06       	std   6,x
    41ed:	b7 20       	tpa   
    41ef:	b7 c5       	xgdx  
    41f1:	c3 00 04    	addd  #0x4 <eot>
    41f4:	b7 c5       	xgdx  
    41f6:	b7 57       	txs   
    41f8:	b7 02       	tap   
    41fa:	3a          	puld  
    41fb:	30          	pulx  
    41fc:	31          	puly  
    41fd:	30          	pulx  
    41fe:	3a          	puld  
    41ff:	3d          	rts   

0x00004200 <___hc12_fixuns_truncsfhi>:
    4200:	3b          	pshd  
    4201:	34          	pshx  
    4202:	35          	pshy  
    4203:	b7 75       	tsx   
    4205:	34          	pshx  
    4206:	b7 75       	tsx   
    4208:	b7 c5       	xgdx  
    420a:	83 00 04    	subd  #0x4 <eot>
    420d:	b7 c5       	xgdx  
    420f:	b7 57       	txs   
    4211:	ee 04       	ldx   4,x
    4213:	19 8e       	leay  14,sp
    4215:	b7 64       	tfr   y,d
    4217:	ed 8c       	ldy   12,sp
    4219:	eb 40       	addb  0,y
    421b:	89 00       	adca  #0x0
    421d:	16 43 1b    	jsr   0x431b <fp_push_float>
    4220:	16 43 c1    	jsr   0x43c1 <fp_pop_uint>
    4223:	b7 76       	tsy   
    4225:	6c 4a       	std   10,y
    4227:	ec 4c       	ldd   12,y
    4229:	c3 00 01    	incd  
    422c:	6c 4c       	std   12,y
    422e:	34          	pshx  
    422f:	b7 75       	tsx   
    4231:	6c 04       	std   4,x
    4233:	ec 00       	ldd   0,x
    4235:	6c 06       	std   6,x
    4237:	b7 20       	tpa   
    4239:	b7 c5       	xgdx  
    423b:	c3 00 04    	addd  #0x4 <eot>
    423e:	b7 c5       	xgdx  
    4240:	b7 57       	txs   
    4242:	b7 02       	tap   
    4244:	3a          	puld  
    4245:	30          	pulx  
    4246:	31          	puly  
    4247:	30          	pulx  
    4248:	3a          	puld  
    4249:	3d          	rts   

0x0000424a <___hc12_negsf>:
    424a:	3b          	pshd  
    424b:	cc 45 1e    	ldd   #0x451e <fp_neg>
    424e:	16 49 2d    	jsr   0x492d <___hc12_sfsf>
    4251:	3a          	puld  
    4252:	3d          	rts   

0x00004253 <___hc12_addsf>:
    4253:	3b          	pshd  
    4254:	cc 45 32    	ldd   #0x4532 <fp_add>
    4257:	16 48 bf    	jsr   0x48bf <___hc12_sfsfsf>
    425a:	3a          	puld  
    425b:	3d          	rts   

0x0000425c <___hc12_divsf>:
    425c:	3b          	pshd  
    425d:	cc 45 e8    	ldd   #0x45e8 <fp_div>
    4260:	16 48 bf    	jsr   0x48bf <___hc12_sfsfsf>
    4263:	3a          	puld  
    4264:	3d          	rts   

0x00004265 <___hc12_cmpsf>:
    4265:	3b          	pshd  
    4266:	34          	pshx  
    4267:	35          	pshy  
    4268:	b7 75       	tsx   
    426a:	34          	pshx  
    426b:	b7 75       	tsx   
    426d:	b7 c5       	xgdx  
    426f:	83 00 0a    	subd  #0xa <lf>
    4272:	b7 c5       	xgdx  
    4274:	b7 57       	txs   
    4276:	ee 0a       	ldx   10,x
    4278:	19 f0 14    	leay  20,sp
    427b:	b7 64       	tfr   y,d
    427d:	ed f0 12    	ldy   18,sp
    4280:	eb 40       	addb  0,y
    4282:	89 00       	adca  #0x0
    4284:	16 43 1b    	jsr   0x431b <fp_push_float>
    4287:	19 f0 14    	leay  20,sp
    428a:	b7 64       	tfr   y,d
    428c:	ed f0 12    	ldy   18,sp
    428f:	eb 41       	addb  1,y
    4291:	89 00       	adca  #0x0
    4293:	16 43 1b    	jsr   0x431b <fp_push_float>
    4296:	16 44 dc    	jsr   0x44dc <fp_cmp>
    4299:	b7 20       	tpa   
    429b:	b7 c6       	xgdy  
    429d:	b7 75       	tsx   
    429f:	ec e0 12    	ldd   18,x
    42a2:	c3 00 02    	addd  #0x2 <err_under>
    42a5:	6c e0 12    	std   18,x
    42a8:	b7 c6       	xgdy  
    42aa:	34          	pshx  
    42ab:	b7 75       	tsx   
    42ad:	6c 0a       	std   10,x
    42af:	ec 00       	ldd   0,x
    42b1:	6c 0c       	std   12,x
    42b3:	b7 20       	tpa   
    42b5:	b7 c5       	xgdx  
    42b7:	c3 00 0a    	addd  #0xa <lf>
    42ba:	b7 c5       	xgdx  
    42bc:	b7 57       	txs   
    42be:	b7 02       	tap   
    42c0:	3a          	puld  
    42c1:	30          	pulx  
    42c2:	b7 02       	tap   
    42c4:	31          	puly  
    42c5:	30          	pulx  
    42c6:	3a          	puld  
    42c7:	3d          	rts   

0x000042c8 <___hc12_fix_truncsfhi>:
    42c8:	3b          	pshd  
    42c9:	34          	pshx  
    42ca:	35          	pshy  
    42cb:	b7 75       	tsx   
    42cd:	34          	pshx  
    42ce:	b7 75       	tsx   
    42d0:	b7 c5       	xgdx  
    42d2:	83 00 04    	subd  #0x4 <eot>
    42d5:	b7 c5       	xgdx  
    42d7:	b7 57       	txs   
    42d9:	ee 04       	ldx   4,x
    42db:	19 8e       	leay  14,sp
    42dd:	b7 64       	tfr   y,d
    42df:	ed 8c       	ldy   12,sp
    42e1:	eb 40       	addb  0,y
    42e3:	89 00       	adca  #0x0
    42e5:	16 43 1b    	jsr   0x431b <fp_push_float>
    42e8:	16 43 de    	jsr   0x43de <fp_pop_int>
    42eb:	b7 76       	tsy   
    42ed:	6c 4a       	std   10,y
    42ef:	ec 4c       	ldd   12,y
    42f1:	c3 00 01    	incd  
    42f4:	6c 4c       	std   12,y
    42f6:	34          	pshx  
    42f7:	b7 75       	tsx   
    42f9:	6c 04       	std   4,x
    42fb:	ec 00       	ldd   0,x
    42fd:	6c 06       	std   6,x
    42ff:	b7 20       	tpa   
    4301:	b7 c5       	xgdx  
    4303:	c3 00 04    	addd  #0x4 <eot>
    4306:	b7 c5       	xgdx  
    4308:	b7 57       	txs   
    430a:	b7 02       	tap   
    430c:	3a          	puld  
    430d:	30          	pulx  
    430e:	31          	puly  
    430f:	30          	pulx  
    4310:	3a          	puld  
    4311:	3d          	rts   

0x00004312 <___hc12_subsf>:
    4312:	3b          	pshd  
    4313:	cc 45 2a    	ldd   #0x452a <fp_sub>
    4316:	16 48 bf    	jsr   0x48bf <___hc12_sfsfsf>
    4319:	3a          	puld  
    431a:	3d          	rts   

0x0000431b <fp_push_float>:
    431b:	3b          	pshd  
    431c:	35          	pshy  
    431d:	b7 c6       	xgdy  
    431f:	b7 c5       	xgdx  
    4321:	83 00 06    	subd  #0x6 <aa_siz>
    4324:	b7 c5       	xgdx  
    4326:	69 00       	clr   0,x
    4328:	ec 40       	ldd   0,y
    432a:	27 09       	beq   0x4335 <push_f2>
    432c:	2a 03       	bpl   0x4331 <push_f1>
    432e:	0c 00 80    	bset  0,x,#0x80

0x00004331 <push_f1>:
    4331:	59          	asld  
    4332:	54          	lsrb  
    4333:	ca 80       	orab  #0x80

0x00004335 <push_f2>:
    4335:	6c 01       	std   1,x
    4337:	ec 42       	ldd   2,y
    4339:	6c 03       	std   3,x
    433b:	69 05       	clr   5,x
    433d:	31          	puly  
    433e:	3a          	puld  
    433f:	3d          	rts   

0x00004340 <fp_pop_float>:
    4340:	3b          	pshd  
    4341:	35          	pshy  
    4342:	b7 c6       	xgdy  
    4344:	ec 01       	ldd   1,x
    4346:	27 0b       	beq   0x4353 <pop_f1>
    4348:	0c 04 01    	bset  4,x,#0x1
    434b:	58          	aslb  
    434c:	49          	lsrd  
    434d:	e7 00       	tst   0,x
    434f:	2a 02       	bpl   0x4353 <pop_f1>
    4351:	8a 80       	oraa  #0x80

0x00004353 <pop_f1>:
    4353:	6c 40       	std   0,y
    4355:	ec 03       	ldd   3,x
    4357:	6c 42       	std   2,y
    4359:	b7 c5       	xgdx  
    435b:	c3 00 06    	addd  #0x6 <aa_siz>
    435e:	b7 c5       	xgdx  
    4360:	31          	puly  
    4361:	3a          	puld  
    4362:	3d          	rts   

0x00004363 <fp_push_uint>:
    4363:	b7 c5       	xgdx  
    4365:	83 00 06    	subd  #0x6 <aa_siz>
    4368:	b7 c5       	xgdx  
    436a:	6c 04       	std   4,x
    436c:	69 02       	clr   2,x
    436e:	69 03       	clr   3,x
    4370:	16 43 a4    	jsr   0x43a4 <long_float>
    4373:	3d          	rts   

0x00004374 <fp_push_int>:
    4374:	3b          	pshd  
    4375:	b7 c5       	xgdx  
    4377:	83 00 06    	subd  #0x6 <aa_siz>
    437a:	b7 c5       	xgdx  
    437c:	6b 05       	stab  5,x
    437e:	18 0e       	tab   
    4380:	b7 14       	sxtb  
    4382:	6c 03       	std   3,x
    4384:	6a 02       	staa  2,x
    4386:	16 43 a4    	jsr   0x43a4 <long_float>
    4389:	3a          	puld  
    438a:	3d          	rts   

0x0000438b <fp_push_long>:
    438b:	3b          	pshd  
    438c:	35          	pshy  
    438d:	b7 c6       	xgdy  
    438f:	b7 c5       	xgdx  
    4391:	83 00 06    	subd  #0x6 <aa_siz>
    4394:	b7 c5       	xgdx  
    4396:	ec 40       	ldd   0,y
    4398:	6c 02       	std   2,x
    439a:	ec 42       	ldd   2,y
    439c:	6c 04       	std   4,x
    439e:	16 43 a4    	jsr   0x43a4 <long_float>
    43a1:	31          	puly  
    43a2:	3a          	puld  
    43a3:	3d          	rts   

0x000043a4 <long_float>:
    43a4:	3b          	pshd  
    43a5:	69 00       	clr   0,x
    43a7:	e7 02       	tst   2,x
    43a9:	2a 06       	bpl   0x43b1 <long_f1>
    43ab:	16 48 26    	jsr   0x4826 <neg_top>
    43ae:	0d 00 7f    	bclr  0,x,#0x7f

0x000043b1 <long_f1>:
    43b1:	69 01       	clr   1,x
    43b3:	16 47 f6    	jsr   0x47f6 <test_top>
    43b6:	27 07       	beq   0x43bf <long_f2>
    43b8:	86 9e       	ldaa  #0x9e
    43ba:	6a 01       	staa  1,x
    43bc:	16 47 ad    	jsr   0x47ad <norm_top>

0x000043bf <long_f2>:
    43bf:	3a          	puld  
    43c0:	3d          	rts   

0x000043c1 <fp_pop_uint>:
    43c1:	16 44 1f    	jsr   0x441f <float_long>
    43c4:	ec 04       	ldd   4,x
    43c6:	3b          	pshd  
    43c7:	ec 02       	ldd   2,x
    43c9:	3a          	puld  
    43ca:	27 0a       	beq   0x43d6 <pop_u1>
    43cc:	cc 00 00    	ldd   #0x0 <*ABS*>
    43cf:	e7 02       	tst   2,x
    43d1:	2b 03       	bmi   0x43d6 <pop_u1>
    43d3:	cc ff ff    	ldd   #0xffff <.stab+0x7cb>

0x000043d6 <pop_u1>:
    43d6:	b7 c5       	xgdx  
    43d8:	c3 00 06    	addd  #0x6 <aa_siz>
    43db:	b7 c5       	xgdx  
    43dd:	3d          	rts   

0x000043de <fp_pop_int>:
    43de:	16 44 1f    	jsr   0x441f <float_long>
    43e1:	ec 02       	ldd   2,x
    43e3:	67 04       	asr   4,x
    43e5:	65 04       	rol   4,x
    43e7:	c9 00       	adcb  #0x0
    43e9:	89 00       	adca  #0x0
    43eb:	8c 00 00    	tstd  
    43ee:	26 04       	bne   0x43f4 <pop_i1>
    43f0:	ec 04       	ldd   4,x
    43f2:	20 0a       	bra   0x43fe <pop_i2>

0x000043f4 <pop_i1>:
    43f4:	cc 7f ff    	ldd   #0x7fff <.stab+0x1b7>
    43f7:	e7 02       	tst   2,x
    43f9:	2a 03       	bpl   0x43fe <pop_i2>
    43fb:	cc 80 01    	ldd   #0x8001 <_stack_top+0x1>

0x000043fe <pop_i2>:
    43fe:	b7 c5       	xgdx  
    4400:	c3 00 06    	addd  #0x6 <aa_siz>
    4403:	b7 c5       	xgdx  
    4405:	3d          	rts   

0x00004406 <fp_pop_long>:
    4406:	3b          	pshd  
    4407:	35          	pshy  
    4408:	b7 c6       	xgdy  
    440a:	16 44 1f    	jsr   0x441f <float_long>
    440d:	ec 02       	ldd   2,x
    440f:	6c 40       	std   0,y
    4411:	ec 04       	ldd   4,x
    4413:	6c 42       	std   2,y
    4415:	b7 c5       	xgdx  
    4417:	c3 00 06    	addd  #0x6 <aa_siz>
    441a:	b7 c5       	xgdx  
    441c:	31          	puly  
    441d:	3a          	puld  
    441e:	3d          	rts   

0x0000441f <float_long>:
    441f:	3b          	pshd  
    4420:	e6 01       	ldab  1,x
    4422:	c0 7f       	subb  #0x7f
    4424:	24 09       	bcc   0x442f <flt_l1>
    4426:	cc 00 00    	ldd   #0x0 <*ABS*>
    4429:	6c 02       	std   2,x
    442b:	6c 04       	std   4,x
    442d:	20 18       	bra   0x4447 <flt_l3>

0x0000442f <flt_l1>:
    442f:	c0 1f       	subb  #0x1f
    4431:	25 09       	bcs   0x443c <flt_l2>
    4433:	cc ff ff    	ldd   #0xffff <.stab+0x7cb>
    4436:	6c 02       	std   2,x
    4438:	6c 04       	std   4,x
    443a:	c6 ff       	ldab  #0xff

0x0000443c <flt_l2>:
    443c:	50          	negb  
    443d:	16 47 e0    	jsr   0x47e0 <denorm_top>
    4440:	e7 00       	tst   0,x
    4442:	2a 03       	bpl   0x4447 <flt_l3>
    4444:	16 48 26    	jsr   0x4826 <neg_top>

0x00004447 <flt_l3>:
    4447:	3a          	puld  
    4448:	3d          	rts   

0x00004449 <fp_int>:
    4449:	16 44 1f    	jsr   0x441f <float_long>
    444c:	16 43 a4    	jsr   0x43a4 <long_float>
    444f:	3d          	rts   

0x00004450 <fp_frac>:
    4450:	16 44 77    	jsr   0x4477 <fp_dup>
    4453:	16 44 49    	jsr   0x4449 <fp_int>
    4456:	16 45 2a    	jsr   0x452a <fp_sub>
    4459:	3d          	rts   

0x0000445a <fp_swap>:
    445a:	3b          	pshd  
    445b:	35          	pshy  
    445c:	ec 00       	ldd   0,x
    445e:	ed 06       	ldy   6,x
    4460:	6d 00       	sty   0,x
    4462:	6c 06       	std   6,x
    4464:	ec 02       	ldd   2,x
    4466:	ed 08       	ldy   8,x
    4468:	6d 02       	sty   2,x
    446a:	6c 08       	std   8,x
    446c:	ec 04       	ldd   4,x
    446e:	ed 0a       	ldy   10,x
    4470:	6d 04       	sty   4,x
    4472:	6c 0a       	std   10,x
    4474:	31          	puly  
    4475:	3a          	puld  
    4476:	3d          	rts   

0x00004477 <fp_dup>:
    4477:	3b          	pshd  
    4478:	b7 c5       	xgdx  
    447a:	83 00 06    	subd  #0x6 <aa_siz>
    447d:	b7 c5       	xgdx  
    447f:	ec 06       	ldd   6,x
    4481:	6c 00       	std   0,x
    4483:	ec 08       	ldd   8,x
    4485:	6c 02       	std   2,x
    4487:	ec 0a       	ldd   10,x
    4489:	6c 04       	std   4,x
    448b:	3a          	puld  
    448c:	3d          	rts   

0x0000448d <fp_over>:
    448d:	3b          	pshd  
    448e:	b7 c5       	xgdx  
    4490:	83 00 06    	subd  #0x6 <aa_siz>
    4493:	b7 c5       	xgdx  
    4495:	ec 0c       	ldd   12,x
    4497:	6c 00       	std   0,x
    4499:	ec 0e       	ldd   14,x
    449b:	6c 02       	std   2,x
    449d:	ec e0 10    	ldd   16,x
    44a0:	6c 04       	std   4,x
    44a2:	3a          	puld  
    44a3:	3d          	rts   

0x000044a4 <fp_drop>:
    44a4:	b7 c5       	xgdx  
    44a6:	c3 00 06    	addd  #0x6 <aa_siz>
    44a9:	b7 c5       	xgdx  
    44ab:	3d          	rts   

0x000044ac <fp_tst>:
    44ac:	3b          	pshd  
    44ad:	cc 00 00    	ldd   #0x0 <*ABS*>
    44b0:	16 43 74    	jsr   0x4374 <fp_push_int>
    44b3:	16 44 dc    	jsr   0x44dc <fp_cmp>
    44b6:	3a          	puld  
    44b7:	3d          	rts   

0x000044b8 <fp_min>:
    44b8:	16 44 8d    	jsr   0x448d <fp_over>
    44bb:	16 44 8d    	jsr   0x448d <fp_over>
    44be:	16 44 dc    	jsr   0x44dc <fp_cmp>
    44c1:	23 03       	bls   0x44c6 <fp_min1>
    44c3:	16 44 5a    	jsr   0x445a <fp_swap>

0x000044c6 <fp_min1>:
    44c6:	16 44 a4    	jsr   0x44a4 <fp_drop>
    44c9:	3d          	rts   

0x000044ca <fp_max>:
    44ca:	16 44 8d    	jsr   0x448d <fp_over>
    44cd:	16 44 8d    	jsr   0x448d <fp_over>
    44d0:	16 44 dc    	jsr   0x44dc <fp_cmp>
    44d3:	24 03       	bcc   0x44d8 <fp_max1>
    44d5:	16 44 5a    	jsr   0x445a <fp_swap>

0x000044d8 <fp_max1>:
    44d8:	16 44 a4    	jsr   0x44a4 <fp_drop>
    44db:	3d          	rts   

0x000044dc <fp_cmp>:
    44dc:	3b          	pshd  
    44dd:	34 3a       	txd   
    44df:	c3 00 0c    	addd  #0xc <aa_siz>
    44e2:	3b          	pshd  
    44e3:	a6 06       	ldaa  6,x
    44e5:	aa 00       	oraa  0,x
    44e7:	2b 12       	bmi   0x44fb <fp_cmp1>
    44e9:	e6 07       	ldab  7,x
    44eb:	e1 01       	cmpb  1,x
    44ed:	26 22       	bne   0x4511 <fp_cmp2>
    44ef:	ec 08       	ldd   8,x
    44f1:	ac 02       	cpd   2,x
    44f3:	26 1c       	bne   0x4511 <fp_cmp2>
    44f5:	ec 0a       	ldd   10,x
    44f7:	ac 04       	cpd   4,x
    44f9:	20 16       	bra   0x4511 <fp_cmp2>

0x000044fb <fp_cmp1>:
    44fb:	a6 00       	ldaa  0,x
    44fd:	a1 06       	cmpa  6,x
    44ff:	26 10       	bne   0x4511 <fp_cmp2>
    4501:	e6 01       	ldab  1,x
    4503:	e1 07       	cmpb  7,x
    4505:	26 0a       	bne   0x4511 <fp_cmp2>
    4507:	ec 02       	ldd   2,x
    4509:	ac 08       	cpd   8,x
    450b:	26 04       	bne   0x4511 <fp_cmp2>
    450d:	ec 04       	ldd   4,x
    450f:	ac 0a       	cpd   10,x

0x00004511 <fp_cmp2>:
    4511:	b7 20       	tpa   
    4513:	84 f5       	anda  #0xf5
    4515:	24 02       	bcc   0x4519 <fp_cmp3>
    4517:	8a 08       	oraa  #0x8

0x00004519 <fp_cmp3>:
    4519:	b7 02       	tap   
    451b:	30          	pulx  
    451c:	3a          	puld  
    451d:	3d          	rts   

0x0000451e <fp_neg>:
    451e:	37          	pshb  
    451f:	e6 00       	ldab  0,x
    4521:	c8 80       	eorb  #0x80
    4523:	6b 00       	stab  0,x
    4525:	33          	pulb  
    4526:	3d          	rts   

0x00004527 <fp_abs>:
    4527:	69 00       	clr   0,x
    4529:	3d          	rts   

0x0000452a <fp_sub>:
    452a:	61 00       	com   0,x
    452c:	0d 00 7f    	bclr  0,x,#0x7f
    452f:	07 01       	bsr   0x4532 <fp_add>
    4531:	3d          	rts   

0x00004532 <fp_add>:
    4532:	3b          	pshd  
    4533:	16 47 f6    	jsr   0x47f6 <test_top>
    4536:	26 03       	bne   0x453b <fp_a1>
    4538:	87          	clra  
    4539:	20 57       	bra   0x4592 <fp_a8>

0x0000453b <fp_a1>:
    453b:	16 48 08    	jsr   0x4808 <test_nxt>
    453e:	26 06       	bne   0x4546 <fp_a2>
    4540:	16 44 5a    	jsr   0x445a <fp_swap>
    4543:	87          	clra  
    4544:	20 4c       	bra   0x4592 <fp_a8>

0x00004546 <fp_a2>:
    4546:	e6 07       	ldab  7,x
    4548:	e0 01       	subb  1,x
    454a:	24 04       	bcc   0x4550 <fp_a3>
    454c:	50          	negb  
    454d:	16 44 5a    	jsr   0x445a <fp_swap>

0x00004550 <fp_a3>:
    4550:	c1 1f       	cmpb  #0x1f
    4552:	23 03       	bls   0x4557 <fp_a4>
    4554:	87          	clra  
    4555:	20 3b       	bra   0x4592 <fp_a8>

0x00004557 <fp_a4>:
    4557:	16 47 e0    	jsr   0x47e0 <denorm_top>
    455a:	e7 00       	tst   0,x
    455c:	2a 03       	bpl   0x4561 <fp_a5>
    455e:	16 48 26    	jsr   0x4826 <neg_top>

0x00004561 <fp_a5>:
    4561:	e7 06       	tst   6,x
    4563:	2a 03       	bpl   0x4568 <fp_a6>
    4565:	16 48 1a    	jsr   0x481a <neg_nxt>

0x00004568 <fp_a6>:
    4568:	ec 04       	ldd   4,x
    456a:	e3 0a       	addd  10,x
    456c:	6c 0a       	std   10,x
    456e:	ec 02       	ldd   2,x
    4570:	e9 09       	adcb  9,x
    4572:	a9 08       	adca  8,x
    4574:	6c 08       	std   8,x
    4576:	e6 00       	ldab  0,x
    4578:	e9 06       	adcb  6,x
    457a:	6b 06       	stab  6,x
    457c:	2a 06       	bpl   0x4584 <fp_a7>
    457e:	16 48 1a    	jsr   0x481a <neg_nxt>
    4581:	0c 06 80    	bset  6,x,#0x80

0x00004584 <fp_a7>:
    4584:	87          	clra  
    4585:	16 47 a1    	jsr   0x47a1 <norm_nxt>
    4588:	24 08       	bcc   0x4592 <fp_a8>
    458a:	86 02       	ldaa  #0x2
    458c:	e7 07       	tst   7,x
    458e:	27 02       	beq   0x4592 <fp_a8>
    4590:	86 01       	ldaa  #0x1

0x00004592 <fp_a8>:
    4592:	16 44 a4    	jsr   0x44a4 <fp_drop>
    4595:	16 48 48    	jsr   0x4848 <fix_errors>
    4598:	3a          	puld  
    4599:	3d          	rts   

0x0000459a <fp_mul>:
    459a:	3b          	pshd  
    459b:	16 47 f6    	jsr   0x47f6 <test_top>
    459e:	26 07       	bne   0x45a7 <fp_m1>
    45a0:	16 44 5a    	jsr   0x445a <fp_swap>
    45a3:	87          	clra  
    45a4:	06 45 e0    	jmp   0x45e0 <fp_m5>

0x000045a7 <fp_m1>:
    45a7:	16 48 08    	jsr   0x4808 <test_nxt>
    45aa:	26 04       	bne   0x45b0 <fp_m2>
    45ac:	87          	clra  
    45ad:	06 45 e0    	jmp   0x45e0 <fp_m5>

0x000045b0 <fp_m2>:
    45b0:	a6 00       	ldaa  0,x
    45b2:	a8 06       	eora  6,x
    45b4:	6a 06       	staa  6,x
    45b6:	16 46 7f    	jsr   0x467f <umul_ll>
    45b9:	16 47 a1    	jsr   0x47a1 <norm_nxt>
    45bc:	e6 01       	ldab  1,x
    45be:	87          	clra  
    45bf:	eb 07       	addb  7,x
    45c1:	89 00       	adca  #0x0
    45c3:	c3 00 01    	incd  
    45c6:	8c 00 7f    	cpd   #0x7f <exp_bias>
    45c9:	2e 04       	bgt   0x45cf <fp_m3>
    45cb:	86 02       	ldaa  #0x2
    45cd:	20 11       	bra   0x45e0 <fp_m5>

0x000045cf <fp_m3>:
    45cf:	8c 01 7d    	cpd   #0x17d <_ddrdlc+0x7e>
    45d2:	2f 04       	ble   0x45d8 <fp_m4>
    45d4:	86 01       	ldaa  #0x1
    45d6:	20 08       	bra   0x45e0 <fp_m5>

0x000045d8 <fp_m4>:
    45d8:	83 00 7f    	subd  #0x7f <exp_bias>
    45db:	6b 07       	stab  7,x
    45dd:	0c 0b 01    	bset  11,x,#0x1

0x000045e0 <fp_m5>:
    45e0:	16 44 a4    	jsr   0x44a4 <fp_drop>
    45e3:	16 48 48    	jsr   0x4848 <fix_errors>
    45e6:	3a          	puld  
    45e7:	3d          	rts   

0x000045e8 <fp_div>:
    45e8:	3b          	pshd  
    45e9:	35          	pshy  
    45ea:	16 47 f6    	jsr   0x47f6 <test_top>
    45ed:	26 05       	bne   0x45f4 <fp_d1>
    45ef:	86 03       	ldaa  #0x3
    45f1:	06 46 66    	jmp   0x4666 <fp_d6>

0x000045f4 <fp_d1>:
    45f4:	16 48 08    	jsr   0x4808 <test_nxt>
    45f7:	26 04       	bne   0x45fd <fp_d2>
    45f9:	87          	clra  
    45fa:	06 46 66    	jmp   0x4666 <fp_d6>

0x000045fd <fp_d2>:
    45fd:	a6 00       	ldaa  0,x
    45ff:	a8 06       	eora  6,x
    4601:	6a 06       	staa  6,x
    4603:	ec 02       	ldd   2,x
    4605:	3b          	pshd  
    4606:	34 31       	txy   
    4608:	b7 c6       	xgdy  
    460a:	c3 00 06    	addd  #0x6 <aa_siz>
    460d:	b7 c6       	xgdy  
    460f:	16 47 5e    	jsr   0x475e <udiv_lw>
    4612:	16 47 a1    	jsr   0x47a1 <norm_nxt>
    4615:	ec 04       	ldd   4,x
    4617:	27 10       	beq   0x4629 <fp_d3>
    4619:	41 51 c3 00 	negd  
    461d:	01 
    461e:	6c 04       	std   4,x
    4620:	3b          	pshd  
    4621:	ec 02       	ldd   2,x
    4623:	83 00 01    	decd  
    4626:	6c 02       	std   2,x
    4628:	3a          	puld  

0x00004629 <fp_d3>:
    4629:	3a          	puld  
    462a:	34 31       	txy   
    462c:	16 47 5e    	jsr   0x475e <udiv_lw>
    462f:	e6 01       	ldab  1,x
    4631:	16 47 ad    	jsr   0x47ad <norm_top>
    4634:	e0 01       	subb  1,x
    4636:	58          	aslb  
    4637:	eb 01       	addb  1,x
    4639:	6b 01       	stab  1,x
    463b:	16 46 7f    	jsr   0x467f <umul_ll>
    463e:	16 47 a1    	jsr   0x47a1 <norm_nxt>
    4641:	e6 07       	ldab  7,x
    4643:	87          	clra  
    4644:	e0 01       	subb  1,x
    4646:	82 00       	sbca  #0x0
    4648:	83 00 01    	decd  
    464b:	8c ff 81    	cpd   #0xff81 <.stab+0x74d>
    464e:	2e 04       	bgt   0x4654 <fp_d4>
    4650:	86 02       	ldaa  #0x2
    4652:	20 12       	bra   0x4666 <fp_d6>

0x00004654 <fp_d4>:
    4654:	8c 00 7f    	cpd   #0x7f <exp_bias>
    4657:	2f 04       	ble   0x465d <fp_d5>
    4659:	86 01       	ldaa  #0x1
    465b:	20 09       	bra   0x4666 <fp_d6>

0x0000465d <fp_d5>:
    465d:	c3 00 7f    	addd  #0x7f <exp_bias>
    4660:	6b 07       	stab  7,x
    4662:	0c 0b 01    	bset  11,x,#0x1
    4665:	87          	clra  

0x00004666 <fp_d6>:
    4666:	16 44 a4    	jsr   0x44a4 <fp_drop>
    4669:	16 48 48    	jsr   0x4848 <fix_errors>
    466c:	31          	puly  
    466d:	3a          	puld  
    466e:	3d          	rts   

0x0000466f <fp_mod>:
    466f:	16 44 5a    	jsr   0x445a <fp_swap>
    4672:	16 44 8d    	jsr   0x448d <fp_over>
    4675:	16 45 e8    	jsr   0x45e8 <fp_div>
    4678:	16 44 50    	jsr   0x4450 <fp_frac>
    467b:	16 45 9a    	jsr   0x459a <fp_mul>
    467e:	3d          	rts   

0x0000467f <umul_ll>:
    467f:	3b          	pshd  
    4680:	35          	pshy  
    4681:	cd 00 00    	clry  
    4684:	35          	pshy  
    4685:	35          	pshy  
    4686:	35          	pshy  
    4687:	35          	pshy  
    4688:	b7 76       	tsy   
    468a:	a6 05       	ldaa  5,x
    468c:	e6 0b       	ldab  11,x
    468e:	12          	mul   
    468f:	6c 46       	std   6,y
    4691:	a6 05       	ldaa  5,x
    4693:	e6 0a       	ldab  10,x
    4695:	12          	mul   
    4696:	e3 45       	addd  5,y
    4698:	6c 45       	std   5,y
    469a:	a6 04       	ldaa  4,x
    469c:	e6 0b       	ldab  11,x
    469e:	12          	mul   
    469f:	e3 45       	addd  5,y
    46a1:	6c 45       	std   5,y
    46a3:	24 02       	bcc   0x46a7 <um_ll1>
    46a5:	62 44       	inc   4,y

0x000046a7 <um_ll1>:
    46a7:	a6 05       	ldaa  5,x
    46a9:	e6 09       	ldab  9,x
    46ab:	12          	mul   
    46ac:	e3 44       	addd  4,y
    46ae:	6c 44       	std   4,y
    46b0:	a6 04       	ldaa  4,x
    46b2:	e6 0a       	ldab  10,x
    46b4:	12          	mul   
    46b5:	e3 44       	addd  4,y
    46b7:	6c 44       	std   4,y
    46b9:	24 02       	bcc   0x46bd <um_ll2>
    46bb:	62 43       	inc   3,y

0x000046bd <um_ll2>:
    46bd:	a6 03       	ldaa  3,x
    46bf:	e6 0b       	ldab  11,x
    46c1:	12          	mul   
    46c2:	e3 44       	addd  4,y
    46c4:	6c 44       	std   4,y
    46c6:	24 02       	bcc   0x46ca <um_ll3>
    46c8:	62 43       	inc   3,y

0x000046ca <um_ll3>:
    46ca:	a6 05       	ldaa  5,x
    46cc:	e6 08       	ldab  8,x
    46ce:	12          	mul   
    46cf:	e3 43       	addd  3,y
    46d1:	6c 43       	std   3,y
    46d3:	24 02       	bcc   0x46d7 <um_ll3a>
    46d5:	62 42       	inc   2,y

0x000046d7 <um_ll3a>:
    46d7:	a6 04       	ldaa  4,x
    46d9:	e6 09       	ldab  9,x
    46db:	12          	mul   
    46dc:	e3 43       	addd  3,y
    46de:	6c 43       	std   3,y
    46e0:	24 02       	bcc   0x46e4 <um_ll4>
    46e2:	62 42       	inc   2,y

0x000046e4 <um_ll4>:
    46e4:	a6 03       	ldaa  3,x
    46e6:	e6 0a       	ldab  10,x
    46e8:	12          	mul   
    46e9:	e3 43       	addd  3,y
    46eb:	6c 43       	std   3,y
    46ed:	24 02       	bcc   0x46f1 <um_ll5>
    46ef:	62 42       	inc   2,y

0x000046f1 <um_ll5>:
    46f1:	a6 02       	ldaa  2,x
    46f3:	e6 0b       	ldab  11,x
    46f5:	12          	mul   
    46f6:	e3 43       	addd  3,y
    46f8:	6c 43       	std   3,y
    46fa:	24 02       	bcc   0x46fe <um_ll6>
    46fc:	62 42       	inc   2,y

0x000046fe <um_ll6>:
    46fe:	a6 04       	ldaa  4,x
    4700:	e6 08       	ldab  8,x
    4702:	12          	mul   
    4703:	e3 42       	addd  2,y
    4705:	6c 42       	std   2,y
    4707:	24 02       	bcc   0x470b <um_ll6a>
    4709:	62 41       	inc   1,y

0x0000470b <um_ll6a>:
    470b:	a6 03       	ldaa  3,x
    470d:	e6 09       	ldab  9,x
    470f:	12          	mul   
    4710:	e3 42       	addd  2,y
    4712:	6c 42       	std   2,y
    4714:	24 02       	bcc   0x4718 <um_ll7>
    4716:	62 41       	inc   1,y

0x00004718 <um_ll7>:
    4718:	a6 02       	ldaa  2,x
    471a:	e6 0a       	ldab  10,x
    471c:	12          	mul   
    471d:	e3 42       	addd  2,y
    471f:	6c 42       	std   2,y
    4721:	24 02       	bcc   0x4725 <um_ll8>
    4723:	62 41       	inc   1,y

0x00004725 <um_ll8>:
    4725:	a6 03       	ldaa  3,x
    4727:	e6 08       	ldab  8,x
    4729:	12          	mul   
    472a:	e3 41       	addd  1,y
    472c:	6c 41       	std   1,y
    472e:	24 02       	bcc   0x4732 <um_ll8a>
    4730:	62 40       	inc   0,y

0x00004732 <um_ll8a>:
    4732:	a6 02       	ldaa  2,x
    4734:	e6 09       	ldab  9,x
    4736:	12          	mul   
    4737:	e3 41       	addd  1,y
    4739:	6c 41       	std   1,y
    473b:	24 02       	bcc   0x473f <um_ll9>
    473d:	62 40       	inc   0,y

0x0000473f <um_ll9>:
    473f:	a6 02       	ldaa  2,x
    4741:	e6 08       	ldab  8,x
    4743:	12          	mul   
    4744:	e3 40       	addd  0,y
    4746:	6c 40       	std   0,y
    4748:	ec 40       	ldd   0,y
    474a:	6c 08       	std   8,x
    474c:	ec 42       	ldd   2,y
    474e:	6c 0a       	std   10,x
    4750:	b7 76       	tsy   
    4752:	b7 c6       	xgdy  
    4754:	c3 00 08    	addd  #0x8 <bs>
    4757:	b7 c6       	xgdy  
    4759:	b7 67       	tys   
    475b:	31          	puly  
    475c:	3a          	puld  
    475d:	3d          	rts   

0x0000475e <udiv_lw>:
    475e:	3b          	pshd  
    475f:	34          	pshx  
    4760:	b7 75       	tsx   
    4762:	ec 42       	ldd   2,y
    4764:	ac 02       	cpd   2,x
    4766:	25 04       	bcs   0x476c <ud_lw1>
    4768:	a3 02       	subd  2,x
    476a:	62 40       	inc   0,y

0x0000476c <ud_lw1>:
    476c:	ee 02       	ldx   2,x
    476e:	18 11       	fdiv  
    4770:	6e 42       	stx   2,y
    4772:	b7 75       	tsx   
    4774:	ee 02       	ldx   2,x
    4776:	18 11       	fdiv  
    4778:	34          	pshx  
    4779:	b7 75       	tsx   
    477b:	ec 44       	ldd   4,y
    477d:	ac 04       	cpd   4,x
    477f:	25 08       	bcs   0x4789 <ud_lw2>
    4781:	a3 04       	subd  4,x
    4783:	62 43       	inc   3,y
    4785:	26 02       	bne   0x4789 <ud_lw2>
    4787:	62 42       	inc   2,y

0x00004789 <ud_lw2>:
    4789:	ee 04       	ldx   4,x
    478b:	18 11       	fdiv  
    478d:	b7 c5       	xgdx  
    478f:	b7 75       	tsx   
    4791:	e3 00       	addd  0,x
    4793:	6c 44       	std   4,y
    4795:	ec 42       	ldd   2,y
    4797:	c9 00       	adcb  #0x0
    4799:	89 00       	adca  #0x0
    479b:	6c 42       	std   2,y
    479d:	30          	pulx  
    479e:	30          	pulx  
    479f:	3a          	puld  
    47a0:	3d          	rts   

0x000047a1 <norm_nxt>:
    47a1:	34          	pshx  
    47a2:	b7 c5       	xgdx  
    47a4:	c3 00 06    	addd  #0x6 <aa_siz>
    47a7:	b7 c5       	xgdx  
    47a9:	07 02       	bsr   0x47ad <norm_top>
    47ab:	30          	pulx  
    47ac:	3d          	rts   

0x000047ad <norm_top>:
    47ad:	3b          	pshd  
    47ae:	07 46       	bsr   0x47f6 <test_top>
    47b0:	10 fe       	clc   
    47b2:	27 2a       	beq   0x47de <norm_t5>
    47b4:	ec 02       	ldd   2,x

0x000047b6 <norm_t1>:
    47b6:	0f 00 7f 13 	brclr 0,x,#0x7f,0x47cd <norm_t2>
    47ba:	67 00       	asr   0,x
    47bc:	0d 00 40    	bclr  0,x,#0x40
    47bf:	46 56       	rord  
    47c1:	66 04       	ror   4,x
    47c3:	66 05       	ror   5,x
    47c5:	62 01       	inc   1,x
    47c7:	0e 01 ff 0f 	brset 1,x,#0xff,0x47da <norm_t3>
    47cb:	20 e9       	bra   0x47b6 <norm_t1>

0x000047cd <norm_t2>:
    47cd:	97          	tsta  
    47ce:	2b 0c       	bmi   0x47dc <norm_t4>
    47d0:	68 05       	asl   5,x
    47d2:	65 04       	rol   4,x
    47d4:	55 45       	rold  
    47d6:	63 01       	dec   1,x
    47d8:	26 f3       	bne   0x47cd <norm_t2>

0x000047da <norm_t3>:
    47da:	14 01       	sec   

0x000047dc <norm_t4>:
    47dc:	6c 02       	std   2,x

0x000047de <norm_t5>:
    47de:	3a          	puld  
    47df:	3d          	rts   

0x000047e0 <denorm_top>:
    47e0:	3b          	pshd  
    47e1:	18 0f       	tba   
    47e3:	27 0f       	beq   0x47f4 <de_t2>
    47e5:	ab 01       	adda  1,x
    47e7:	6a 01       	staa  1,x

0x000047e9 <de_t1>:
    47e9:	64 02       	lsr   2,x
    47eb:	66 03       	ror   3,x
    47ed:	66 04       	ror   4,x
    47ef:	66 05       	ror   5,x
    47f1:	53          	decb  
    47f2:	26 f5       	bne   0x47e9 <de_t1>

0x000047f4 <de_t2>:
    47f4:	3a          	puld  
    47f5:	3d          	rts   

0x000047f6 <test_top>:
    47f6:	3b          	pshd  
    47f7:	ec 00       	ldd   0,x
    47f9:	84 7f       	anda  #0x7f
    47fb:	8c 00 00    	tstd  
    47fe:	26 06       	bne   0x4806 <test_t1>
    4800:	ec 02       	ldd   2,x
    4802:	26 02       	bne   0x4806 <test_t1>
    4804:	ec 04       	ldd   4,x

0x00004806 <test_t1>:
    4806:	3a          	puld  
    4807:	3d          	rts   

0x00004808 <test_nxt>:
    4808:	3b          	pshd  
    4809:	ec 06       	ldd   6,x
    480b:	84 7f       	anda  #0x7f
    480d:	8c 00 00    	tstd  
    4810:	26 06       	bne   0x4818 <test_n1>
    4812:	ec 08       	ldd   8,x
    4814:	26 02       	bne   0x4818 <test_n1>
    4816:	ec 0a       	ldd   10,x

0x00004818 <test_n1>:
    4818:	3a          	puld  
    4819:	3d          	rts   

0x0000481a <neg_nxt>:
    481a:	34          	pshx  
    481b:	b7 c5       	xgdx  
    481d:	c3 00 06    	addd  #0x6 <aa_siz>
    4820:	b7 c5       	xgdx  
    4822:	07 02       	bsr   0x4826 <neg_top>
    4824:	30          	pulx  
    4825:	3d          	rts   

0x00004826 <neg_top>:
    4826:	3b          	pshd  
    4827:	ec 04       	ldd   4,x
    4829:	51          	comb  
    482a:	41          	coma  
    482b:	61 03       	com   3,x
    482d:	61 02       	com   2,x
    482f:	61 00       	com   0,x
    4831:	c3 00 01    	incd  
    4834:	6c 04       	std   4,x
    4836:	ec 02       	ldd   2,x
    4838:	c9 00       	adcb  #0x0
    483a:	89 00       	adca  #0x0
    483c:	6c 02       	std   2,x
    483e:	e6 00       	ldab  0,x
    4840:	c9 00       	adcb  #0x0
    4842:	58          	aslb  
    4843:	57          	asrb  
    4844:	6b 00       	stab  0,x
    4846:	3a          	puld  
    4847:	3d          	rts   

0x00004848 <fix_errors>:
    4848:	3b          	pshd  
    4849:	35          	pshy  
    484a:	97          	tsta  
    484b:	27 22       	beq   0x486f <fix_e3>
    484d:	e6 00       	ldab  0,x
    484f:	c4 80       	andb  #0x80
    4851:	18 06       	aba   
    4853:	cd 48 72    	ldy   #0x4872 <error_tbl>
    4856:	c6 0b       	ldab  #0xb

0x00004858 <fix_e1>:
    4858:	a1 40       	cmpa  0,y
    485a:	27 07       	beq   0x4863 <fix_e2>
    485c:	19 ed       	aby   
    485e:	8d 48 b4    	cpy   #0x48b4 <error_end>
    4861:	25 f5       	bcs   0x4858 <fix_e1>

0x00004863 <fix_e2>:
    4863:	ec 41       	ldd   1,y
    4865:	6c 00       	std   0,x
    4867:	ec 43       	ldd   3,y
    4869:	6c 02       	std   2,x
    486b:	ec 45       	ldd   5,y
    486d:	6c 04       	std   4,x

0x0000486f <fix_e3>:
    486f:	31          	puly  
    4870:	3a          	puld  
    4871:	3d          	rts   

0x00004872 <error_tbl>:
    4872:	02          	iny   
    4873:	00          	bgnd  
    4874:	00          	bgnd  
    4875:	00          	bgnd  
    4876:	00          	bgnd  
    4877:	00          	bgnd  
    4878:	00          	bgnd  
    4879:	20 50       	bra   0x48cb <___hc12_sfsfsf+0xc>
    487b:	55          	rolb  
    487c:	00          	bgnd  
    487d:	82 00       	sbca  #0x0
    487f:	00          	bgnd  
    4880:	00          	bgnd  
    4881:	00          	bgnd  
    4882:	00          	bgnd  
    4883:	00          	bgnd  
    4884:	20 4e       	bra   0x48d4 <___hc12_sfsfsf+0x15>
    4886:	55          	rolb  
    4887:	00          	bgnd  
    4888:	01          	mem   
    4889:	00          	bgnd  
    488a:	fe ff ff    	ldx   0xffff <.stab+0x7cb>
    488d:	ff ff 20    	lds   0xff20 <.stab+0x6ec>
    4890:	50          	negb  
    4891:	4f 00 81 80 	brclr 0x0 <*ABS*>,#0x81,0x4815 <test_nxt+0xd>
    4895:	fe ff ff    	ldx   0xffff <.stab+0x7cb>
    4898:	ff ff 20    	lds   0xff20 <.stab+0x6ec>
    489b:	4e 4f 00 03 	brset 0x4f <_pwper23+0x1>,#0x0,0x48a2 <error_tbl+0x30>
    489f:	00          	bgnd  
    48a0:	fe ff ff    	ldx   0xffff <.stab+0x7cb>
    48a3:	ff ff 20    	lds   0xff20 <.stab+0x6ec>
    48a6:	50          	negb  
    48a7:	5a 00       	staa  0x0 <*ABS*>
    48a9:	83 80 fe    	subd  #0x80fe <.stab+0x8e>
    48ac:	ff ff ff    	lds   0xffff <.stab+0x7cb>
    48af:	ff 20 4e    	lds   0x204e <L3+0x1d>
    48b2:	5a 00       	staa  0x0 <*ABS*>

0x000048b4 <error_end>:
    48b4:	00          	bgnd  
    48b5:	00          	bgnd  
    48b6:	00          	bgnd  
    48b7:	00          	bgnd  
    48b8:	00          	bgnd  
    48b9:	00          	bgnd  
    48ba:	00          	bgnd  
    48bb:	20 3f       	bra   0x48fc <___hc12_sfsfsf+0x3d>
    48bd:	3f          	swi   
	...

0x000048bf <___hc12_sfsfsf>:
    48bf:	3b          	pshd  
    48c0:	34          	pshx  
    48c1:	35          	pshy  
    48c2:	b7 75       	tsx   
    48c4:	34          	pshx  
    48c5:	b7 75       	tsx   
    48c7:	b7 c5       	xgdx  
    48c9:	83 00 0a    	subd  #0xa <lf>
    48cc:	b7 c5       	xgdx  
    48ce:	b7 57       	txs   
    48d0:	ee 0a       	ldx   10,x
    48d2:	19 f0 18    	leay  24,sp
    48d5:	b7 64       	tfr   y,d
    48d7:	ed f0 16    	ldy   22,sp
    48da:	eb 41       	addb  1,y
    48dc:	89 00       	adca  #0x0
    48de:	16 43 1b    	jsr   0x431b <fp_push_float>
    48e1:	19 f0 18    	leay  24,sp
    48e4:	b7 64       	tfr   y,d
    48e6:	ed f0 16    	ldy   22,sp
    48e9:	eb 42       	addb  2,y
    48eb:	89 00       	adca  #0x0
    48ed:	16 43 1b    	jsr   0x431b <fp_push_float>
    48f0:	b7 76       	tsy   
    48f2:	ed e8 10    	ldy   16,y
    48f5:	15 40       	jsr   0,y
    48f7:	19 f0 18    	leay  24,sp
    48fa:	b7 64       	tfr   y,d
    48fc:	ed f0 16    	ldy   22,sp
    48ff:	eb 40       	addb  0,y
    4901:	89 00       	adca  #0x0
    4903:	16 43 40    	jsr   0x4340 <fp_pop_float>
    4906:	b7 75       	tsx   
    4908:	ec e0 16    	ldd   22,x
    490b:	c3 00 03    	addd  #0x3 <err_div0>
    490e:	6c e0 16    	std   22,x
    4911:	34          	pshx  
    4912:	b7 75       	tsx   
    4914:	6c 0a       	std   10,x
    4916:	ec 00       	ldd   0,x
    4918:	6c 0c       	std   12,x
    491a:	b7 20       	tpa   
    491c:	b7 c5       	xgdx  
    491e:	c3 00 0a    	addd  #0xa <lf>
    4921:	b7 c5       	xgdx  
    4923:	b7 57       	txs   
    4925:	b7 02       	tap   
    4927:	3a          	puld  
    4928:	30          	pulx  
    4929:	31          	puly  
    492a:	30          	pulx  
    492b:	3a          	puld  
    492c:	3d          	rts   

0x0000492d <___hc12_sfsf>:
    492d:	3b          	pshd  
    492e:	34          	pshx  
    492f:	35          	pshy  
    4930:	b7 75       	tsx   
    4932:	34          	pshx  
    4933:	b7 75       	tsx   
    4935:	b7 c5       	xgdx  
    4937:	83 00 04    	subd  #0x4 <eot>
    493a:	b7 c5       	xgdx  
    493c:	b7 57       	txs   
    493e:	ee 04       	ldx   4,x
    4940:	19 f0 12    	leay  18,sp
    4943:	b7 64       	tfr   y,d
    4945:	ed f0 10    	ldy   16,sp
    4948:	eb 41       	addb  1,y
    494a:	89 00       	adca  #0x0
    494c:	16 43 1b    	jsr   0x431b <fp_push_float>
    494f:	b7 76       	tsy   
    4951:	ed 4a       	ldy   10,y
    4953:	15 40       	jsr   0,y
    4955:	19 f0 12    	leay  18,sp
    4958:	b7 64       	tfr   y,d
    495a:	ed f0 10    	ldy   16,sp
    495d:	eb 40       	addb  0,y
    495f:	89 00       	adca  #0x0
    4961:	16 43 40    	jsr   0x4340 <fp_pop_float>
    4964:	b7 76       	tsy   
    4966:	ec e8 10    	ldd   16,y
    4969:	c3 00 02    	addd  #0x2 <err_under>
    496c:	6c e8 10    	std   16,y
    496f:	34          	pshx  
    4970:	b7 75       	tsx   
    4972:	6c 04       	std   4,x
    4974:	ec 00       	ldd   0,x
    4976:	6c 06       	std   6,x
    4978:	b7 20       	tpa   
    497a:	b7 c5       	xgdx  
    497c:	c3 00 04    	addd  #0x4 <eot>
    497f:	b7 c5       	xgdx  
    4981:	b7 57       	txs   
    4983:	b7 02       	tap   
    4985:	3a          	puld  
    4986:	30          	pulx  
    4987:	31          	puly  
    4988:	30          	pulx  
    4989:	3a          	puld  
    498a:	3d          	rts   

0x0000498b <_ctor_beg>:
    498b:	2a 7d       	bpl   0x4a0a <.data+0x65>

0x0000498d <_ctor_end>:
    498d:	2a 62       	bpl   0x49f1 <.data+0x4c>
Disassembly of section .vectors:

0x00000b00 <.vectors>:
	...
 b10:	15 e4       	jsr   a,x
 b12:	16 06 00    	jsr   0x600 <_ddrdlc+0x501>
 b15:	00          	bgnd  
 b16:	16 28 16    	jsr   0x2816 <L56+0x20>
 b19:	4a 16 6c 16 	call  0x166c <vsr4>,0x16
 b1d:	8e 16 b0    	cpx   #0x16b0 <vsr6>
 b20:	16 d2 16    	jsr   0xd216 <.stab+0x45a>
 b23:	f4 17 17    	andb  0x1717 <vsr9>
 b26:	17 3a       	jsr   0x3a <_rsvd26+0x14>
 b28:	17 5d       	jsr   0x5d <_rsvd58+0x5>
 b2a:	17 80       	jsr   0x80 <_tios>
 b2c:	17 a3       	jsr   0xa3 <_pacnt+0x1>
 b2e:	17 c6       	jsr   0xc6 <_sci0+0x6>
 b30:	17 e9       	jsr   0xe9 <_rsvdE0+0x9>
 b32:	18 0c 00 00 	movb  0x0 <*ABS*>,0x0 <*ABS*>
 b36:	00 00 
 b38:	00          	bgnd  
 b39:	00          	bgnd  
 b3a:	00          	bgnd  
 b3b:	00          	bgnd  
 b3c:	00          	bgnd  
 b3d:	00          	bgnd  
 b3e:	2a c1       	bpl   0xb01 <.vectors+0x1>
